
build/telosb/main.exe:     file format elf32-msp430


Disassembly of section .text:

00004000 <__watchdog_support>:
    4000:	55 42 20 01 	mov.b	&0x0120,r5	
    4004:	35 d0 08 5a 	bis	#23048,	r5	;#0x5a08
    4008:	82 45 36 35 	mov	r5,	&0x3536	

0000400c <__init_stack>:
    400c:	31 40 00 39 	mov	#14592,	r1	;#0x3900

00004010 <__do_copy_data>:
    4010:	3f 40 84 00 	mov	#132,	r15	;#0x0084
    4014:	0f 93       	tst	r15		
    4016:	08 24       	jz	$+18     	;abs 0x4028
    4018:	92 42 36 35 20 01 	mov	&0x3536,&0x0120	
    401e:	2f 83       	decd	r15		
    4020:	9f 4f 34 f3 00 11 	mov	-3276(r15),4352(r15);0xf334(r15), 0x1100(r15)
    4026:	f8 23       	jnz	$-14     	;abs 0x4018

00004028 <__do_clear_bss>:
    4028:	3f 40 b2 23 	mov	#9138,	r15	;#0x23b2
    402c:	0f 93       	tst	r15		
    402e:	07 24       	jz	$+16     	;abs 0x403e
    4030:	92 42 36 35 20 01 	mov	&0x3536,&0x0120	
    4036:	1f 83       	dec	r15		
    4038:	cf 43 84 11 	mov.b	#0,	4484(r15);r3 As==00, 0x1184(r15)
    403c:	f9 23       	jnz	$-12     	;abs 0x4030

0000403e <main>:
    403e:	31 50 ee ff 	add	#-18,	r1	;#0xffee
    4042:	b0 12 04 6a 	call	#0x6a04	
    4046:	47 4f       	mov.b	r15,	r7	
    4048:	3d 40 24 00 	mov	#36,	r13	;#0x0024
    404c:	3e 40 ff 00 	mov	#255,	r14	;#0x00ff
    4050:	3f 40 74 12 	mov	#4724,	r15	;#0x1274
    4054:	b0 12 94 f1 	call	#0xf194	
    4058:	f2 43 61 24 	mov.b	#-1,	&0x2461	;r3 As==11
    405c:	f2 43 33 2a 	mov.b	#-1,	&0x2a33	;r3 As==11
    4060:	b2 40 80 5a 20 01 	mov	#23168,	&0x0120	;#0x5a80
    4066:	a2 42 60 01 	mov	#4,	&0x0160	;r2 As==10
    406a:	82 43 2e 01 	mov	#0,	&0x012e	;r3 As==00
    406e:	a2 42 80 01 	mov	#4,	&0x0180	;r2 As==10
    4072:	82 43 1e 01 	mov	#0,	&0x011e	;r3 As==00
    4076:	b2 40 20 02 60 01 	mov	#544,	&0x0160	;#0x0220
    407c:	b2 40 20 01 80 01 	mov	#288,	&0x0180	;#0x0120
    4082:	f2 40 84 ff 57 00 	mov.b	#-124,	&0x0057	;#0xff84
    4088:	c2 43 58 00 	mov.b	#0,	&0x0058	;r3 As==00
    408c:	b2 40 00 40 82 01 	mov	#16384,	&0x0182	;#0x4000
    4092:	3b 40 0c 00 	mov	#12,	r11	;#0x000c
    4096:	3d 40 00 08 	mov	#2048,	r13	;#0x0800
    409a:	0e 43       	clr	r14		
    409c:	0c 4e       	mov	r14,	r12	
    409e:	0c dd       	bis	r13,	r12	
    40a0:	59 42 57 00 	mov.b	&0x0057,r9	
    40a4:	0a 4c       	mov	r12,	r10	
    40a6:	8a 10       	swpb	r10		
    40a8:	7a f0 07 00 	and.b	#7,	r10	;#0x0007
    40ac:	79 f0 f8 ff 	and.b	#-8,	r9	;#0xfff8
    40b0:	4a d9       	bis.b	r9,	r10	
    40b2:	c2 4a 57 00 	mov.b	r10,	&0x0057	
    40b6:	c2 4c 56 00 	mov.b	r12,	&0x0056	
    40ba:	79 40 03 00 	mov.b	#3,	r9	;#0x0003
    40be:	0a 43       	clr	r10		
    40c0:	08 43       	clr	r8		
    40c2:	0f 3c       	jmp	$+32     	;abs 0x40e2
    40c4:	18 42 90 01 	mov	&0x0190,r8	
    40c8:	38 52       	add	#8,	r8	;r2 As==11
    40ca:	82 48 92 01 	mov	r8,	&0x0192	
    40ce:	b2 f0 fe ff 82 01 	and	#-2,	&0x0182	;#0xfffe
    40d4:	92 b3 82 01 	bit	#1,	&0x0182	;r3 As==01
    40d8:	fd 27       	jz	$-4      	;abs 0x40d4
    40da:	1f 42 70 01 	mov	&0x0170,r15	
    40de:	08 4a       	mov	r10,	r8	
    40e0:	0a 4f       	mov	r15,	r10	
    40e2:	79 53       	add.b	#-1,	r9	;r3 As==11
    40e4:	ef 23       	jnz	$-32     	;abs 0x40c4
    40e6:	0a 88       	sub	r8,	r10	
    40e8:	3a 90 01 04 	cmp	#1025,	r10	;#0x0401
    40ec:	01 2c       	jc	$+4      	;abs 0x40f0
    40ee:	0e 4c       	mov	r12,	r14	
    40f0:	0d 11       	rra	r13		
    40f2:	3b 53       	add	#-1,	r11	;r3 As==11
    40f4:	d3 23       	jnz	$-88     	;abs 0x409c
    40f6:	0f 4e       	mov	r14,	r15	
    40f8:	3f f0 e0 00 	and	#224,	r15	;#0x00e0
    40fc:	3f 90 e0 00 	cmp	#224,	r15	;#0x00e0
    4100:	02 20       	jnz	$+6      	;abs 0x4106
    4102:	3e f0 e0 ff 	and	#-32,	r14	;#0xffe0
    4106:	5c 42 57 00 	mov.b	&0x0057,r12	
    410a:	0d 4e       	mov	r14,	r13	
    410c:	8d 10       	swpb	r13		
    410e:	7d f0 07 00 	and.b	#7,	r13	;#0x0007
    4112:	7c f0 f8 ff 	and.b	#-8,	r12	;#0xfff8
    4116:	4d dc       	bis.b	r12,	r13	
    4118:	c2 4d 57 00 	mov.b	r13,	&0x0057	
    411c:	c2 4e 56 00 	mov.b	r14,	&0x0056	
    4120:	5e 42 57 00 	mov.b	&0x0057,r14	
    4124:	7e f0 07 00 	and.b	#7,	r14	;#0x0007
    4128:	7e d0 80 ff 	bis.b	#-128,	r14	;#0xff80
    412c:	c2 4e 57 00 	mov.b	r14,	&0x0057	
    4130:	e2 42 58 00 	mov.b	#4,	&0x0058	;r2 As==10
    4134:	f2 f0 fd ff 00 00 	and.b	#-3,	&0x0000	;#0xfffd
    413a:	82 43 70 01 	mov	#0,	&0x0170	;r3 As==00
    413e:	b2 40 02 02 60 01 	mov	#514,	&0x0160	;#0x0202
    4144:	82 43 90 01 	mov	#0,	&0x0190	;r3 As==00
    4148:	b2 40 02 01 80 01 	mov	#258,	&0x0180	;#0x0102
    414e:	1e 42 60 01 	mov	&0x0160,r14	
    4152:	3e f0 cf ff 	and	#-49,	r14	;#0xffcf
    4156:	3e d0 20 00 	bis	#32,	r14	;#0x0020
    415a:	82 4e 60 01 	mov	r14,	&0x0160	
    415e:	1e 42 80 01 	mov	&0x0180,r14	
    4162:	3e f0 cf ff 	and	#-49,	r14	;#0xffcf
    4166:	3e d0 20 00 	bis	#32,	r14	;#0x0020
    416a:	82 4e 80 01 	mov	r14,	&0x0180	
    416e:	c2 43 26 00 	mov.b	#0,	&0x0026	;r3 As==00
    4172:	c2 43 2e 00 	mov.b	#0,	&0x002e	;r3 As==00
    4176:	c2 43 1b 00 	mov.b	#0,	&0x001b	;r3 As==00
    417a:	c2 43 1f 00 	mov.b	#0,	&0x001f	;r3 As==00
    417e:	c2 43 33 00 	mov.b	#0,	&0x0033	;r3 As==00
    4182:	c2 43 37 00 	mov.b	#0,	&0x0037	;r3 As==00
    4186:	c2 43 21 00 	mov.b	#0,	&0x0021	;r3 As==00
    418a:	f2 40 e0 ff 22 00 	mov.b	#-32,	&0x0022	;#0xffe0
    4190:	f2 40 30 00 29 00 	mov.b	#48,	&0x0029	;#0x0030
    4196:	f2 40 7b 00 2a 00 	mov.b	#123,	&0x002a	;#0x007b
    419c:	c2 43 19 00 	mov.b	#0,	&0x0019	;r3 As==00
    41a0:	f2 40 f1 ff 1a 00 	mov.b	#-15,	&0x001a	;#0xfff1
    41a6:	f2 40 dd ff 1d 00 	mov.b	#-35,	&0x001d	;#0xffdd
    41ac:	f2 40 fd ff 1e 00 	mov.b	#-3,	&0x001e	;#0xfffd
    41b2:	f2 43 31 00 	mov.b	#-1,	&0x0031	;r3 As==11
    41b6:	f2 43 32 00 	mov.b	#-1,	&0x0032	;r3 As==11
    41ba:	c2 43 35 00 	mov.b	#0,	&0x0035	;r3 As==00
    41be:	f2 43 36 00 	mov.b	#-1,	&0x0036	;r3 As==11
    41c2:	c2 43 25 00 	mov.b	#0,	&0x0025	;r3 As==00
    41c6:	c2 43 2d 00 	mov.b	#0,	&0x002d	;r3 As==00
    41ca:	1f 42 70 01 	mov	&0x0170,r15	
    41ce:	1e 42 70 01 	mov	&0x0170,r14	
    41d2:	0e 8f       	sub	r15,	r14	
    41d4:	3e 90 01 28 	cmp	#10241,	r14	;#0x2801
    41d8:	fa 2b       	jnc	$-10     	;abs 0x41ce
    41da:	e2 d3 1a 00 	bis.b	#2,	&0x001a	;r3 As==10
    41de:	f2 d2 1a 00 	bis.b	#8,	&0x001a	;r2 As==11
    41e2:	f2 d0 80 ff 1e 00 	bis.b	#-128,	&0x001e	;#0xff80
    41e8:	f2 d0 10 00 1e 00 	bis.b	#16,	&0x001e	;#0x0010
    41ee:	f2 d0 80 ff 1d 00 	bis.b	#-128,	&0x001d	;#0xff80
    41f4:	f2 d0 10 00 1d 00 	bis.b	#16,	&0x001d	;#0x0010
    41fa:	03 43       	nop			
    41fc:	03 43       	nop			
    41fe:	f2 f0 ef ff 1d 00 	and.b	#-17,	&0x001d	;#0xffef
    4204:	f2 f0 f7 ff 19 00 	and.b	#-9,	&0x0019	;#0xfff7
    420a:	5f 43       	mov.b	#1,	r15	;r3 As==01
    420c:	b0 12 20 4b 	call	#0x4b20	
    4210:	4f 43       	clr.b	r15		
    4212:	b0 12 20 4b 	call	#0x4b20	
    4216:	5f 43       	mov.b	#1,	r15	;r3 As==01
    4218:	b0 12 20 4b 	call	#0x4b20	
    421c:	5f 43       	mov.b	#1,	r15	;r3 As==01
    421e:	b0 12 20 4b 	call	#0x4b20	
    4222:	5f 43       	mov.b	#1,	r15	;r3 As==01
    4224:	b0 12 20 4b 	call	#0x4b20	
    4228:	4f 43       	clr.b	r15		
    422a:	b0 12 20 4b 	call	#0x4b20	
    422e:	4f 43       	clr.b	r15		
    4230:	b0 12 20 4b 	call	#0x4b20	
    4234:	5f 43       	mov.b	#1,	r15	;r3 As==01
    4236:	b0 12 20 4b 	call	#0x4b20	
    423a:	f2 d0 10 00 1d 00 	bis.b	#16,	&0x001d	;#0x0010
    4240:	f2 d2 19 00 	bis.b	#8,	&0x0019	;r2 As==11
    4244:	e2 d3 19 00 	bis.b	#2,	&0x0019	;r3 As==10
    4248:	f2 d0 10 00 32 00 	bis.b	#16,	&0x0032	;#0x0010
    424e:	f2 d0 20 00 32 00 	bis.b	#32,	&0x0032	;#0x0020
    4254:	f2 d0 40 00 32 00 	bis.b	#64,	&0x0032	;#0x0040
    425a:	f2 d0 10 00 31 00 	bis.b	#16,	&0x0031	;#0x0010
    4260:	f2 d0 20 00 31 00 	bis.b	#32,	&0x0031	;#0x0020
    4266:	f2 d0 40 00 31 00 	bis.b	#64,	&0x0031	;#0x0040
    426c:	b0 12 e2 de 	call	#0xdee2	
    4270:	4f 93       	tst.b	r15		
    4272:	fc 23       	jnz	$-6      	;abs 0x426c
    4274:	b2 40 a0 15 ca 12 	mov	#5536,	&0x12ca	;#0x15a0
    427a:	b2 40 14 16 cc 12 	mov	#5652,	&0x12cc	;#0x1614
    4280:	b2 40 88 16 ce 12 	mov	#5768,	&0x12ce	;#0x1688
    4286:	b2 40 fc 16 d0 12 	mov	#5884,	&0x12d0	;#0x16fc
    428c:	b2 40 70 17 d2 12 	mov	#6000,	&0x12d2	;#0x1770
    4292:	f2 40 05 00 51 12 	mov.b	#5,	&0x1251	;#0x0005
    4298:	c2 43 37 1c 	mov.b	#0,	&0x1c37	;r3 As==00
    429c:	b2 40 e6 1b 16 12 	mov	#7142,	&0x1216	;#0x1be6
    42a2:	b2 40 ee 1b 18 12 	mov	#7150,	&0x1218	;#0x1bee
    42a8:	b2 40 f6 1b 1a 12 	mov	#7158,	&0x121a	;#0x1bf6
    42ae:	f2 40 03 00 ad 12 	mov.b	#3,	&0x12ad	;#0x0003
    42b4:	c2 43 50 2a 	mov.b	#0,	&0x2a50	;r3 As==00
    42b8:	b2 40 18 2a 7c 24 	mov	#10776,	&0x247c	;#0x2a18
    42be:	b2 40 20 2a 7e 24 	mov	#10784,	&0x247e	;#0x2a20
    42c4:	b2 40 28 2a 80 24 	mov	#10792,	&0x2480	;#0x2a28
    42ca:	f2 40 03 00 b8 12 	mov.b	#3,	&0x12b8	;#0x0003
    42d0:	c2 43 64 12 	mov.b	#0,	&0x1264	;r3 As==00
    42d4:	3c 40 36 2a 	mov	#10806,	r12	;#0x2a36
    42d8:	0d 43       	clr	r13		
    42da:	0e 4d       	mov	r13,	r14	
    42dc:	0e 5e       	rla	r14		
    42de:	0e 5e       	rla	r14		
    42e0:	3e 50 04 1c 	add	#7172,	r14	;#0x1c04
    42e4:	8c 4e 00 00 	mov	r14,	0(r12)	;0x0000(r12)
    42e8:	1d 53       	inc	r13		
    42ea:	2c 53       	incd	r12		
    42ec:	3d 90 0c 00 	cmp	#12,	r13	;#0x000c
    42f0:	f4 23       	jnz	$-22     	;abs 0x42da
    42f2:	f2 40 0c 00 f3 17 	mov.b	#12,	&0x17f3	;#0x000c
    42f8:	c2 43 08 25 	mov.b	#0,	&0x2508	;r3 As==00
    42fc:	3d 40 60 1c 	mov	#7264,	r13	;#0x1c60
    4300:	0e 43       	clr	r14		
    4302:	02 12       	push	r2		
    4304:	32 c2       	dint			
    4306:	03 43       	nop			
    4308:	82 4e 32 01 	mov	r14,	&0x0132	
    430c:	b2 40 8c 00 38 01 	mov	#140,	&0x0138	;#0x008c
    4312:	1f 42 3a 01 	mov	&0x013a,r15	
    4316:	32 41       	pop	r2		
    4318:	3f 50 e0 1c 	add	#7392,	r15	;#0x1ce0
    431c:	8d 4f 00 00 	mov	r15,	0(r13)	;0x0000(r13)
    4320:	1e 53       	inc	r14		
    4322:	2d 53       	incd	r13		
    4324:	3e 90 0c 00 	cmp	#12,	r14	;#0x000c
    4328:	ec 23       	jnz	$-38     	;abs 0x4302
    432a:	f2 40 0c 00 f5 17 	mov.b	#12,	&0x17f5	;#0x000c
    4330:	c2 43 2e 15 	mov.b	#0,	&0x152e	;r3 As==00
    4334:	b2 43 40 12 	mov	#-1,	&0x1240	;r3 As==11
    4338:	c2 43 42 12 	mov.b	#0,	&0x1242	;r3 As==00
    433c:	b2 43 44 12 	mov	#-1,	&0x1244	;r3 As==11
    4340:	c2 43 46 12 	mov.b	#0,	&0x1246	;r3 As==00
    4344:	b2 43 48 12 	mov	#-1,	&0x1248	;r3 As==11
    4348:	c2 43 4a 12 	mov.b	#0,	&0x124a	;r3 As==00
    434c:	b2 43 4c 12 	mov	#-1,	&0x124c	;r3 As==11
    4350:	c2 43 4e 12 	mov.b	#0,	&0x124e	;r3 As==00
    4354:	b0 12 12 70 	call	#0x7012	
    4358:	c2 4e 82 23 	mov.b	r14,	&0x2382	
    435c:	b2 40 d4 23 f0 11 	mov	#9172,	&0x11f0	;#0x23d4
    4362:	f2 f0 ef ff 22 00 	and.b	#-17,	&0x0022	;#0xffef
    4368:	e2 d2 1e 00 	bis.b	#4,	&0x001e	;r2 As==10
    436c:	f2 f0 fd ff 1e 00 	and.b	#-3,	&0x001e	;#0xfffd
    4372:	b2 f0 ef ff 88 01 	and	#-17,	&0x0188	;#0xffef
    4378:	b2 40 00 40 88 01 	mov	#16384,	&0x0188	;#0x4000
    437e:	b0 12 ee e8 	call	#0xe8ee	
    4382:	3d 40 09 00 	mov	#9,	r13	;#0x0009
    4386:	0e 43       	clr	r14		
    4388:	3f 40 da 14 	mov	#5338,	r15	;#0x14da
    438c:	b0 12 94 f1 	call	#0xf194	
    4390:	3c 40 03 00 	mov	#3,	r12	;#0x0003
    4394:	3d 40 1c 00 	mov	#28,	r13	;#0x001c
    4398:	3e 40 3a 15 	mov	#5434,	r14	;#0x153a
    439c:	3f 40 22 1b 	mov	#6946,	r15	;#0x1b22
    43a0:	b0 12 a8 ed 	call	#0xeda8	
    43a4:	3e 40 c4 54 	mov	#21700,	r14	;#0x54c4
    43a8:	3f 40 22 1b 	mov	#6946,	r15	;#0x1b22
    43ac:	b0 12 00 ee 	call	#0xee00	
    43b0:	b2 f0 ef ff 8a 01 	and	#-17,	&0x018a	;#0xffef
    43b6:	b2 40 00 40 8a 01 	mov	#16384,	&0x018a	;#0x4000
    43bc:	1f 42 82 11 	mov	&0x1182,r15	
    43c0:	1f 53       	inc	r15		
    43c2:	82 4f 26 15 	mov	r15,	&0x1526	
    43c6:	82 43 28 15 	mov	#0,	&0x1528	;r3 As==00
    43ca:	f2 43 8a 24 	mov.b	#-1,	&0x248a	;r3 As==11
    43ce:	c2 43 8c 1c 	mov.b	#0,	&0x1c8c	;r3 As==00
    43d2:	c2 43 8d 1c 	mov.b	#0,	&0x1c8d	;r3 As==00
    43d6:	c2 43 8e 1c 	mov.b	#0,	&0x1c8e	;r3 As==00
    43da:	c2 43 8f 1c 	mov.b	#0,	&0x1c8f	;r3 As==00
    43de:	c2 43 90 1c 	mov.b	#0,	&0x1c90	;r3 As==00
    43e2:	e2 d2 1e 00 	bis.b	#4,	&0x001e	;r2 As==10
    43e6:	f2 d0 40 00 1e 00 	bis.b	#64,	&0x001e	;#0x0040
    43ec:	f2 d0 20 00 1e 00 	bis.b	#32,	&0x001e	;#0x0020
    43f2:	92 42 38 11 92 15 	mov	&0x1138,&0x1592	
    43f8:	b0 12 d6 79 	call	#0x79d6	
    43fc:	82 4c ba 1c 	mov	r12,	&0x1cba	
    4400:	82 4d bc 1c 	mov	r13,	&0x1cbc	
    4404:	82 4e be 1c 	mov	r14,	&0x1cbe	
    4408:	82 4f c0 1c 	mov	r15,	&0x1cc0	
    440c:	d2 42 37 11 ca 14 	mov.b	&0x1137,&0x14ca	
    4412:	c2 43 cb 14 	mov.b	#0,	&0x14cb	;r3 As==00
    4416:	f2 40 1f 00 79 1c 	mov.b	#31,	&0x1c79	;#0x001f
    441c:	f2 40 1a 00 de 1c 	mov.b	#26,	&0x1cde	;#0x001a
    4422:	b0 12 d6 79 	call	#0x79d6	
    4426:	82 4c ba 1c 	mov	r12,	&0x1cba	
    442a:	82 4d bc 1c 	mov	r13,	&0x1cbc	
    442e:	82 4e be 1c 	mov	r14,	&0x1cbe	
    4432:	82 4f c0 1c 	mov	r15,	&0x1cc0	
    4436:	3e 40 ba 1c 	mov	#7354,	r14	;#0x1cba
    443a:	0d 4e       	mov	r14,	r13	
    443c:	3d 50 07 00 	add	#7,	r13	;#0x0007
    4440:	0c 43       	clr	r12		
    4442:	6f 4e       	mov.b	@r14,	r15	
    4444:	ee 4d 00 00 	mov.b	@r13,	0(r14)	;0x0000(r14)
    4448:	cd 4f 00 00 	mov.b	r15,	0(r13)	;0x0000(r13)
    444c:	1c 53       	inc	r12		
    444e:	1e 53       	inc	r14		
    4450:	3d 53       	add	#-1,	r13	;r3 As==11
    4452:	2c 92       	cmp	#4,	r12	;r2 As==10
    4454:	f6 23       	jnz	$-18     	;abs 0x4442
    4456:	d2 43 b1 12 	mov.b	#1,	&0x12b1	;r3 As==01
    445a:	d2 43 14 2a 	mov.b	#1,	&0x2a14	;r3 As==01
    445e:	d2 43 cf 14 	mov.b	#1,	&0x14cf	;r3 As==01
    4462:	d2 43 b3 1c 	mov.b	#1,	&0x1cb3	;r3 As==01
    4466:	92 42 82 11 28 1b 	mov	&0x1182,&0x1b28	
    446c:	b2 40 22 00 56 2a 	mov	#34,	&0x2a56	;#0x0022
    4472:	f2 43 38 15 	mov.b	#-1,	&0x1538	;r3 As==11
    4476:	0d 43       	clr	r13		
    4478:	3e 40 ac 23 	mov	#9132,	r14	;#0x23ac
    447c:	05 3c       	jmp	$+12     	;abs 0x4488
    447e:	4c 93       	tst.b	r12		
    4480:	02 20       	jnz	$+6      	;abs 0x4486
    4482:	30 40 ec 47 	br	#0x47ec	
    4486:	1d 53       	inc	r13		
    4488:	4c 4d       	mov.b	r13,	r12	
    448a:	4f 4c       	mov.b	r12,	r15	
    448c:	5f 53       	inc.b	r15		
    448e:	3d 90 ff 00 	cmp	#255,	r13	;#0x00ff
    4492:	03 24       	jz	$+8      	;abs 0x449a
    4494:	3e 90 ad 23 	cmp	#9133,	r14	;#0x23ad
    4498:	f2 2b       	jnc	$-26     	;abs 0x447e
    449a:	ce 43 00 00 	mov.b	#0,	0(r14)	;r3 As==00, 0x0000(r14)
    449e:	3d 40 14 00 	mov	#20,	r13	;#0x0014
    44a2:	0e 43       	clr	r14		
    44a4:	3f 40 94 1c 	mov	#7316,	r15	;#0x1c94
    44a8:	b0 12 94 f1 	call	#0xf194	
    44ac:	0d 43       	clr	r13		
    44ae:	3e 40 fa 17 	mov	#6138,	r14	;#0x17fa
    44b2:	09 3c       	jmp	$+20     	;abs 0x44c6
    44b4:	7c 92       	cmp.b	#8,	r12	;r2 As==11
    44b6:	06 2c       	jc	$+14     	;abs 0x44c4
    44b8:	cd 93 1a f3 	tst.b	-3302(r13)	;0xf31a(r13)
    44bc:	03 24       	jz	$+8      	;abs 0x44c4
    44be:	ce 4f 00 00 	mov.b	r15,	0(r14)	;0x0000(r14)
    44c2:	1e 53       	inc	r14		
    44c4:	1d 53       	inc	r13		
    44c6:	4c 4d       	mov.b	r13,	r12	
    44c8:	4f 4c       	mov.b	r12,	r15	
    44ca:	5f 53       	inc.b	r15		
    44cc:	3d 90 ff 00 	cmp	#255,	r13	;#0x00ff
    44d0:	03 24       	jz	$+8      	;abs 0x44d8
    44d2:	3e 90 fe 17 	cmp	#6142,	r14	;#0x17fe
    44d6:	ee 2b       	jnc	$-34     	;abs 0x44b4
    44d8:	ce 43 00 00 	mov.b	#0,	0(r14)	;r3 As==00, 0x0000(r14)
    44dc:	c2 93 ae 12 	tst.b	&0x12ae	
    44e0:	02 20       	jnz	$+6      	;abs 0x44e6
    44e2:	b0 12 1a 5a 	call	#0x5a1a	
    44e6:	b0 12 e2 de 	call	#0xdee2	
    44ea:	4f 93       	tst.b	r15		
    44ec:	fc 23       	jnz	$-6      	;abs 0x44e6
    44ee:	4f 47       	mov.b	r7,	r15	
    44f0:	b0 12 16 6a 	call	#0x6a16	
    44f4:	32 d2       	eint			
    44f6:	3d 40 10 00 	mov	#16,	r13	;#0x0010
    44fa:	0e 43       	clr	r14		
    44fc:	0f 41       	mov	r1,	r15	
    44fe:	2f 53       	incd	r15		
    4500:	b0 12 94 f1 	call	#0xf194	
    4504:	0e 41       	mov	r1,	r14	
    4506:	2e 53       	incd	r14		
    4508:	3f 40 fa f2 	mov	#-3334,	r15	;#0xf2fa
    450c:	b0 12 e2 ea 	call	#0xeae2	
    4510:	33 12       	push	#-1		;r3 As==11
    4512:	33 12       	push	#-1		;r3 As==11
    4514:	3c 43       	mov	#-1,	r12	;r3 As==11
    4516:	3d 43       	mov	#-1,	r13	;r3 As==11
    4518:	7e 40 40 00 	mov.b	#64,	r14	;#0x0040
    451c:	0f 41       	mov	r1,	r15	
    451e:	3f 50 06 00 	add	#6,	r15	;#0x0006
    4522:	b0 12 b6 57 	call	#0x57b6	
    4526:	21 52       	add	#4,	r1	;r2 As==10
    4528:	1e 42 82 11 	mov	&0x1182,r14	
    452c:	0f 4e       	mov	r14,	r15	
    452e:	8f 10       	swpb	r15		
    4530:	4f 4f       	mov.b	r15,	r15	
    4532:	4e 4e       	mov.b	r14,	r14	
    4534:	8e 10       	swpb	r14		
    4536:	0e df       	bis	r15,	r14	
    4538:	81 4e 10 00 	mov	r14,	16(r1)	;0x0010(r1)
    453c:	c2 93 dc 11 	tst.b	&0x11dc	
    4540:	0a 24       	jz	$+22     	;abs 0x4556
    4542:	3d 40 10 00 	mov	#16,	r13	;#0x0010
    4546:	3e 40 2a 1b 	mov	#6954,	r14	;#0x1b2a
    454a:	0f 41       	mov	r1,	r15	
    454c:	2f 53       	incd	r15		
    454e:	b0 12 80 ef 	call	#0xef80	
    4552:	0f 93       	tst	r15		
    4554:	0c 24       	jz	$+26     	;abs 0x456e
    4556:	3d 40 10 00 	mov	#16,	r13	;#0x0010
    455a:	0e 41       	mov	r1,	r14	
    455c:	2e 53       	incd	r14		
    455e:	3f 40 2a 1b 	mov	#6954,	r15	;#0x1b2a
    4562:	b0 12 a0 ef 	call	#0xefa0	
    4566:	d2 43 dc 11 	mov.b	#1,	&0x11dc	;r3 As==01
    456a:	b0 12 ae 91 	call	#0x91ae	
    456e:	0e 43       	clr	r14		
    4570:	2f 43       	mov	#2,	r15	;r3 As==10
    4572:	b0 12 e0 99 	call	#0x99e0	
    4576:	0e 43       	clr	r14		
    4578:	2f 43       	mov	#2,	r15	;r3 As==10
    457a:	b0 12 74 a2 	call	#0xa274	
    457e:	4f 93       	tst.b	r15		
    4580:	6a 20       	jnz	$+214    	;abs 0x4656
    4582:	b0 12 04 6a 	call	#0x6a04	
    4586:	4d 4f       	mov.b	r15,	r13	
    4588:	c2 93 ec 11 	tst.b	&0x11ec	
    458c:	27 20       	jnz	$+80     	;abs 0x45dc
    458e:	d2 43 ec 11 	mov.b	#1,	&0x11ec	;r3 As==01
    4592:	c2 43 cc 1c 	mov.b	#0,	&0x1ccc	;r3 As==00
    4596:	b0 12 16 6a 	call	#0x6a16	
    459a:	b0 12 04 6a 	call	#0x6a04	
    459e:	4b 4f       	mov.b	r15,	r11	
    45a0:	d2 93 40 11 	cmp.b	#1,	&0x1140	;r3 As==01
    45a4:	17 20       	jnz	$+48     	;abs 0x45d4
    45a6:	5e 42 ec 11 	mov.b	&0x11ec,r14	
    45aa:	5e 93       	cmp.b	#1,	r14	;r3 As==01
    45ac:	08 20       	jnz	$+18     	;abs 0x45be
    45ae:	7f 40 0b 00 	mov.b	#11,	r15	;#0x000b
    45b2:	b0 12 14 6b 	call	#0x6b14	
    45b6:	4f 4b       	mov.b	r11,	r15	
    45b8:	b0 12 16 6a 	call	#0x6a16	
    45bc:	30 3c       	jmp	$+98     	;abs 0x461e
    45be:	6e 93       	cmp.b	#2,	r14	;r3 As==10
    45c0:	09 20       	jnz	$+20     	;abs 0x45d4
    45c2:	d2 42 cc 1c 40 11 	mov.b	&0x1ccc,&0x1140	
    45c8:	f2 40 03 00 ec 11 	mov.b	#3,	&0x11ec	;#0x0003
    45ce:	b0 12 16 6a 	call	#0x6a16	
    45d2:	25 3c       	jmp	$+76     	;abs 0x461e
    45d4:	4f 4b       	mov.b	r11,	r15	
    45d6:	b0 12 16 6a 	call	#0x6a16	
    45da:	21 3c       	jmp	$+68     	;abs 0x461e
    45dc:	c2 93 cc 1c 	tst.b	&0x1ccc	
    45e0:	03 20       	jnz	$+8      	;abs 0x45e8
    45e2:	b0 12 16 6a 	call	#0x6a16	
    45e6:	1b 3c       	jmp	$+56     	;abs 0x461e
    45e8:	f2 93 38 15 	cmp.b	#-1,	&0x1538	;r3 As==11
    45ec:	06 20       	jnz	$+14     	;abs 0x45fa
    45ee:	1e 43       	mov	#1,	r14	;r3 As==01
    45f0:	c2 93 41 11 	tst.b	&0x1141	
    45f4:	03 24       	jz	$+8      	;abs 0x45fc
    45f6:	0e 43       	clr	r14		
    45f8:	01 3c       	jmp	$+4      	;abs 0x45fc
    45fa:	1e 43       	mov	#1,	r14	;r3 As==01
    45fc:	0e 93       	tst	r14		
    45fe:	0c 20       	jnz	$+26     	;abs 0x4618
    4600:	f2 93 42 11 	cmp.b	#-1,	&0x1142	;r3 As==11
    4604:	03 20       	jnz	$+8      	;abs 0x460c
    4606:	c2 43 42 11 	mov.b	#0,	&0x1142	;r3 As==00
    460a:	04 3c       	jmp	$+10     	;abs 0x4614
    460c:	5f 42 41 11 	mov.b	&0x1141,r15	
    4610:	cf 43 38 15 	mov.b	#0,	5432(r15);r3 As==00, 0x1538(r15)
    4614:	c2 43 41 11 	mov.b	#0,	&0x1141	;r3 As==00
    4618:	4f 4d       	mov.b	r13,	r15	
    461a:	b0 12 16 6a 	call	#0x6a16	
    461e:	b0 12 04 6a 	call	#0x6a04	
    4622:	4a 4f       	mov.b	r15,	r10	
    4624:	b0 12 5a 74 	call	#0x745a	
    4628:	4b 4f       	mov.b	r15,	r11	
    462a:	4f 4a       	mov.b	r10,	r15	
    462c:	b0 12 16 6a 	call	#0x6a16	
    4630:	4b 93       	tst.b	r11		
    4632:	11 20       	jnz	$+36     	;abs 0x4656
    4634:	c2 43 74 11 	mov.b	#0,	&0x1174	;r3 As==00
    4638:	c2 43 75 11 	mov.b	#0,	&0x1175	;r3 As==00
    463c:	b2 40 00 05 76 11 	mov	#1280,	&0x1176	;#0x0500
    4642:	b2 40 00 05 78 11 	mov	#1280,	&0x1178	;#0x0500
    4648:	e2 43 0e 25 	mov.b	#2,	&0x250e	;r3 As==10
    464c:	c2 43 e3 14 	mov.b	#0,	&0x14e3	;r3 As==00
    4650:	4f 43       	clr.b	r15		
    4652:	b0 12 14 6b 	call	#0x6b14	
    4656:	d2 43 a6 11 	mov.b	#1,	&0x11a6	;r3 As==01
    465a:	d2 43 a0 11 	mov.b	#1,	&0x11a0	;r3 As==01
    465e:	d2 43 ac 11 	mov.b	#1,	&0x11ac	;r3 As==01
    4662:	92 42 7c 11 30 11 	mov	&0x117c,&0x1130	
    4668:	c2 93 b6 11 	tst.b	&0x11b6	
    466c:	26 20       	jnz	$+78     	;abs 0x46ba
    466e:	5f 43       	mov.b	#1,	r15	;r3 As==01
    4670:	b0 12 aa b8 	call	#0xb8aa	
    4674:	4f 93       	tst.b	r15		
    4676:	19 20       	jnz	$+52     	;abs 0x46aa
    4678:	b0 12 04 6a 	call	#0x6a04	
    467c:	82 93 cc 11 	tst	&0x11cc	
    4680:	03 24       	jz	$+8      	;abs 0x4688
    4682:	b0 12 16 6a 	call	#0x6a16	
    4686:	19 3c       	jmp	$+52     	;abs 0x46ba
    4688:	92 43 cc 11 	mov	#1,	&0x11cc	;r3 As==01
    468c:	b0 12 16 6a 	call	#0x6a16	
    4690:	b0 12 04 6a 	call	#0x6a04	
    4694:	f2 d0 20 00 1d 00 	bis.b	#32,	&0x001d	;#0x0020
    469a:	b0 12 16 6a 	call	#0x6a16	
    469e:	3e 40 14 00 	mov	#20,	r14	;#0x0014
    46a2:	0f 43       	clr	r15		
    46a4:	b0 12 aa 71 	call	#0x71aa	
    46a8:	08 3c       	jmp	$+18     	;abs 0x46ba
    46aa:	6f 43       	mov.b	#2,	r15	;r3 As==10
    46ac:	b0 12 e4 6a 	call	#0x6ae4	
    46b0:	4f 93       	tst.b	r15		
    46b2:	03 20       	jnz	$+8      	;abs 0x46ba
    46b4:	5f 43       	mov.b	#1,	r15	;r3 As==01
    46b6:	b0 12 e4 6a 	call	#0x6ae4	
    46ba:	b0 12 04 6a 	call	#0x6a04	
    46be:	4a 4f       	mov.b	r15,	r10	
    46c0:	86 3c       	jmp	$+270    	;abs 0x47ce
    46c2:	c2 93 7a 11 	tst.b	&0x117a	
    46c6:	77 24       	jz	$+240    	;abs 0x47b6
    46c8:	b2 b0 10 00 62 01 	bit	#16,	&0x0162	;#0x0010
    46ce:	08 20       	jnz	$+18     	;abs 0x46e0
    46d0:	b2 b0 10 00 64 01 	bit	#16,	&0x0164	;#0x0010
    46d6:	04 20       	jnz	$+10     	;abs 0x46e0
    46d8:	b2 b0 10 00 66 01 	bit	#16,	&0x0166	;#0x0010
    46de:	07 24       	jz	$+16     	;abs 0x46ee
    46e0:	1e 42 60 01 	mov	&0x0160,r14	
    46e4:	3e f0 00 03 	and	#768,	r14	;#0x0300
    46e8:	3e 90 00 02 	cmp	#512,	r14	;#0x0200
    46ec:	2e 24       	jz	$+94     	;abs 0x474a
    46ee:	5f 42 04 00 	mov.b	&0x0004,r15	
    46f2:	3f b0 c0 00 	bit	#192,	r15	;#0x00c0
    46f6:	05 24       	jz	$+12     	;abs 0x4702
    46f8:	5f 42 71 00 	mov.b	&0x0071,r15	
    46fc:	3f f0 20 00 	and	#32,	r15	;#0x0020
    4700:	26 20       	jnz	$+78     	;abs 0x474e
    4702:	5f 42 05 00 	mov.b	&0x0005,r15	
    4706:	3f b0 30 00 	bit	#48,	r15	;#0x0030
    470a:	05 24       	jz	$+12     	;abs 0x4716
    470c:	5f 42 79 00 	mov.b	&0x0079,r15	
    4710:	3f f0 20 00 	and	#32,	r15	;#0x0020
    4714:	1e 20       	jnz	$+62     	;abs 0x4752
    4716:	5f 42 70 00 	mov.b	&0x0070,r15	
    471a:	1f f3       	and	#1,	r15	;r3 As==01
    471c:	1c 24       	jz	$+58     	;abs 0x4756
    471e:	5f 42 71 00 	mov.b	&0x0071,r15	
    4722:	3f f0 20 00 	and	#32,	r15	;#0x0020
    4726:	1a 24       	jz	$+54     	;abs 0x475c
    4728:	5f 42 72 00 	mov.b	&0x0072,r15	
    472c:	3f f0 20 00 	and	#32,	r15	;#0x0020
    4730:	18 24       	jz	$+50     	;abs 0x4762
    4732:	5f 42 70 00 	mov.b	&0x0070,r15	
    4736:	2f f2       	and	#4,	r15	;r2 As==10
    4738:	17 24       	jz	$+48     	;abs 0x4768
    473a:	5f 42 70 00 	mov.b	&0x0070,r15	
    473e:	3f f0 20 00 	and	#32,	r15	;#0x0020
    4742:	15 20       	jnz	$+44     	;abs 0x476e
    4744:	7e 40 05 00 	mov.b	#5,	r14	;#0x0005
    4748:	13 3c       	jmp	$+40     	;abs 0x4770
    474a:	6e 43       	mov.b	#2,	r14	;r3 As==10
    474c:	11 3c       	jmp	$+36     	;abs 0x4770
    474e:	6e 43       	mov.b	#2,	r14	;r3 As==10
    4750:	0f 3c       	jmp	$+32     	;abs 0x4770
    4752:	6e 43       	mov.b	#2,	r14	;r3 As==10
    4754:	0d 3c       	jmp	$+28     	;abs 0x4770
    4756:	7e 40 05 00 	mov.b	#5,	r14	;#0x0005
    475a:	0a 3c       	jmp	$+22     	;abs 0x4770
    475c:	7e 40 05 00 	mov.b	#5,	r14	;#0x0005
    4760:	07 3c       	jmp	$+16     	;abs 0x4770
    4762:	7e 40 05 00 	mov.b	#5,	r14	;#0x0005
    4766:	04 3c       	jmp	$+10     	;abs 0x4770
    4768:	7e 40 05 00 	mov.b	#5,	r14	;#0x0005
    476c:	01 3c       	jmp	$+4      	;abs 0x4770
    476e:	6e 43       	mov.b	#2,	r14	;r3 As==10
    4770:	b2 b0 10 00 a0 01 	bit	#16,	&0x01a0	;#0x0010
    4776:	19 24       	jz	$+52     	;abs 0x47aa
    4778:	b2 b0 10 00 a2 01 	bit	#16,	&0x01a2	;#0x0010
    477e:	05 24       	jz	$+12     	;abs 0x478a
    4780:	b2 b2 a2 01 	bit	#8,	&0x01a2	;r2 As==11
    4784:	0f 24       	jz	$+32     	;abs 0x47a4
    4786:	6e 43       	mov.b	#2,	r14	;r3 As==10
    4788:	10 3c       	jmp	$+34     	;abs 0x47aa
    478a:	1f 42 a2 01 	mov	&0x01a2,r15	
    478e:	3f b0 00 04 	bit	#1024,	r15	;#0x0400
    4792:	0b 24       	jz	$+24     	;abs 0x47aa
    4794:	1d 42 60 01 	mov	&0x0160,r13	
    4798:	3d f0 00 03 	and	#768,	r13	;#0x0300
    479c:	3d 90 00 02 	cmp	#512,	r13	;#0x0200
    47a0:	04 20       	jnz	$+10     	;abs 0x47aa
    47a2:	02 3c       	jmp	$+6      	;abs 0x47a8
    47a4:	4e 43       	clr.b	r14		
    47a6:	01 3c       	jmp	$+4      	;abs 0x47aa
    47a8:	6e 43       	mov.b	#2,	r14	;r3 As==10
    47aa:	7e 90 05 00 	cmp.b	#5,	r14	;#0x0005
    47ae:	01 28       	jnc	$+4      	;abs 0x47b2
    47b0:	6e 42       	mov.b	#4,	r14	;r2 As==10
    47b2:	c2 4e ee 11 	mov.b	r14,	&0x11ee	
    47b6:	5e 42 ee 11 	mov.b	&0x11ee,r14	
    47ba:	0e 5e       	rla	r14		
    47bc:	1e 4e 0e f3 	mov	-3314(r14),r14	;0xf30e(r14)
    47c0:	3e d2       	bis	#8,	r14	;r2 As==11
    47c2:	81 4e 00 00 	mov	r14,	0(r1)	;0x0000(r1)
    47c6:	22 d1       	bis	@r1,	r2	
    47c8:	32 c2       	dint			
    47ca:	03 43       	nop			
    47cc:	03 43       	nop			
    47ce:	f2 93 61 24 	cmp.b	#-1,	&0x2461	;r3 As==11
    47d2:	77 27       	jz	$-272    	;abs 0x46c2
    47d4:	b0 12 22 58 	call	#0x5822	
    47d8:	4b 4f       	mov.b	r15,	r11	
    47da:	7f 93       	cmp.b	#-1,	r15	;r3 As==11
    47dc:	72 27       	jz	$-282    	;abs 0x46c2
    47de:	4f 4a       	mov.b	r10,	r15	
    47e0:	b0 12 16 6a 	call	#0x6a16	
    47e4:	4f 4b       	mov.b	r11,	r15	
    47e6:	b0 12 e2 be 	call	#0xbee2	
    47ea:	67 3f       	jmp	$-304    	;abs 0x46ba
    47ec:	ce 4f 00 00 	mov.b	r15,	0(r14)	;0x0000(r14)
    47f0:	1e 53       	inc	r14		
    47f2:	30 40 86 44 	br	#0x4486	

000047f6 <__stop_progExec__>:
    47f6:	32 d0 f0 00 	bis	#240,	r2	;#0x00f0
    47fa:	fd 3f       	jmp	$-4      	;abs 0x47f6

000047fc <__ctors_end>:
    47fc:	30 40 fe f1 	br	#0xf1fe	

00004800 <__nesc_ntoh_uint32>:
    4800:	0b 12       	push	r11		
    4802:	0b 4f       	mov	r15,	r11	
    4804:	6d 4f       	mov.b	@r15,	r13	
    4806:	0e 43       	clr	r14		
    4808:	0f 43       	clr	r15		
    480a:	0f 4d       	mov	r13,	r15	
    480c:	8f 10       	swpb	r15		
    480e:	0c 43       	clr	r12		
    4810:	0d 43       	clr	r13		
    4812:	5d 4b 01 00 	mov.b	1(r11),	r13	;0x0001(r11)
    4816:	0e dc       	bis	r12,	r14	
    4818:	0f dd       	bis	r13,	r15	
    481a:	5c 4b 03 00 	mov.b	3(r11),	r12	;0x0003(r11)
    481e:	0d 43       	clr	r13		
    4820:	0e dc       	bis	r12,	r14	
    4822:	0f dd       	bis	r13,	r15	
    4824:	5c 4b 02 00 	mov.b	2(r11),	r12	;0x0002(r11)
    4828:	4d ec       	xor.b	r12,	r13	
    482a:	0d ec       	xor	r12,	r13	
    482c:	8d 10       	swpb	r13		
    482e:	4c 4c       	mov.b	r12,	r12	
    4830:	8c 10       	swpb	r12		
    4832:	0e dc       	bis	r12,	r14	
    4834:	0f dd       	bis	r13,	r15	
    4836:	3b 41       	pop	r11		
    4838:	30 41       	ret			

0000483a <IPAddressP__IPAddress__getGlobalAddr>:
    483a:	3d 40 10 00 	mov	#16,	r13	;#0x0010
    483e:	3e 40 2a 1b 	mov	#6954,	r14	;#0x1b2a
    4842:	b0 12 a0 ef 	call	#0xefa0	
    4846:	5f 42 dc 11 	mov.b	&0x11dc,r15	
    484a:	30 41       	ret			

0000484c <RPLDAORoutingEngineP__0__SendPool__get>:
    484c:	5d 42 51 12 	mov.b	&0x1251,r13	
    4850:	4d 93       	tst.b	r13		
    4852:	17 24       	jz	$+48     	;abs 0x4882
    4854:	5c 42 37 1c 	mov.b	&0x1c37,r12	
    4858:	4f 4c       	mov.b	r12,	r15	
    485a:	0f 5f       	rla	r15		
    485c:	0e 4f       	mov	r15,	r14	
    485e:	3e 50 ca 12 	add	#4810,	r14	;#0x12ca
    4862:	2f 4e       	mov	@r14,	r15	
    4864:	8e 43 00 00 	mov	#0,	0(r14)	;r3 As==00, 0x0000(r14)
    4868:	7d 53       	add.b	#-1,	r13	;r3 As==11
    486a:	c2 4d 51 12 	mov.b	r13,	&0x1251	
    486e:	4e 4c       	mov.b	r12,	r14	
    4870:	5e 53       	inc.b	r14		
    4872:	c2 4e 37 1c 	mov.b	r14,	&0x1c37	
    4876:	7e 90 05 00 	cmp.b	#5,	r14	;#0x0005
    487a:	04 20       	jnz	$+10     	;abs 0x4884
    487c:	c2 43 37 1c 	mov.b	#0,	&0x1c37	;r3 As==00
    4880:	30 41       	ret			
    4882:	0f 43       	clr	r15		
    4884:	30 41       	ret			

00004886 <OneWireMasterP__BusyWait__wait>:
    4886:	1e 42 70 01 	mov	&0x0170,r14	
    488a:	3f 90 01 80 	cmp	#-32767,r15	;#0x8001
    488e:	0a 28       	jnc	$+22     	;abs 0x48a4
    4890:	3f 50 00 80 	add	#-32768,r15	;#0x8000
    4894:	1d 42 70 01 	mov	&0x0170,r13	
    4898:	0d 8e       	sub	r14,	r13	
    489a:	0f 9d       	cmp	r13,	r15	
    489c:	fb 2f       	jc	$-8      	;abs 0x4894
    489e:	0e 5f       	add	r15,	r14	
    48a0:	3f 40 00 80 	mov	#-32768,r15	;#0x8000
    48a4:	1d 42 70 01 	mov	&0x0170,r13	
    48a8:	0d 8e       	sub	r14,	r13	
    48aa:	0f 9d       	cmp	r13,	r15	
    48ac:	fb 2f       	jc	$-8      	;abs 0x48a4
    48ae:	30 41       	ret			

000048b0 <OneWireMasterP__Pin__makeInput>:
    48b0:	f2 f0 ef ff 2a 00 	and.b	#-17,	&0x002a	;#0xffef
    48b6:	30 41       	ret			

000048b8 <OneWireMasterP__Pin__makeOutput>:
    48b8:	f2 d0 10 00 2a 00 	bis.b	#16,	&0x002a	;#0x0010
    48be:	30 41       	ret			

000048c0 <IPDispatchP__setFragDgramTag>:
    48c0:	1d 4f 02 00 	mov	2(r15),	r13	;0x0002(r15)
    48c4:	0d 93       	tst	r13		
    48c6:	15 24       	jz	$+44     	;abs 0x48f2
    48c8:	6f 4d       	mov.b	@r13,	r15	
    48ca:	12 c3       	clrc			
    48cc:	4f 10       	rrc.b	r15		
    48ce:	12 c3       	clrc			
    48d0:	4f 10       	rrc.b	r15		
    48d2:	12 c3       	clrc			
    48d4:	4f 10       	rrc.b	r15		
    48d6:	7f 90 18 00 	cmp.b	#24,	r15	;#0x0018
    48da:	03 24       	jz	$+8      	;abs 0x48e2
    48dc:	7f 90 1c 00 	cmp.b	#28,	r15	;#0x001c
    48e0:	0a 20       	jnz	$+22     	;abs 0x48f6
    48e2:	0f 4e       	mov	r14,	r15	
    48e4:	8f 10       	swpb	r15		
    48e6:	cd 4f 02 00 	mov.b	r15,	2(r13)	;0x0002(r13)
    48ea:	cd 4e 03 00 	mov.b	r14,	3(r13)	;0x0003(r13)
    48ee:	4f 43       	clr.b	r15		
    48f0:	30 41       	ret			
    48f2:	5f 43       	mov.b	#1,	r15	;r3 As==01
    48f4:	30 41       	ret			
    48f6:	5f 43       	mov.b	#1,	r15	;r3 As==01
    48f8:	30 41       	ret			

000048fa <IPDispatchP__setFragDgramSize>:
    48fa:	1d 4f 02 00 	mov	2(r15),	r13	;0x0002(r15)
    48fe:	0d 93       	tst	r13		
    4900:	1b 24       	jz	$+56     	;abs 0x4938
    4902:	6c 4d       	mov.b	@r13,	r12	
    4904:	4f 4c       	mov.b	r12,	r15	
    4906:	12 c3       	clrc			
    4908:	4f 10       	rrc.b	r15		
    490a:	12 c3       	clrc			
    490c:	4f 10       	rrc.b	r15		
    490e:	12 c3       	clrc			
    4910:	4f 10       	rrc.b	r15		
    4912:	7f 90 18 00 	cmp.b	#24,	r15	;#0x0018
    4916:	03 24       	jz	$+8      	;abs 0x491e
    4918:	7f 90 1c 00 	cmp.b	#28,	r15	;#0x001c
    491c:	0f 20       	jnz	$+32     	;abs 0x493c
    491e:	3e f0 ff 07 	and	#2047,	r14	;#0x07ff
    4922:	0f 4e       	mov	r14,	r15	
    4924:	8f 10       	swpb	r15		
    4926:	7c f0 f8 ff 	and.b	#-8,	r12	;#0xfff8
    492a:	4c df       	bis.b	r15,	r12	
    492c:	cd 4c 00 00 	mov.b	r12,	0(r13)	;0x0000(r13)
    4930:	cd 4e 01 00 	mov.b	r14,	1(r13)	;0x0001(r13)
    4934:	4f 43       	clr.b	r15		
    4936:	30 41       	ret			
    4938:	5f 43       	mov.b	#1,	r15	;r3 As==01
    493a:	30 41       	ret			
    493c:	5f 43       	mov.b	#1,	r15	;r3 As==01
    493e:	30 41       	ret			

00004940 <IPDispatchP__setupHeaders>:
    4940:	0b 12       	push	r11		
    4942:	1d 4f 02 00 	mov	2(r15),	r13	;0x0002(r15)
    4946:	5c 4f 01 00 	mov.b	1(r15),	r12	;0x0001(r15)
    494a:	0d 93       	tst	r13		
    494c:	1a 24       	jz	$+54     	;abs 0x4982
    494e:	4c 4c       	mov.b	r12,	r12	
    4950:	cf 43 00 00 	mov.b	#0,	0(r15)	;r3 As==00, 0x0000(r15)
    4954:	2e b2       	bit	#4,	r14	;r2 As==10
    4956:	09 24       	jz	$+20     	;abs 0x496a
    4958:	2c 92       	cmp	#4,	r12	;r2 As==10
    495a:	13 28       	jnc	$+40     	;abs 0x4982
    495c:	ef 42 00 00 	mov.b	#4,	0(r15)	;r2 As==10, 0x0000(r15)
    4960:	fd 40 c0 ff 00 00 	mov.b	#-64,	0(r13)	;#0xffc0, 0x0000(r13)
    4966:	2d 52       	add	#4,	r13	;r2 As==10
    4968:	2c 82       	sub	#4,	r12	;r2 As==10
    496a:	3e f2       	and	#8,	r14	;r2 As==11
    496c:	08 24       	jz	$+18     	;abs 0x497e
    496e:	3c 90 05 00 	cmp	#5,	r12	;#0x0005
    4972:	07 28       	jnc	$+16     	;abs 0x4982
    4974:	ff d2 00 00 	bis.b	#8,	0(r15)	;r2 As==11, 0x0000(r15)
    4978:	fd 40 e0 ff 00 00 	mov.b	#-32,	0(r13)	;#0xffe0, 0x0000(r13)
    497e:	4f 43       	clr.b	r15		
    4980:	01 3c       	jmp	$+4      	;abs 0x4984
    4982:	5f 43       	mov.b	#1,	r15	;r3 As==01
    4984:	3b 41       	pop	r11		
    4986:	30 41       	ret			

00004988 <CC2420SpiP__SpiByte__write>:
    4988:	c2 4f 77 00 	mov.b	r15,	&0x0077	
    498c:	5f 42 02 00 	mov.b	&0x0002,r15	
    4990:	3f f0 40 00 	and	#64,	r15	;#0x0040
    4994:	fb 27       	jz	$-8      	;abs 0x498c
    4996:	f2 f0 bf ff 02 00 	and.b	#-65,	&0x0002	;#0xffbf
    499c:	5f 42 76 00 	mov.b	&0x0076,r15	
    49a0:	30 41       	ret			

000049a2 <IPDispatchP__getLowpanPayload>:
    49a2:	6d 4f       	mov.b	@r15,	r13	
    49a4:	2d b2       	bit	#4,	r13	;r2 As==10
    49a6:	02 24       	jz	$+6      	;abs 0x49ac
    49a8:	6e 42       	mov.b	#4,	r14	;r2 As==10
    49aa:	01 3c       	jmp	$+4      	;abs 0x49ae
    49ac:	4e 43       	clr.b	r14		
    49ae:	3d f2       	and	#8,	r13	;r2 As==11
    49b0:	02 24       	jz	$+6      	;abs 0x49b6
    49b2:	7e 50 05 00 	add.b	#5,	r14	;#0x0005
    49b6:	4e 4e       	mov.b	r14,	r14	
    49b8:	1f 4f 02 00 	mov	2(r15),	r15	;0x0002(r15)
    49bc:	0f 5e       	add	r14,	r15	
    49be:	30 41       	ret			

000049c0 <IPDispatchP__getHeaderBitmap>:
    49c0:	0b 12       	push	r11		
    49c2:	1e 4f 02 00 	mov	2(r15),	r14	;0x0002(r15)
    49c6:	5b 4f 01 00 	mov.b	1(r15),	r11	;0x0001(r15)
    49ca:	0e 93       	tst	r14		
    49cc:	29 24       	jz	$+84     	;abs 0x4a20
    49ce:	4b 4b       	mov.b	r11,	r11	
    49d0:	0b 93       	tst	r11		
    49d2:	26 24       	jz	$+78     	;abs 0x4a20
    49d4:	6f 4e       	mov.b	@r14,	r15	
    49d6:	4d 4f       	mov.b	r15,	r13	
    49d8:	7c 40 06 00 	mov.b	#6,	r12	;#0x0006
    49dc:	12 c3       	clrc			
    49de:	4d 10       	rrc.b	r13		
    49e0:	7c 53       	add.b	#-1,	r12	;r3 As==11
    49e2:	fc 23       	jnz	$-6      	;abs 0x49dc
    49e4:	4d 93       	tst.b	r13		
    49e6:	1e 24       	jz	$+62     	;abs 0x4a24
    49e8:	12 c3       	clrc			
    49ea:	4f 10       	rrc.b	r15		
    49ec:	12 c3       	clrc			
    49ee:	4f 10       	rrc.b	r15		
    49f0:	12 c3       	clrc			
    49f2:	4f 10       	rrc.b	r15		
    49f4:	7f 90 18 00 	cmp.b	#24,	r15	;#0x0018
    49f8:	06 20       	jnz	$+14     	;abs 0x4a06
    49fa:	3b 90 05 00 	cmp	#5,	r11	;#0x0005
    49fe:	15 38       	jl	$+44     	;abs 0x4a2a
    4a00:	2e 52       	add	#4,	r14	;r2 As==10
    4a02:	2f 42       	mov	#4,	r15	;r2 As==10
    4a04:	01 3c       	jmp	$+4      	;abs 0x4a08
    4a06:	0f 43       	clr	r15		
    4a08:	6e 4e       	mov.b	@r14,	r14	
    4a0a:	12 c3       	clrc			
    4a0c:	4e 10       	rrc.b	r14		
    4a0e:	12 c3       	clrc			
    4a10:	4e 10       	rrc.b	r14		
    4a12:	12 c3       	clrc			
    4a14:	4e 10       	rrc.b	r14		
    4a16:	7e 90 1c 00 	cmp.b	#28,	r14	;#0x001c
    4a1a:	08 20       	jnz	$+18     	;abs 0x4a2c
    4a1c:	3f d2       	bis	#8,	r15	;r2 As==11
    4a1e:	06 3c       	jmp	$+14     	;abs 0x4a2c
    4a20:	0f 43       	clr	r15		
    4a22:	04 3c       	jmp	$+10     	;abs 0x4a2c
    4a24:	3f 40 10 00 	mov	#16,	r15	;#0x0010
    4a28:	01 3c       	jmp	$+4      	;abs 0x4a2c
    4a2a:	2f 42       	mov	#4,	r15	;r2 As==10
    4a2c:	3b 41       	pop	r11		
    4a2e:	30 41       	ret			

00004a30 <IPDispatchP__getFragDgramTag>:
    4a30:	1d 4f 02 00 	mov	2(r15),	r13	;0x0002(r15)
    4a34:	0d 93       	tst	r13		
    4a36:	1a 24       	jz	$+54     	;abs 0x4a6c
    4a38:	0e 93       	tst	r14		
    4a3a:	18 24       	jz	$+50     	;abs 0x4a6c
    4a3c:	6f 4d       	mov.b	@r13,	r15	
    4a3e:	12 c3       	clrc			
    4a40:	4f 10       	rrc.b	r15		
    4a42:	12 c3       	clrc			
    4a44:	4f 10       	rrc.b	r15		
    4a46:	12 c3       	clrc			
    4a48:	4f 10       	rrc.b	r15		
    4a4a:	7f 90 18 00 	cmp.b	#24,	r15	;#0x0018
    4a4e:	03 24       	jz	$+8      	;abs 0x4a56
    4a50:	7f 90 1c 00 	cmp.b	#28,	r15	;#0x001c
    4a54:	0d 20       	jnz	$+28     	;abs 0x4a70
    4a56:	1d 4d 02 00 	mov	2(r13),	r13	;0x0002(r13)
    4a5a:	4f 4d       	mov.b	r13,	r15	
    4a5c:	8f 10       	swpb	r15		
    4a5e:	8d 10       	swpb	r13		
    4a60:	4d 4d       	mov.b	r13,	r13	
    4a62:	0d df       	bis	r15,	r13	
    4a64:	8e 4d 00 00 	mov	r13,	0(r14)	;0x0000(r14)
    4a68:	4f 43       	clr.b	r15		
    4a6a:	30 41       	ret			
    4a6c:	5f 43       	mov.b	#1,	r15	;r3 As==01
    4a6e:	30 41       	ret			
    4a70:	5f 43       	mov.b	#1,	r15	;r3 As==01
    4a72:	30 41       	ret			

00004a74 <LinkControlProtocolP__PppOptions__get>:
    4a74:	31 50 fa ff 	add	#-6,	r1	;#0xfffa
    4a78:	3e 40 75 11 	mov	#4469,	r14	;#0x1175
    4a7c:	0f 4e       	mov	r14,	r15	
    4a7e:	7c 4f       	mov.b	@r15+,	r12	
    4a80:	2d 4f       	mov	@r15,	r13	
    4a82:	1e 4e 03 00 	mov	3(r14),	r14	;0x0003(r14)
    4a86:	d1 42 74 11 00 00 	mov.b	&0x1174,0(r1)	;0x0000(r1)
    4a8c:	c1 4c 01 00 	mov.b	r12,	1(r1)	;0x0001(r1)
    4a90:	2c 41       	mov	@r1,	r12	
    4a92:	0f 43       	clr	r15		
    4a94:	31 50 06 00 	add	#6,	r1	;#0x0006
    4a98:	30 41       	ret			

00004a9a <Msp430TimerP__1__Timer__get>:
    4a9a:	1f 42 90 01 	mov	&0x0190,r15	
    4a9e:	01 3c       	jmp	$+4      	;abs 0x4aa2
    4aa0:	0f 4e       	mov	r14,	r15	
    4aa2:	1e 42 90 01 	mov	&0x0190,r14	
    4aa6:	0f 9e       	cmp	r14,	r15	
    4aa8:	fb 23       	jnz	$-8      	;abs 0x4aa0
    4aaa:	30 41       	ret			

00004aac <PlatformHdlcUartP__RxAbort__startAt>:
    4aac:	0b 12       	push	r11		
    4aae:	0a 12       	push	r10		
    4ab0:	0a 4f       	mov	r15,	r10	
    4ab2:	0b 4e       	mov	r14,	r11	
    4ab4:	b0 12 9a 4a 	call	#0x4a9a	
    4ab8:	0d 4f       	mov	r15,	r13	
    4aba:	0d 8a       	sub	r10,	r13	
    4abc:	0d 9b       	cmp	r11,	r13	
    4abe:	05 2c       	jc	$+12     	;abs 0x4aca
    4ac0:	0e 4b       	mov	r11,	r14	
    4ac2:	0e 8d       	sub	r13,	r14	
    4ac4:	3e 90 03 00 	cmp	#3,	r14	;#0x0003
    4ac8:	04 2c       	jc	$+10     	;abs 0x4ad2
    4aca:	b0 12 9a 4a 	call	#0x4a9a	
    4ace:	2f 53       	incd	r15		
    4ad0:	01 3c       	jmp	$+4      	;abs 0x4ad4
    4ad2:	0f 5e       	add	r14,	r15	
    4ad4:	82 4f 96 01 	mov	r15,	&0x0196	
    4ad8:	b2 f0 fe ff 86 01 	and	#-2,	&0x0186	;#0xfffe
    4ade:	b2 d0 10 00 86 01 	bis	#16,	&0x0186	;#0x0010
    4ae4:	3a 41       	pop	r10		
    4ae6:	3b 41       	pop	r11		
    4ae8:	30 41       	ret			

00004aea <GpioCaptureC__0__enableCapture>:
    4aea:	b2 f0 ef ff 84 01 	and	#-17,	&0x0184	;#0xffef
    4af0:	e2 d3 1f 00 	bis.b	#2,	&0x001f	;r3 As==10
    4af4:	b2 f0 fe ff 84 01 	and	#-2,	&0x0184	;#0xfffe
    4afa:	b2 f0 fd ff 84 01 	and	#-3,	&0x0184	;#0xfffd
    4b00:	4f 4f       	mov.b	r15,	r15	
    4b02:	8f 10       	swpb	r15		
    4b04:	7e 40 06 00 	mov.b	#6,	r14	;#0x0006
    4b08:	0f 5f       	rla	r15		
    4b0a:	7e 53       	add.b	#-1,	r14	;r3 As==11
    4b0c:	fd 23       	jnz	$-4      	;abs 0x4b08
    4b0e:	3f d0 00 01 	bis	#256,	r15	;#0x0100
    4b12:	82 4f 84 01 	mov	r15,	&0x0184	
    4b16:	b2 d0 10 00 84 01 	bis	#16,	&0x0184	;#0x0010
    4b1c:	4f 43       	clr.b	r15		
    4b1e:	30 41       	ret			

00004b20 <MotePlatformC__TOSH_FLASH_M25P_DP_bit>:
    4b20:	4f 93       	tst.b	r15		
    4b22:	04 24       	jz	$+10     	;abs 0x4b2c
    4b24:	5f 42 19 00 	mov.b	&0x0019,r15	
    4b28:	6f d3       	bis.b	#2,	r15	;r3 As==10
    4b2a:	04 3c       	jmp	$+10     	;abs 0x4b34
    4b2c:	5f 42 19 00 	mov.b	&0x0019,r15	
    4b30:	7f f0 fd ff 	and.b	#-3,	r15	;#0xfffd
    4b34:	c2 4f 19 00 	mov.b	r15,	&0x0019	
    4b38:	f2 d2 19 00 	bis.b	#8,	&0x0019	;r2 As==11
    4b3c:	f2 f0 f7 ff 19 00 	and.b	#-9,	&0x0019	;#0xfff7
    4b42:	30 41       	ret			

00004b44 <IPDispatchP__iid_eui_cmp>:
    4b44:	5d 4e 07 00 	mov.b	7(r14),	r13	;0x0007(r14)
    4b48:	6d e3       	xor.b	#2,	r13	;r3 As==10
    4b4a:	6d 9f       	cmp.b	@r15,	r13	
    4b4c:	1f 20       	jnz	$+64     	;abs 0x4b8c
    4b4e:	df 9e 06 00 01 00 	cmp.b	6(r14),	1(r15)	;0x0006(r14), 0x0001(r15)
    4b54:	1b 20       	jnz	$+56     	;abs 0x4b8c
    4b56:	df 9e 05 00 02 00 	cmp.b	5(r14),	2(r15)	;0x0005(r14), 0x0002(r15)
    4b5c:	17 20       	jnz	$+48     	;abs 0x4b8c
    4b5e:	df 9e 04 00 03 00 	cmp.b	4(r14),	3(r15)	;0x0004(r14), 0x0003(r15)
    4b64:	13 20       	jnz	$+40     	;abs 0x4b8c
    4b66:	df 9e 03 00 04 00 	cmp.b	3(r14),	4(r15)	;0x0003(r14), 0x0004(r15)
    4b6c:	0f 20       	jnz	$+32     	;abs 0x4b8c
    4b6e:	df 9e 02 00 05 00 	cmp.b	2(r14),	5(r15)	;0x0002(r14), 0x0005(r15)
    4b74:	0b 20       	jnz	$+24     	;abs 0x4b8c
    4b76:	df 9e 01 00 06 00 	cmp.b	1(r14),	6(r15)	;0x0001(r14), 0x0006(r15)
    4b7c:	09 20       	jnz	$+20     	;abs 0x4b90
    4b7e:	1d 43       	mov	#1,	r13	;r3 As==01
    4b80:	ef 9e 07 00 	cmp.b	@r14,	7(r15)	;0x0007(r15)
    4b84:	01 24       	jz	$+4      	;abs 0x4b88
    4b86:	0d 43       	clr	r13		
    4b88:	0f 4d       	mov	r13,	r15	
    4b8a:	30 41       	ret			
    4b8c:	0f 43       	clr	r15		
    4b8e:	30 41       	ret			
    4b90:	0f 43       	clr	r15		
    4b92:	30 41       	ret			

00004b94 <IPDispatchP__bit_range_zero_p>:
    4b94:	0b 12       	push	r11		
    4b96:	0a 12       	push	r10		
    4b98:	09 12       	push	r9		
    4b9a:	0c 4e       	mov	r14,	r12	
    4b9c:	0e 93       	tst	r14		
    4b9e:	02 34       	jge	$+6      	;abs 0x4ba4
    4ba0:	3c 50 07 00 	add	#7,	r12	;#0x0007
    4ba4:	0c 11       	rra	r12		
    4ba6:	0c 11       	rra	r12		
    4ba8:	0c 11       	rra	r12		
    4baa:	0a 4f       	mov	r15,	r10	
    4bac:	0a 5c       	add	r12,	r10	
    4bae:	3e f0 07 80 	and	#-32761,r14	;#0x8007
    4bb2:	04 34       	jge	$+10     	;abs 0x4bbc
    4bb4:	3e 53       	add	#-1,	r14	;r3 As==11
    4bb6:	3e d0 f8 ff 	bis	#-8,	r14	;#0xfff8
    4bba:	1e 53       	inc	r14		
    4bbc:	3b 40 ff 00 	mov	#255,	r11	;#0x00ff
    4bc0:	39 42       	mov	#8,	r9	;r2 As==11
    4bc2:	49 8e       	sub.b	r14,	r9	
    4bc4:	4e 49       	mov.b	r9,	r14	
    4bc6:	7e f0 0f 00 	and.b	#15,	r14	;#0x000f
    4bca:	4e 93       	tst.b	r14		
    4bcc:	03 24       	jz	$+8      	;abs 0x4bd4
    4bce:	0b 5b       	rla	r11		
    4bd0:	7e 53       	add.b	#-1,	r14	;r3 As==11
    4bd2:	fb 3f       	jmp	$-8      	;abs 0x4bca
    4bd4:	ca bb 00 00 	bit.b	r11,	0(r10)	;0x0000(r10)
    4bd8:	2b 20       	jnz	$+88     	;abs 0x4c30
    4bda:	0e 4d       	mov	r13,	r14	
    4bdc:	0d 93       	tst	r13		
    4bde:	02 34       	jge	$+6      	;abs 0x4be4
    4be0:	3e 50 07 00 	add	#7,	r14	;#0x0007
    4be4:	0e 11       	rra	r14		
    4be6:	0e 11       	rra	r14		
    4be8:	0e 11       	rra	r14		
    4bea:	0a 4f       	mov	r15,	r10	
    4bec:	0a 5e       	add	r14,	r10	
    4bee:	3d f0 07 80 	and	#-32761,r13	;#0x8007
    4bf2:	04 34       	jge	$+10     	;abs 0x4bfc
    4bf4:	3d 53       	add	#-1,	r13	;r3 As==11
    4bf6:	3d d0 f8 ff 	bis	#-8,	r13	;#0xfff8
    4bfa:	1d 53       	inc	r13		
    4bfc:	3b 40 ff 00 	mov	#255,	r11	;#0x00ff
    4c00:	39 42       	mov	#8,	r9	;r2 As==11
    4c02:	49 8d       	sub.b	r13,	r9	
    4c04:	4d 49       	mov.b	r9,	r13	
    4c06:	7d f0 0f 00 	and.b	#15,	r13	;#0x000f
    4c0a:	4d 93       	tst.b	r13		
    4c0c:	03 24       	jz	$+8      	;abs 0x4c14
    4c0e:	0b 5b       	rla	r11		
    4c10:	7d 53       	add.b	#-1,	r13	;r3 As==11
    4c12:	fb 3f       	jmp	$-8      	;abs 0x4c0a
    4c14:	ca bb 00 00 	bit.b	r11,	0(r10)	;0x0000(r10)
    4c18:	07 24       	jz	$+16     	;abs 0x4c28
    4c1a:	0a 3c       	jmp	$+22     	;abs 0x4c30
    4c1c:	0d 4f       	mov	r15,	r13	
    4c1e:	0d 5c       	add	r12,	r13	
    4c20:	cd 93 00 00 	tst.b	0(r13)		;0x0000(r13)
    4c24:	05 20       	jnz	$+12     	;abs 0x4c30
    4c26:	1c 53       	inc	r12		
    4c28:	0c 9e       	cmp	r14,	r12	
    4c2a:	f8 3b       	jl	$-14     	;abs 0x4c1c
    4c2c:	0f 43       	clr	r15		
    4c2e:	01 3c       	jmp	$+4      	;abs 0x4c32
    4c30:	3f 43       	mov	#-1,	r15	;r3 As==11
    4c32:	39 41       	pop	r9		
    4c34:	3a 41       	pop	r10		
    4c36:	3b 41       	pop	r11		
    4c38:	30 41       	ret			

00004c3a <PppP__findTxFrame_>:
    4c3a:	0e 4f       	mov	r15,	r14	
    4c3c:	3f 40 46 1b 	mov	#6982,	r15	;#0x1b46
    4c40:	2e 9f       	cmp	@r15,	r14	
    4c42:	06 24       	jz	$+14     	;abs 0x4c50
    4c44:	3f 50 06 00 	add	#6,	r15	;#0x0006
    4c48:	3f 90 76 1b 	cmp	#7030,	r15	;#0x1b76
    4c4c:	f9 2b       	jnc	$-12     	;abs 0x4c40
    4c4e:	0f 43       	clr	r15		
    4c50:	30 41       	ret			

00004c52 <RPLRankP__resetValid>:
    4c52:	3f 40 fe 12 	mov	#4862,	r15	;#0x12fe
    4c56:	cf 43 00 00 	mov.b	#0,	0(r15)	;r3 As==00, 0x0000(r15)
    4c5a:	3f 50 18 00 	add	#24,	r15	;#0x0018
    4c5e:	3f 90 de 14 	cmp	#5342,	r15	;#0x14de
    4c62:	f9 23       	jnz	$-12     	;abs 0x4c56
    4c64:	30 41       	ret			

00004c66 <CC2420ReceiveP__reset_state>:
    4c66:	f2 40 80 ff 60 12 	mov.b	#-128,	&0x1260	;#0xff80
    4c6c:	c2 43 e2 12 	mov.b	#0,	&0x12e2	;r3 As==00
    4c70:	c2 43 86 24 	mov.b	#0,	&0x2486	;r3 As==00
    4c74:	c2 43 60 24 	mov.b	#0,	&0x2460	;r3 As==00
    4c78:	c2 43 b2 12 	mov.b	#0,	&0x12b2	;r3 As==00
    4c7c:	30 41       	ret			

00004c7e <HplMsp430Usart1P__Usart__disableSpi>:
    4c7e:	f2 f0 ef ff 05 00 	and.b	#-17,	&0x0005	;#0xffef
    4c84:	3f 40 33 00 	mov	#51,	r15	;#0x0033
    4c88:	ff f0 fd ff 00 00 	and.b	#-3,	0(r15)	;#0xfffd, 0x0000(r15)
    4c8e:	ff f0 fb ff 00 00 	and.b	#-5,	0(r15)	;#0xfffb, 0x0000(r15)
    4c94:	ff f0 f7 ff 00 00 	and.b	#-9,	0(r15)	;#0xfff7, 0x0000(r15)
    4c9a:	30 41       	ret			

00004c9c <HplMsp430Usart1P__Usart__disableUart>:
    4c9c:	f2 f0 cf ff 05 00 	and.b	#-49,	&0x0005	;#0xffcf
    4ca2:	3f 40 1b 00 	mov	#27,	r15	;#0x001b
    4ca6:	ff f0 bf ff 00 00 	and.b	#-65,	0(r15)	;#0xffbf, 0x0000(r15)
    4cac:	ff f0 7f 00 00 00 	and.b	#127,	0(r15)	;#0x007f, 0x0000(r15)
    4cb2:	30 41       	ret			

00004cb4 <HdlcFramingP__0__fcs16_update>:
    4cb4:	0b 12       	push	r11		
    4cb6:	0b 4f       	mov	r15,	r11	
    4cb8:	4e ef       	xor.b	r15,	r14	
    4cba:	4d 4e       	mov.b	r14,	r13	
    4cbc:	0d 5d       	rla	r13		
    4cbe:	0d 5d       	rla	r13		
    4cc0:	0d 5d       	rla	r13		
    4cc2:	0d 5d       	rla	r13		
    4cc4:	4d ee       	xor.b	r14,	r13	
    4cc6:	4e 4d       	mov.b	r13,	r14	
    4cc8:	0c 4e       	mov	r14,	r12	
    4cca:	0c 5c       	rla	r12		
    4ccc:	0c 5c       	rla	r12		
    4cce:	0c 5c       	rla	r12		
    4cd0:	12 c3       	clrc			
    4cd2:	4d 10       	rrc.b	r13		
    4cd4:	12 c3       	clrc			
    4cd6:	4d 10       	rrc.b	r13		
    4cd8:	12 c3       	clrc			
    4cda:	4d 10       	rrc.b	r13		
    4cdc:	12 c3       	clrc			
    4cde:	4d 10       	rrc.b	r13		
    4ce0:	4d 4d       	mov.b	r13,	r13	
    4ce2:	0c ed       	xor	r13,	r12	
    4ce4:	8e 10       	swpb	r14		
    4ce6:	8b 10       	swpb	r11		
    4ce8:	4b 4b       	mov.b	r11,	r11	
    4cea:	0e db       	bis	r11,	r14	
    4cec:	0f 4c       	mov	r12,	r15	
    4cee:	0f ee       	xor	r14,	r15	
    4cf0:	3b 41       	pop	r11		
    4cf2:	30 41       	ret			

00004cf4 <LcpAutomatonP__1__calculateEventActions_>:
    4cf4:	0b 12       	push	r11		
    4cf6:	0a 12       	push	r10		
    4cf8:	5c 42 71 12 	mov.b	&0x1271,r12	
    4cfc:	82 93 82 24 	tst	&0x2482	
    4d00:	02 24       	jz	$+6      	;abs 0x4d06
    4d02:	30 40 90 50 	br	#0x5090	
    4d06:	82 93 84 24 	tst	&0x2484	
    4d0a:	02 24       	jz	$+6      	;abs 0x4d10
    4d0c:	30 40 90 50 	br	#0x5090	
    4d10:	7c 90 0f 00 	cmp.b	#15,	r12	;#0x000f
    4d14:	02 20       	jnz	$+6      	;abs 0x4d1a
    4d16:	30 40 90 50 	br	#0x5090	
    4d1a:	1d 43       	mov	#1,	r13	;r3 As==01
    4d1c:	4a 4c       	mov.b	r12,	r10	
    4d1e:	7a f0 0f 00 	and.b	#15,	r10	;#0x000f
    4d22:	4a 93       	tst.b	r10		
    4d24:	03 24       	jz	$+8      	;abs 0x4d2c
    4d26:	0d 5d       	rla	r13		
    4d28:	7a 53       	add.b	#-1,	r10	;r3 As==11
    4d2a:	fb 3f       	jmp	$-8      	;abs 0x4d22
    4d2c:	c2 4c 8e 24 	mov.b	r12,	&0x248e	
    4d30:	c2 4c 02 1c 	mov.b	r12,	&0x1c02	
    4d34:	3f 90 09 00 	cmp	#9,	r15	;#0x0009
    4d38:	02 28       	jnc	$+6      	;abs 0x4d3e
    4d3a:	30 40 96 50 	br	#0x5096	
    4d3e:	0f 5f       	rla	r15		
    4d40:	10 4f 00 f2 	br	-3584(r15)	;0xf200(r15)
    4d44:	1d b3       	bit	#1,	r13	;r3 As==01
    4d46:	7a 20       	jnz	$+246    	;abs 0x4e3c
    4d48:	2d f3       	and	#2,	r13	;r3 As==10
    4d4a:	02 20       	jnz	$+6      	;abs 0x4d50
    4d4c:	30 40 96 50 	br	#0x5096	
    4d50:	1f 3c       	jmp	$+64     	;abs 0x4d90
    4d52:	3d b0 14 00 	bit	#20,	r13	;#0x0014
    4d56:	41 20       	jnz	$+132    	;abs 0x4dda
    4d58:	3d b0 03 00 	bit	#3,	r13	;#0x0003
    4d5c:	02 24       	jz	$+6      	;abs 0x4d62
    4d5e:	30 40 96 50 	br	#0x5096	
    4d62:	3d b2       	bit	#8,	r13	;r2 As==11
    4d64:	0a 20       	jnz	$+22     	;abs 0x4d7a
    4d66:	3d b0 00 02 	bit	#512,	r13	;#0x0200
    4d6a:	0c 24       	jz	$+26     	;abs 0x4d84
    4d6c:	a2 43 82 24 	mov	#2,	&0x2482	;r3 As==10
    4d70:	82 43 84 24 	mov	#0,	&0x2484	;r3 As==00
    4d74:	07 3c       	jmp	$+16     	;abs 0x4d84
    4d76:	1d b3       	bit	#1,	r13	;r3 As==01
    4d78:	09 24       	jz	$+20     	;abs 0x4d8c
    4d7a:	82 43 82 24 	mov	#0,	&0x2482	;r3 As==00
    4d7e:	b2 40 00 02 84 24 	mov	#512,	&0x2484	;#0x0200
    4d84:	d2 43 8e 24 	mov.b	#1,	&0x248e	;r3 As==01
    4d88:	30 40 96 50 	br	#0x5096	
    4d8c:	2d b2       	bit	#4,	r13	;r2 As==10
    4d8e:	06 24       	jz	$+14     	;abs 0x4d9c
    4d90:	b2 40 10 01 82 24 	mov	#272,	&0x2482	;#0x0110
    4d96:	82 43 84 24 	mov	#0,	&0x2484	;r3 As==00
    4d9a:	65 3c       	jmp	$+204    	;abs 0x4e66
    4d9c:	3d b0 38 02 	bit	#568,	r13	;#0x0238
    4da0:	02 20       	jnz	$+6      	;abs 0x4da6
    4da2:	30 40 96 50 	br	#0x5096	
    4da6:	c2 93 56 11 	tst.b	&0x1156	
    4daa:	02 24       	jz	$+6      	;abs 0x4db0
    4dac:	30 40 96 50 	br	#0x5096	
    4db0:	3d f0 10 00 	and	#16,	r13	;#0x0010
    4db4:	02 20       	jnz	$+6      	;abs 0x4dba
    4db6:	30 40 96 50 	br	#0x5096	
    4dba:	f2 40 05 00 8e 24 	mov.b	#5,	&0x248e	;#0x0005
    4dc0:	30 40 96 50 	br	#0x5096	
    4dc4:	3d b0 15 00 	bit	#21,	r13	;#0x0015
    4dc8:	02 24       	jz	$+6      	;abs 0x4dce
    4dca:	30 40 96 50 	br	#0x5096	
    4dce:	2d b3       	bit	#2,	r13	;r3 As==10
    4dd0:	08 24       	jz	$+18     	;abs 0x4de2
    4dd2:	92 43 82 24 	mov	#1,	&0x2482	;r3 As==01
    4dd6:	82 43 84 24 	mov	#0,	&0x2484	;r3 As==00
    4dda:	c2 43 8e 24 	mov.b	#0,	&0x248e	;r3 As==00
    4dde:	30 40 96 50 	br	#0x5096	
    4de2:	3d b2       	bit	#8,	r13	;r2 As==11
    4de4:	2b 20       	jnz	$+88     	;abs 0x4e3c
    4de6:	3d b0 00 02 	bit	#512,	r13	;#0x0200
    4dea:	04 24       	jz	$+10     	;abs 0x4df4
    4dec:	a2 43 82 24 	mov	#2,	&0x2482	;r3 As==10
    4df0:	82 43 84 24 	mov	#0,	&0x2484	;r3 As==00
    4df4:	3d b0 c0 03 	bit	#960,	r13	;#0x03c0
    4df8:	05 24       	jz	$+12     	;abs 0x4e04
    4dfa:	b2 d0 20 10 82 24 	bis	#4128,	&0x2482	;#0x1020
    4e00:	82 d3 84 24 	bis	#0,	&0x2484	;r3 As==00
    4e04:	e2 42 8e 24 	mov.b	#4,	&0x248e	;r2 As==10
    4e08:	30 40 96 50 	br	#0x5096	
    4e0c:	0e 93       	tst	r14		
    4e0e:	02 24       	jz	$+6      	;abs 0x4e14
    4e10:	6f 4e       	mov.b	@r14,	r15	
    4e12:	01 3c       	jmp	$+4      	;abs 0x4e16
    4e14:	4f 43       	clr.b	r15		
    4e16:	3d b0 30 00 	bit	#48,	r13	;#0x0030
    4e1a:	14 24       	jz	$+42     	;abs 0x4e44
    4e1c:	4f 93       	tst.b	r15		
    4e1e:	07 24       	jz	$+16     	;abs 0x4e2e
    4e20:	b2 40 00 10 82 24 	mov	#4096,	&0x2482	;#0x1000
    4e26:	82 43 84 24 	mov	#0,	&0x2484	;r3 As==00
    4e2a:	30 40 96 50 	br	#0x5096	
    4e2e:	92 43 82 24 	mov	#1,	&0x2482	;r3 As==01
    4e32:	82 43 84 24 	mov	#0,	&0x2484	;r3 As==00
    4e36:	3d f0 10 00 	and	#16,	r13	;#0x0010
    4e3a:	1e 24       	jz	$+62     	;abs 0x4e78
    4e3c:	e2 43 8e 24 	mov.b	#2,	&0x248e	;r3 As==10
    4e40:	30 40 96 50 	br	#0x5096	
    4e44:	3d b0 c0 01 	bit	#448,	r13	;#0x01c0
    4e48:	02 20       	jnz	$+6      	;abs 0x4e4e
    4e4a:	30 40 96 50 	br	#0x5096	
    4e4e:	4f 93       	tst.b	r15		
    4e50:	0f 24       	jz	$+32     	;abs 0x4e70
    4e52:	b2 40 00 01 82 24 	mov	#256,	&0x2482	;#0x0100
    4e58:	82 43 84 24 	mov	#0,	&0x2484	;r3 As==00
    4e5c:	3d f0 80 00 	and	#128,	r13	;#0x0080
    4e60:	02 20       	jnz	$+6      	;abs 0x4e66
    4e62:	30 40 96 50 	br	#0x5096	
    4e66:	f2 40 06 00 8e 24 	mov.b	#6,	&0x248e	;#0x0006
    4e6c:	30 40 96 50 	br	#0x5096	
    4e70:	92 43 82 24 	mov	#1,	&0x2482	;r3 As==01
    4e74:	82 43 84 24 	mov	#0,	&0x2484	;r3 As==00
    4e78:	f2 40 03 00 8e 24 	mov.b	#3,	&0x248e	;#0x0003
    4e7e:	30 40 96 50 	br	#0x5096	
    4e82:	3d b0 33 00 	bit	#51,	r13	;#0x0033
    4e86:	64 20       	jnz	$+202    	;abs 0x4f50
    4e88:	2d b2       	bit	#4,	r13	;r2 As==10
    4e8a:	06 24       	jz	$+14     	;abs 0x4e98
    4e8c:	b2 40 00 20 82 24 	mov	#8192,	&0x2482	;#0x2000
    4e92:	82 43 84 24 	mov	#0,	&0x2484	;r3 As==00
    4e96:	5c 3c       	jmp	$+186    	;abs 0x4f50
    4e98:	3d b2       	bit	#8,	r13	;r2 As==11
    4e9a:	14 24       	jz	$+42     	;abs 0x4ec4
    4e9c:	b2 40 10 01 82 24 	mov	#272,	&0x2482	;#0x0110
    4ea2:	82 43 84 24 	mov	#0,	&0x2484	;r3 As==00
    4ea6:	ce 93 00 00 	tst.b	0(r14)		;0x0000(r14)
    4eaa:	06 24       	jz	$+14     	;abs 0x4eb8
    4eac:	b2 40 10 03 82 24 	mov	#784,	&0x2482	;#0x0310
    4eb2:	82 43 84 24 	mov	#0,	&0x2484	;r3 As==00
    4eb6:	41 3c       	jmp	$+132    	;abs 0x4f3a
    4eb8:	b2 40 10 05 82 24 	mov	#1296,	&0x2482	;#0x0510
    4ebe:	82 43 84 24 	mov	#0,	&0x2484	;r3 As==00
    4ec2:	43 3c       	jmp	$+136    	;abs 0x4f4a
    4ec4:	3d b0 40 01 	bit	#320,	r13	;#0x0140
    4ec8:	0f 24       	jz	$+32     	;abs 0x4ee8
    4eca:	ce 93 00 00 	tst.b	0(r14)		;0x0000(r14)
    4ece:	06 24       	jz	$+14     	;abs 0x4edc
    4ed0:	b2 40 00 02 82 24 	mov	#512,	&0x2482	;#0x0200
    4ed6:	82 43 84 24 	mov	#0,	&0x2484	;r3 As==00
    4eda:	2f 3c       	jmp	$+96     	;abs 0x4f3a
    4edc:	b2 40 00 04 82 24 	mov	#1024,	&0x2482	;#0x0400
    4ee2:	82 43 84 24 	mov	#0,	&0x2484	;r3 As==00
    4ee6:	31 3c       	jmp	$+100    	;abs 0x4f4a
    4ee8:	3d b0 80 00 	bit	#128,	r13	;#0x0080
    4eec:	16 24       	jz	$+46     	;abs 0x4f1a
    4eee:	ce 93 00 00 	tst.b	0(r14)		;0x0000(r14)
    4ef2:	0a 24       	jz	$+22     	;abs 0x4f08
    4ef4:	b2 40 00 02 82 24 	mov	#512,	&0x2482	;#0x0200
    4efa:	b2 40 00 01 84 24 	mov	#256,	&0x2484	;#0x0100
    4f00:	f2 40 09 00 8e 24 	mov.b	#9,	&0x248e	;#0x0009
    4f06:	24 3c       	jmp	$+74     	;abs 0x4f50
    4f08:	b2 40 00 04 82 24 	mov	#1024,	&0x2482	;#0x0400
    4f0e:	82 43 84 24 	mov	#0,	&0x2484	;r3 As==00
    4f12:	f2 40 07 00 8e 24 	mov.b	#7,	&0x248e	;#0x0007
    4f18:	1b 3c       	jmp	$+56     	;abs 0x4f50
    4f1a:	3d b0 00 02 	bit	#512,	r13	;#0x0200
    4f1e:	18 24       	jz	$+50     	;abs 0x4f50
    4f20:	b2 40 02 01 82 24 	mov	#258,	&0x2482	;#0x0102
    4f26:	82 43 84 24 	mov	#0,	&0x2484	;r3 As==00
    4f2a:	ce 93 00 00 	tst.b	0(r14)		;0x0000(r14)
    4f2e:	08 24       	jz	$+18     	;abs 0x4f40
    4f30:	b2 40 02 03 82 24 	mov	#770,	&0x2482	;#0x0302
    4f36:	82 43 84 24 	mov	#0,	&0x2484	;r3 As==00
    4f3a:	f2 42 8e 24 	mov.b	#8,	&0x248e	;r2 As==11
    4f3e:	08 3c       	jmp	$+18     	;abs 0x4f50
    4f40:	b2 40 02 05 82 24 	mov	#1282,	&0x2482	;#0x0502
    4f46:	82 43 84 24 	mov	#0,	&0x2484	;r3 As==00
    4f4a:	f2 40 06 00 8e 24 	mov.b	#6,	&0x248e	;#0x0006
    4f50:	1c 42 82 24 	mov	&0x2482,r12	
    4f54:	1d 42 84 24 	mov	&0x2484,r13	
    4f58:	3c d0 80 00 	bis	#128,	r12	;#0x0080
    4f5c:	0d d3       	bis	#0,	r13	;r3 As==00
    4f5e:	82 4c 82 24 	mov	r12,	&0x2482	
    4f62:	82 4d 84 24 	mov	r13,	&0x2484	
    4f66:	0a 4c       	mov	r12,	r10	
    4f68:	0b 4d       	mov	r13,	r11	
    4f6a:	3a f0 00 02 	and	#512,	r10	;#0x0200
    4f6e:	0b f3       	and	#0,	r11	;r3 As==00
    4f70:	0a 93       	tst	r10		
    4f72:	02 20       	jnz	$+6      	;abs 0x4f78
    4f74:	0b 93       	tst	r11		
    4f76:	88 24       	jz	$+274    	;abs 0x5088
    4f78:	0a 4c       	mov	r12,	r10	
    4f7a:	0b 4d       	mov	r13,	r11	
    4f7c:	0a d3       	bis	#0,	r10	;r3 As==00
    4f7e:	3b d0 20 00 	bis	#32,	r11	;#0x0020
    4f82:	82 4a 82 24 	mov	r10,	&0x2482	
    4f86:	82 4b 84 24 	mov	r11,	&0x2484	
    4f8a:	e2 43 e8 17 	mov.b	#2,	&0x17e8	;r3 As==10
    4f8e:	92 4e 02 00 7a 24 	mov	2(r14),	&0x247a	;0x0002(r14)
    4f94:	92 4e 04 00 0c 12 	mov	4(r14),	&0x120c	;0x0004(r14)
    4f9a:	76 3c       	jmp	$+238    	;abs 0x5088
    4f9c:	3d b0 0c 00 	bit	#12,	r13	;#0x000c
    4fa0:	22 20       	jnz	$+70     	;abs 0x4fe6
    4fa2:	3d b0 30 00 	bit	#48,	r13	;#0x0030
    4fa6:	48 20       	jnz	$+146    	;abs 0x5038
    4fa8:	3d b0 40 00 	bit	#64,	r13	;#0x0040
    4fac:	09 24       	jz	$+20     	;abs 0x4fc0
    4fae:	b2 40 10 00 82 24 	mov	#16,	&0x2482	;#0x0010
    4fb4:	82 43 84 24 	mov	#0,	&0x2484	;r3 As==00
    4fb8:	f2 40 07 00 8e 24 	mov.b	#7,	&0x248e	;#0x0007
    4fbe:	3c 3c       	jmp	$+122    	;abs 0x5038
    4fc0:	3d b0 80 00 	bit	#128,	r13	;#0x0080
    4fc4:	1f 20       	jnz	$+64     	;abs 0x5004
    4fc6:	3d b0 00 01 	bit	#256,	r13	;#0x0100
    4fca:	2e 24       	jz	$+94     	;abs 0x5028
    4fcc:	b2 40 10 00 82 24 	mov	#16,	&0x2482	;#0x0010
    4fd2:	b2 40 00 01 84 24 	mov	#256,	&0x2484	;#0x0100
    4fd8:	f2 40 09 00 8e 24 	mov.b	#9,	&0x248e	;#0x0009
    4fde:	2c 3c       	jmp	$+90     	;abs 0x5038
    4fe0:	3d b0 0c 00 	bit	#12,	r13	;#0x000c
    4fe4:	06 24       	jz	$+14     	;abs 0x4ff2
    4fe6:	b2 40 00 20 82 24 	mov	#8192,	&0x2482	;#0x2000
    4fec:	82 43 84 24 	mov	#0,	&0x2484	;r3 As==00
    4ff0:	23 3c       	jmp	$+72     	;abs 0x5038
    4ff2:	3d b0 30 00 	bit	#48,	r13	;#0x0030
    4ff6:	20 20       	jnz	$+66     	;abs 0x5038
    4ff8:	3d b0 40 00 	bit	#64,	r13	;#0x0040
    4ffc:	0f 20       	jnz	$+32     	;abs 0x501c
    4ffe:	3d b0 80 00 	bit	#128,	r13	;#0x0080
    5002:	09 24       	jz	$+20     	;abs 0x5016
    5004:	b2 40 00 01 82 24 	mov	#256,	&0x2482	;#0x0100
    500a:	82 43 84 24 	mov	#0,	&0x2484	;r3 As==00
    500e:	f2 40 06 00 8e 24 	mov.b	#6,	&0x248e	;#0x0006
    5014:	11 3c       	jmp	$+36     	;abs 0x5038
    5016:	3d b0 00 01 	bit	#256,	r13	;#0x0100
    501a:	06 24       	jz	$+14     	;abs 0x5028
    501c:	b2 40 10 01 82 24 	mov	#272,	&0x2482	;#0x0110
    5022:	82 43 84 24 	mov	#0,	&0x2484	;r3 As==00
    5026:	08 3c       	jmp	$+18     	;abs 0x5038
    5028:	3d b0 00 02 	bit	#512,	r13	;#0x0200
    502c:	05 24       	jz	$+12     	;abs 0x5038
    502e:	b2 40 02 01 82 24 	mov	#258,	&0x2482	;#0x0102
    5034:	82 43 84 24 	mov	#0,	&0x2484	;r3 As==00
    5038:	82 d3 82 24 	bis	#0,	&0x2482	;r3 As==00
    503c:	b2 d0 10 00 84 24 	bis	#16,	&0x2484	;#0x0010
    5042:	d2 4e 04 00 e8 17 	mov.b	4(r14),	&0x17e8	;0x0004(r14)
    5048:	a2 4e 7a 24 	mov	@r14,	&0x247a	
    504c:	92 4e 02 00 0c 12 	mov	2(r14),	&0x120c	;0x0002(r14)
    5052:	21 3c       	jmp	$+68     	;abs 0x5096
    5054:	3d b0 fc 03 	bit	#1020,	r13	;#0x03fc
    5058:	1e 24       	jz	$+62     	;abs 0x5096
    505a:	3d b0 00 02 	bit	#512,	r13	;#0x0200
    505e:	09 24       	jz	$+20     	;abs 0x5072
    5060:	b2 40 06 40 82 24 	mov	#16390,	&0x2482	;#0x4006
    5066:	82 43 84 24 	mov	#0,	&0x2484	;r3 As==00
    506a:	f2 40 05 00 8e 24 	mov.b	#5,	&0x248e	;#0x0005
    5070:	0b 3c       	jmp	$+24     	;abs 0x5088
    5072:	b2 40 00 40 82 24 	mov	#16384,	&0x2482	;#0x4000
    5078:	82 43 84 24 	mov	#0,	&0x2484	;r3 As==00
    507c:	3d b0 80 01 	bit	#384,	r13	;#0x0180
    5080:	03 24       	jz	$+8      	;abs 0x5088
    5082:	f2 40 06 00 8e 24 	mov.b	#6,	&0x248e	;#0x0006
    5088:	92 4e 06 00 f8 11 	mov	6(r14),	&0x11f8	;0x0006(r14)
    508e:	03 3c       	jmp	$+8      	;abs 0x5096
    5090:	7f 40 07 00 	mov.b	#7,	r15	;#0x0007
    5094:	01 3c       	jmp	$+4      	;abs 0x5098
    5096:	4f 43       	clr.b	r15		
    5098:	3a 41       	pop	r10		
    509a:	3b 41       	pop	r11		
    509c:	30 41       	ret			

0000509e <LcpAutomatonP__0__calculateEventActions_>:
    509e:	0b 12       	push	r11		
    50a0:	0a 12       	push	r10		
    50a2:	5c 42 36 1c 	mov.b	&0x1c36,r12	
    50a6:	82 93 3c 1c 	tst	&0x1c3c	
    50aa:	02 24       	jz	$+6      	;abs 0x50b0
    50ac:	30 40 3a 54 	br	#0x543a	
    50b0:	82 93 3e 1c 	tst	&0x1c3e	
    50b4:	02 24       	jz	$+6      	;abs 0x50ba
    50b6:	30 40 3a 54 	br	#0x543a	
    50ba:	7c 90 0f 00 	cmp.b	#15,	r12	;#0x000f
    50be:	02 20       	jnz	$+6      	;abs 0x50c4
    50c0:	30 40 3a 54 	br	#0x543a	
    50c4:	1d 43       	mov	#1,	r13	;r3 As==01
    50c6:	4a 4c       	mov.b	r12,	r10	
    50c8:	7a f0 0f 00 	and.b	#15,	r10	;#0x000f
    50cc:	4a 93       	tst.b	r10		
    50ce:	03 24       	jz	$+8      	;abs 0x50d6
    50d0:	0d 5d       	rla	r13		
    50d2:	7a 53       	add.b	#-1,	r10	;r3 As==11
    50d4:	fb 3f       	jmp	$-8      	;abs 0x50cc
    50d6:	c2 4c 1d 12 	mov.b	r12,	&0x121d	
    50da:	c2 4c 1c 12 	mov.b	r12,	&0x121c	
    50de:	3f 90 09 00 	cmp	#9,	r15	;#0x0009
    50e2:	02 28       	jnc	$+6      	;abs 0x50e8
    50e4:	30 40 40 54 	br	#0x5440	
    50e8:	0f 5f       	rla	r15		
    50ea:	10 4f 12 f2 	br	-3566(r15)	;0xf212(r15)
    50ee:	1d b3       	bit	#1,	r13	;r3 As==01
    50f0:	7a 20       	jnz	$+246    	;abs 0x51e6
    50f2:	2d f3       	and	#2,	r13	;r3 As==10
    50f4:	02 20       	jnz	$+6      	;abs 0x50fa
    50f6:	30 40 40 54 	br	#0x5440	
    50fa:	1f 3c       	jmp	$+64     	;abs 0x513a
    50fc:	3d b0 14 00 	bit	#20,	r13	;#0x0014
    5100:	41 20       	jnz	$+132    	;abs 0x5184
    5102:	3d b0 03 00 	bit	#3,	r13	;#0x0003
    5106:	02 24       	jz	$+6      	;abs 0x510c
    5108:	30 40 40 54 	br	#0x5440	
    510c:	3d b2       	bit	#8,	r13	;r2 As==11
    510e:	0a 20       	jnz	$+22     	;abs 0x5124
    5110:	3d b0 00 02 	bit	#512,	r13	;#0x0200
    5114:	0c 24       	jz	$+26     	;abs 0x512e
    5116:	a2 43 3c 1c 	mov	#2,	&0x1c3c	;r3 As==10
    511a:	82 43 3e 1c 	mov	#0,	&0x1c3e	;r3 As==00
    511e:	07 3c       	jmp	$+16     	;abs 0x512e
    5120:	1d b3       	bit	#1,	r13	;r3 As==01
    5122:	09 24       	jz	$+20     	;abs 0x5136
    5124:	82 43 3c 1c 	mov	#0,	&0x1c3c	;r3 As==00
    5128:	b2 40 00 02 3e 1c 	mov	#512,	&0x1c3e	;#0x0200
    512e:	d2 43 1d 12 	mov.b	#1,	&0x121d	;r3 As==01
    5132:	30 40 40 54 	br	#0x5440	
    5136:	2d b2       	bit	#4,	r13	;r2 As==10
    5138:	06 24       	jz	$+14     	;abs 0x5146
    513a:	b2 40 10 01 3c 1c 	mov	#272,	&0x1c3c	;#0x0110
    5140:	82 43 3e 1c 	mov	#0,	&0x1c3e	;r3 As==00
    5144:	65 3c       	jmp	$+204    	;abs 0x5210
    5146:	3d b0 38 02 	bit	#568,	r13	;#0x0238
    514a:	02 20       	jnz	$+6      	;abs 0x5150
    514c:	30 40 40 54 	br	#0x5440	
    5150:	c2 93 64 11 	tst.b	&0x1164	
    5154:	02 24       	jz	$+6      	;abs 0x515a
    5156:	30 40 40 54 	br	#0x5440	
    515a:	3d f0 10 00 	and	#16,	r13	;#0x0010
    515e:	02 20       	jnz	$+6      	;abs 0x5164
    5160:	30 40 40 54 	br	#0x5440	
    5164:	f2 40 05 00 1d 12 	mov.b	#5,	&0x121d	;#0x0005
    516a:	30 40 40 54 	br	#0x5440	
    516e:	3d b0 15 00 	bit	#21,	r13	;#0x0015
    5172:	02 24       	jz	$+6      	;abs 0x5178
    5174:	30 40 40 54 	br	#0x5440	
    5178:	2d b3       	bit	#2,	r13	;r3 As==10
    517a:	08 24       	jz	$+18     	;abs 0x518c
    517c:	92 43 3c 1c 	mov	#1,	&0x1c3c	;r3 As==01
    5180:	82 43 3e 1c 	mov	#0,	&0x1c3e	;r3 As==00
    5184:	c2 43 1d 12 	mov.b	#0,	&0x121d	;r3 As==00
    5188:	30 40 40 54 	br	#0x5440	
    518c:	3d b2       	bit	#8,	r13	;r2 As==11
    518e:	2b 20       	jnz	$+88     	;abs 0x51e6
    5190:	3d b0 00 02 	bit	#512,	r13	;#0x0200
    5194:	04 24       	jz	$+10     	;abs 0x519e
    5196:	a2 43 3c 1c 	mov	#2,	&0x1c3c	;r3 As==10
    519a:	82 43 3e 1c 	mov	#0,	&0x1c3e	;r3 As==00
    519e:	3d b0 c0 03 	bit	#960,	r13	;#0x03c0
    51a2:	05 24       	jz	$+12     	;abs 0x51ae
    51a4:	b2 d0 20 10 3c 1c 	bis	#4128,	&0x1c3c	;#0x1020
    51aa:	82 d3 3e 1c 	bis	#0,	&0x1c3e	;r3 As==00
    51ae:	e2 42 1d 12 	mov.b	#4,	&0x121d	;r2 As==10
    51b2:	30 40 40 54 	br	#0x5440	
    51b6:	0e 93       	tst	r14		
    51b8:	02 24       	jz	$+6      	;abs 0x51be
    51ba:	6f 4e       	mov.b	@r14,	r15	
    51bc:	01 3c       	jmp	$+4      	;abs 0x51c0
    51be:	4f 43       	clr.b	r15		
    51c0:	3d b0 30 00 	bit	#48,	r13	;#0x0030
    51c4:	14 24       	jz	$+42     	;abs 0x51ee
    51c6:	4f 93       	tst.b	r15		
    51c8:	07 24       	jz	$+16     	;abs 0x51d8
    51ca:	b2 40 00 10 3c 1c 	mov	#4096,	&0x1c3c	;#0x1000
    51d0:	82 43 3e 1c 	mov	#0,	&0x1c3e	;r3 As==00
    51d4:	30 40 40 54 	br	#0x5440	
    51d8:	92 43 3c 1c 	mov	#1,	&0x1c3c	;r3 As==01
    51dc:	82 43 3e 1c 	mov	#0,	&0x1c3e	;r3 As==00
    51e0:	3d f0 10 00 	and	#16,	r13	;#0x0010
    51e4:	1e 24       	jz	$+62     	;abs 0x5222
    51e6:	e2 43 1d 12 	mov.b	#2,	&0x121d	;r3 As==10
    51ea:	30 40 40 54 	br	#0x5440	
    51ee:	3d b0 c0 01 	bit	#448,	r13	;#0x01c0
    51f2:	02 20       	jnz	$+6      	;abs 0x51f8
    51f4:	30 40 40 54 	br	#0x5440	
    51f8:	4f 93       	tst.b	r15		
    51fa:	0f 24       	jz	$+32     	;abs 0x521a
    51fc:	b2 40 00 01 3c 1c 	mov	#256,	&0x1c3c	;#0x0100
    5202:	82 43 3e 1c 	mov	#0,	&0x1c3e	;r3 As==00
    5206:	3d f0 80 00 	and	#128,	r13	;#0x0080
    520a:	02 20       	jnz	$+6      	;abs 0x5210
    520c:	30 40 40 54 	br	#0x5440	
    5210:	f2 40 06 00 1d 12 	mov.b	#6,	&0x121d	;#0x0006
    5216:	30 40 40 54 	br	#0x5440	
    521a:	92 43 3c 1c 	mov	#1,	&0x1c3c	;r3 As==01
    521e:	82 43 3e 1c 	mov	#0,	&0x1c3e	;r3 As==00
    5222:	f2 40 03 00 1d 12 	mov.b	#3,	&0x121d	;#0x0003
    5228:	30 40 40 54 	br	#0x5440	
    522c:	3d b0 33 00 	bit	#51,	r13	;#0x0033
    5230:	64 20       	jnz	$+202    	;abs 0x52fa
    5232:	2d b2       	bit	#4,	r13	;r2 As==10
    5234:	06 24       	jz	$+14     	;abs 0x5242
    5236:	b2 40 00 20 3c 1c 	mov	#8192,	&0x1c3c	;#0x2000
    523c:	82 43 3e 1c 	mov	#0,	&0x1c3e	;r3 As==00
    5240:	5c 3c       	jmp	$+186    	;abs 0x52fa
    5242:	3d b2       	bit	#8,	r13	;r2 As==11
    5244:	14 24       	jz	$+42     	;abs 0x526e
    5246:	b2 40 10 01 3c 1c 	mov	#272,	&0x1c3c	;#0x0110
    524c:	82 43 3e 1c 	mov	#0,	&0x1c3e	;r3 As==00
    5250:	ce 93 00 00 	tst.b	0(r14)		;0x0000(r14)
    5254:	06 24       	jz	$+14     	;abs 0x5262
    5256:	b2 40 10 03 3c 1c 	mov	#784,	&0x1c3c	;#0x0310
    525c:	82 43 3e 1c 	mov	#0,	&0x1c3e	;r3 As==00
    5260:	41 3c       	jmp	$+132    	;abs 0x52e4
    5262:	b2 40 10 05 3c 1c 	mov	#1296,	&0x1c3c	;#0x0510
    5268:	82 43 3e 1c 	mov	#0,	&0x1c3e	;r3 As==00
    526c:	43 3c       	jmp	$+136    	;abs 0x52f4
    526e:	3d b0 40 01 	bit	#320,	r13	;#0x0140
    5272:	0f 24       	jz	$+32     	;abs 0x5292
    5274:	ce 93 00 00 	tst.b	0(r14)		;0x0000(r14)
    5278:	06 24       	jz	$+14     	;abs 0x5286
    527a:	b2 40 00 02 3c 1c 	mov	#512,	&0x1c3c	;#0x0200
    5280:	82 43 3e 1c 	mov	#0,	&0x1c3e	;r3 As==00
    5284:	2f 3c       	jmp	$+96     	;abs 0x52e4
    5286:	b2 40 00 04 3c 1c 	mov	#1024,	&0x1c3c	;#0x0400
    528c:	82 43 3e 1c 	mov	#0,	&0x1c3e	;r3 As==00
    5290:	31 3c       	jmp	$+100    	;abs 0x52f4
    5292:	3d b0 80 00 	bit	#128,	r13	;#0x0080
    5296:	16 24       	jz	$+46     	;abs 0x52c4
    5298:	ce 93 00 00 	tst.b	0(r14)		;0x0000(r14)
    529c:	0a 24       	jz	$+22     	;abs 0x52b2
    529e:	b2 40 00 02 3c 1c 	mov	#512,	&0x1c3c	;#0x0200
    52a4:	b2 40 00 01 3e 1c 	mov	#256,	&0x1c3e	;#0x0100
    52aa:	f2 40 09 00 1d 12 	mov.b	#9,	&0x121d	;#0x0009
    52b0:	24 3c       	jmp	$+74     	;abs 0x52fa
    52b2:	b2 40 00 04 3c 1c 	mov	#1024,	&0x1c3c	;#0x0400
    52b8:	82 43 3e 1c 	mov	#0,	&0x1c3e	;r3 As==00
    52bc:	f2 40 07 00 1d 12 	mov.b	#7,	&0x121d	;#0x0007
    52c2:	1b 3c       	jmp	$+56     	;abs 0x52fa
    52c4:	3d b0 00 02 	bit	#512,	r13	;#0x0200
    52c8:	18 24       	jz	$+50     	;abs 0x52fa
    52ca:	b2 40 02 01 3c 1c 	mov	#258,	&0x1c3c	;#0x0102
    52d0:	82 43 3e 1c 	mov	#0,	&0x1c3e	;r3 As==00
    52d4:	ce 93 00 00 	tst.b	0(r14)		;0x0000(r14)
    52d8:	08 24       	jz	$+18     	;abs 0x52ea
    52da:	b2 40 02 03 3c 1c 	mov	#770,	&0x1c3c	;#0x0302
    52e0:	82 43 3e 1c 	mov	#0,	&0x1c3e	;r3 As==00
    52e4:	f2 42 1d 12 	mov.b	#8,	&0x121d	;r2 As==11
    52e8:	08 3c       	jmp	$+18     	;abs 0x52fa
    52ea:	b2 40 02 05 3c 1c 	mov	#1282,	&0x1c3c	;#0x0502
    52f0:	82 43 3e 1c 	mov	#0,	&0x1c3e	;r3 As==00
    52f4:	f2 40 06 00 1d 12 	mov.b	#6,	&0x121d	;#0x0006
    52fa:	1c 42 3c 1c 	mov	&0x1c3c,r12	
    52fe:	1d 42 3e 1c 	mov	&0x1c3e,r13	
    5302:	3c d0 80 00 	bis	#128,	r12	;#0x0080
    5306:	0d d3       	bis	#0,	r13	;r3 As==00
    5308:	82 4c 3c 1c 	mov	r12,	&0x1c3c	
    530c:	82 4d 3e 1c 	mov	r13,	&0x1c3e	
    5310:	0a 4c       	mov	r12,	r10	
    5312:	0b 4d       	mov	r13,	r11	
    5314:	3a f0 00 02 	and	#512,	r10	;#0x0200
    5318:	0b f3       	and	#0,	r11	;r3 As==00
    531a:	0a 93       	tst	r10		
    531c:	02 20       	jnz	$+6      	;abs 0x5322
    531e:	0b 93       	tst	r11		
    5320:	88 24       	jz	$+274    	;abs 0x5432
    5322:	0a 4c       	mov	r12,	r10	
    5324:	0b 4d       	mov	r13,	r11	
    5326:	0a d3       	bis	#0,	r10	;r3 As==00
    5328:	3b d0 20 00 	bis	#32,	r11	;#0x0020
    532c:	82 4a 3c 1c 	mov	r10,	&0x1c3c	
    5330:	82 4b 3e 1c 	mov	r11,	&0x1c3e	
    5334:	e2 43 f2 17 	mov.b	#2,	&0x17f2	;r3 As==10
    5338:	92 4e 02 00 8a 1c 	mov	2(r14),	&0x1c8a	;0x0002(r14)
    533e:	92 4e 04 00 68 12 	mov	4(r14),	&0x1268	;0x0004(r14)
    5344:	76 3c       	jmp	$+238    	;abs 0x5432
    5346:	3d b0 0c 00 	bit	#12,	r13	;#0x000c
    534a:	22 20       	jnz	$+70     	;abs 0x5390
    534c:	3d b0 30 00 	bit	#48,	r13	;#0x0030
    5350:	48 20       	jnz	$+146    	;abs 0x53e2
    5352:	3d b0 40 00 	bit	#64,	r13	;#0x0040
    5356:	09 24       	jz	$+20     	;abs 0x536a
    5358:	b2 40 10 00 3c 1c 	mov	#16,	&0x1c3c	;#0x0010
    535e:	82 43 3e 1c 	mov	#0,	&0x1c3e	;r3 As==00
    5362:	f2 40 07 00 1d 12 	mov.b	#7,	&0x121d	;#0x0007
    5368:	3c 3c       	jmp	$+122    	;abs 0x53e2
    536a:	3d b0 80 00 	bit	#128,	r13	;#0x0080
    536e:	1f 20       	jnz	$+64     	;abs 0x53ae
    5370:	3d b0 00 01 	bit	#256,	r13	;#0x0100
    5374:	2e 24       	jz	$+94     	;abs 0x53d2
    5376:	b2 40 10 00 3c 1c 	mov	#16,	&0x1c3c	;#0x0010
    537c:	b2 40 00 01 3e 1c 	mov	#256,	&0x1c3e	;#0x0100
    5382:	f2 40 09 00 1d 12 	mov.b	#9,	&0x121d	;#0x0009
    5388:	2c 3c       	jmp	$+90     	;abs 0x53e2
    538a:	3d b0 0c 00 	bit	#12,	r13	;#0x000c
    538e:	06 24       	jz	$+14     	;abs 0x539c
    5390:	b2 40 00 20 3c 1c 	mov	#8192,	&0x1c3c	;#0x2000
    5396:	82 43 3e 1c 	mov	#0,	&0x1c3e	;r3 As==00
    539a:	23 3c       	jmp	$+72     	;abs 0x53e2
    539c:	3d b0 30 00 	bit	#48,	r13	;#0x0030
    53a0:	20 20       	jnz	$+66     	;abs 0x53e2
    53a2:	3d b0 40 00 	bit	#64,	r13	;#0x0040
    53a6:	0f 20       	jnz	$+32     	;abs 0x53c6
    53a8:	3d b0 80 00 	bit	#128,	r13	;#0x0080
    53ac:	09 24       	jz	$+20     	;abs 0x53c0
    53ae:	b2 40 00 01 3c 1c 	mov	#256,	&0x1c3c	;#0x0100
    53b4:	82 43 3e 1c 	mov	#0,	&0x1c3e	;r3 As==00
    53b8:	f2 40 06 00 1d 12 	mov.b	#6,	&0x121d	;#0x0006
    53be:	11 3c       	jmp	$+36     	;abs 0x53e2
    53c0:	3d b0 00 01 	bit	#256,	r13	;#0x0100
    53c4:	06 24       	jz	$+14     	;abs 0x53d2
    53c6:	b2 40 10 01 3c 1c 	mov	#272,	&0x1c3c	;#0x0110
    53cc:	82 43 3e 1c 	mov	#0,	&0x1c3e	;r3 As==00
    53d0:	08 3c       	jmp	$+18     	;abs 0x53e2
    53d2:	3d b0 00 02 	bit	#512,	r13	;#0x0200
    53d6:	05 24       	jz	$+12     	;abs 0x53e2
    53d8:	b2 40 02 01 3c 1c 	mov	#258,	&0x1c3c	;#0x0102
    53de:	82 43 3e 1c 	mov	#0,	&0x1c3e	;r3 As==00
    53e2:	82 d3 3c 1c 	bis	#0,	&0x1c3c	;r3 As==00
    53e6:	b2 d0 10 00 3e 1c 	bis	#16,	&0x1c3e	;#0x0010
    53ec:	d2 4e 04 00 f2 17 	mov.b	4(r14),	&0x17f2	;0x0004(r14)
    53f2:	a2 4e 8a 1c 	mov	@r14,	&0x1c8a	
    53f6:	92 4e 02 00 68 12 	mov	2(r14),	&0x1268	;0x0002(r14)
    53fc:	21 3c       	jmp	$+68     	;abs 0x5440
    53fe:	3d b0 fc 03 	bit	#1020,	r13	;#0x03fc
    5402:	1e 24       	jz	$+62     	;abs 0x5440
    5404:	3d b0 00 02 	bit	#512,	r13	;#0x0200
    5408:	09 24       	jz	$+20     	;abs 0x541c
    540a:	b2 40 06 40 3c 1c 	mov	#16390,	&0x1c3c	;#0x4006
    5410:	82 43 3e 1c 	mov	#0,	&0x1c3e	;r3 As==00
    5414:	f2 40 05 00 1d 12 	mov.b	#5,	&0x121d	;#0x0005
    541a:	0b 3c       	jmp	$+24     	;abs 0x5432
    541c:	b2 40 00 40 3c 1c 	mov	#16384,	&0x1c3c	;#0x4000
    5422:	82 43 3e 1c 	mov	#0,	&0x1c3e	;r3 As==00
    5426:	3d b0 80 01 	bit	#384,	r13	;#0x0180
    542a:	03 24       	jz	$+8      	;abs 0x5432
    542c:	f2 40 06 00 1d 12 	mov.b	#6,	&0x121d	;#0x0006
    5432:	92 4e 06 00 54 2a 	mov	6(r14),	&0x2a54	;0x0006(r14)
    5438:	03 3c       	jmp	$+8      	;abs 0x5440
    543a:	7f 40 07 00 	mov.b	#7,	r15	;#0x0007
    543e:	01 3c       	jmp	$+4      	;abs 0x5442
    5440:	4f 43       	clr.b	r15		
    5442:	3a 41       	pop	r10		
    5444:	3b 41       	pop	r11		
    5446:	30 41       	ret			

00005448 <IPForwardingEngineP__ForwardingTable__delRoute>:
    5448:	3e 40 04 18 	mov	#6148,	r14	;#0x1804
    544c:	0c 43       	clr	r12		
    544e:	2f 9e       	cmp	@r14,	r15	
    5450:	31 20       	jnz	$+100    	;abs 0x54b4
    5452:	3f 40 13 00 	mov	#19,	r15	;#0x0013
    5456:	0f 8c       	sub	r12,	r15	
    5458:	02 12       	push	r2		
    545a:	32 c2       	dint			
    545c:	03 43       	nop			
    545e:	82 4f 32 01 	mov	r15,	&0x0132	
    5462:	b2 40 28 00 38 01 	mov	#40,	&0x0138	;#0x0028
    5468:	1d 42 3a 01 	mov	&0x013a,r13	
    546c:	32 41       	pop	r2		
    546e:	0f 4c       	mov	r12,	r15	
    5470:	1f 53       	inc	r15		
    5472:	02 12       	push	r2		
    5474:	32 c2       	dint			
    5476:	03 43       	nop			
    5478:	82 4f 32 01 	mov	r15,	&0x0132	
    547c:	b2 40 28 00 38 01 	mov	#40,	&0x0138	;#0x0028
    5482:	1e 42 3a 01 	mov	&0x013a,r14	
    5486:	32 41       	pop	r2		
    5488:	3e 50 02 18 	add	#6146,	r14	;#0x1802
    548c:	02 12       	push	r2		
    548e:	32 c2       	dint			
    5490:	03 43       	nop			
    5492:	82 4c 32 01 	mov	r12,	&0x0132	
    5496:	b2 40 28 00 38 01 	mov	#40,	&0x0138	;#0x0028
    549c:	1f 42 3a 01 	mov	&0x013a,r15	
    54a0:	32 41       	pop	r2		
    54a2:	3f 50 02 18 	add	#6146,	r15	;#0x1802
    54a6:	b0 12 9a f0 	call	#0xf09a	
    54aa:	f2 f0 fe ff fa 1a 	and.b	#-2,	&0x1afa	;#0xfffe
    54b0:	4f 43       	clr.b	r15		
    54b2:	30 41       	ret			
    54b4:	1c 53       	inc	r12		
    54b6:	3e 50 28 00 	add	#40,	r14	;#0x0028
    54ba:	3c 90 14 00 	cmp	#20,	r12	;#0x0014
    54be:	c7 23       	jnz	$-112    	;abs 0x544e
    54c0:	5f 43       	mov.b	#1,	r15	;r3 As==01
    54c2:	30 41       	ret			

000054c4 <IPDispatchP__reconstruct_clear>:
    54c4:	0b 12       	push	r11		
    54c6:	0b 4f       	mov	r15,	r11	
    54c8:	3d 40 0c 00 	mov	#12,	r13	;#0x000c
    54cc:	0e 43       	clr	r14		
    54ce:	3f 50 10 00 	add	#16,	r15	;#0x0010
    54d2:	b0 12 94 f1 	call	#0xf194	
    54d6:	eb 43 0a 00 	mov.b	#2,	10(r11)	;r3 As==10, 0x000a(r11)
    54da:	8b 43 06 00 	mov	#0,	6(r11)	;r3 As==00, 0x0006(r11)
    54de:	3b 41       	pop	r11		
    54e0:	30 41       	ret			

000054e2 <PppConfigureEngineP__1__PppConfigure__resetOptions>:
    54e2:	0b 12       	push	r11		
    54e4:	3b 40 ac 23 	mov	#9132,	r11	;#0x23ac
    54e8:	0b 3c       	jmp	$+24     	;abs 0x5500
    54ea:	1b 53       	inc	r11		
    54ec:	5f 93       	cmp.b	#1,	r15	;r3 As==01
    54ee:	08 20       	jnz	$+18     	;abs 0x5500
    54f0:	d2 43 58 11 	mov.b	#1,	&0x1158	;r3 As==01
    54f4:	3d 42       	mov	#8,	r13	;r2 As==11
    54f6:	0e 43       	clr	r14		
    54f8:	3f 40 da 12 	mov	#4826,	r15	;#0x12da
    54fc:	b0 12 94 f1 	call	#0xf194	
    5500:	6f 4b       	mov.b	@r11,	r15	
    5502:	4f 93       	tst.b	r15		
    5504:	f2 23       	jnz	$-26     	;abs 0x54ea
    5506:	3b 41       	pop	r11		
    5508:	30 41       	ret			

0000550a <IPDispatchP__lowpan_extern_match_context>:
    550a:	0b 12       	push	r11		
    550c:	0a 12       	push	r10		
    550e:	31 50 f0 ff 	add	#-16,	r1	;#0xfff0
    5512:	0a 4f       	mov	r15,	r10	
    5514:	0b 4e       	mov	r14,	r11	
    5516:	0f 41       	mov	r1,	r15	
    5518:	b0 12 3a 48 	call	#0x483a	
    551c:	4f 93       	tst.b	r15		
    551e:	0c 24       	jz	$+26     	;abs 0x5538
    5520:	3d 42       	mov	#8,	r13	;r2 As==11
    5522:	0e 4a       	mov	r10,	r14	
    5524:	0f 41       	mov	r1,	r15	
    5526:	b0 12 80 ef 	call	#0xef80	
    552a:	0f 93       	tst	r15		
    552c:	05 20       	jnz	$+12     	;abs 0x5538
    552e:	cb 43 00 00 	mov.b	#0,	0(r11)	;r3 As==00, 0x0000(r11)
    5532:	3f 40 40 00 	mov	#64,	r15	;#0x0040
    5536:	01 3c       	jmp	$+4      	;abs 0x553a
    5538:	0f 43       	clr	r15		
    553a:	31 50 10 00 	add	#16,	r1	;#0x0010
    553e:	3a 41       	pop	r10		
    5540:	3b 41       	pop	r11		
    5542:	30 41       	ret			

00005544 <RPLRankP__insertParent>:
    5544:	0b 12       	push	r11		
    5546:	0a 12       	push	r10		
    5548:	5a 42 b2 11 	mov.b	&0x11b2,r10	
    554c:	4a 93       	tst.b	r10		
    554e:	1b 24       	jz	$+56     	;abs 0x5586
    5550:	0b 43       	clr	r11		
    5552:	02 12       	push	r2		
    5554:	32 c2       	dint			
    5556:	03 43       	nop			
    5558:	82 4b 32 01 	mov	r11,	&0x0132	
    555c:	b2 40 18 00 38 01 	mov	#24,	&0x0138	;#0x0018
    5562:	1f 42 3a 01 	mov	&0x013a,r15	
    5566:	32 41       	pop	r2		
    5568:	3d 40 10 00 	mov	#16,	r13	;#0x0010
    556c:	0e 41       	mov	r1,	r14	
    556e:	3e 50 06 00 	add	#6,	r14	;#0x0006
    5572:	3f 50 e8 12 	add	#4840,	r15	;#0x12e8
    5576:	b0 12 80 ef 	call	#0xef80	
    557a:	0f 93       	tst	r15		
    557c:	2e 24       	jz	$+94     	;abs 0x55da
    557e:	1b 53       	inc	r11		
    5580:	3b 90 14 00 	cmp	#20,	r11	;#0x0014
    5584:	e6 23       	jnz	$-50     	;abs 0x5552
    5586:	4f 43       	clr.b	r15		
    5588:	4e 4f       	mov.b	r15,	r14	
    558a:	02 12       	push	r2		
    558c:	32 c2       	dint			
    558e:	03 43       	nop			
    5590:	82 4e 32 01 	mov	r14,	&0x0132	
    5594:	b2 40 18 00 38 01 	mov	#24,	&0x0138	;#0x0018
    559a:	1d 42 3a 01 	mov	&0x013a,r13	
    559e:	32 41       	pop	r2		
    55a0:	cd 93 fe 12 	tst.b	4862(r13)	;0x12fe(r13)
    55a4:	15 20       	jnz	$+44     	;abs 0x55d0
    55a6:	02 12       	push	r2		
    55a8:	32 c2       	dint			
    55aa:	03 43       	nop			
    55ac:	82 4e 32 01 	mov	r14,	&0x0132	
    55b0:	b2 40 18 00 38 01 	mov	#24,	&0x0138	;#0x0018
    55b6:	1f 42 3a 01 	mov	&0x013a,r15	
    55ba:	32 41       	pop	r2		
    55bc:	3d 40 18 00 	mov	#24,	r13	;#0x0018
    55c0:	0e 41       	mov	r1,	r14	
    55c2:	3e 50 06 00 	add	#6,	r14	;#0x0006
    55c6:	3f 50 e8 12 	add	#4840,	r15	;#0x12e8
    55ca:	b0 12 a0 ef 	call	#0xefa0	
    55ce:	27 3c       	jmp	$+80     	;abs 0x561e
    55d0:	5f 53       	inc.b	r15		
    55d2:	7f 90 14 00 	cmp.b	#20,	r15	;#0x0014
    55d6:	d8 23       	jnz	$-78     	;abs 0x5588
    55d8:	25 3c       	jmp	$+76     	;abs 0x5624
    55da:	02 12       	push	r2		
    55dc:	32 c2       	dint			
    55de:	03 43       	nop			
    55e0:	82 4b 32 01 	mov	r11,	&0x0132	
    55e4:	b2 40 18 00 38 01 	mov	#24,	&0x0138	;#0x0018
    55ea:	1f 42 3a 01 	mov	&0x013a,r15	
    55ee:	32 41       	pop	r2		
    55f0:	3d 40 18 00 	mov	#24,	r13	;#0x0018
    55f4:	0e 41       	mov	r1,	r14	
    55f6:	3e 50 06 00 	add	#6,	r14	;#0x0006
    55fa:	3f 50 e8 12 	add	#4840,	r15	;#0x12e8
    55fe:	b0 12 a0 ef 	call	#0xefa0	
    5602:	02 12       	push	r2		
    5604:	32 c2       	dint			
    5606:	03 43       	nop			
    5608:	82 4b 32 01 	mov	r11,	&0x0132	
    560c:	b2 40 18 00 38 01 	mov	#24,	&0x0138	;#0x0018
    5612:	1f 42 3a 01 	mov	&0x013a,r15	
    5616:	32 41       	pop	r2		
    5618:	bf 40 0a 00 fc 12 	mov	#10,	4860(r15);#0x000a, 0x12fc(r15)
    561e:	5a 53       	inc.b	r10		
    5620:	c2 4a b2 11 	mov.b	r10,	&0x11b2	
    5624:	3a 41       	pop	r10		
    5626:	3b 41       	pop	r11		
    5628:	30 41       	ret			

0000562a <IPForwardingEngineP__ForwardingTable__lookupRoute>:
    562a:	0b 12       	push	r11		
    562c:	0a 12       	push	r10		
    562e:	09 12       	push	r9		
    5630:	08 12       	push	r8		
    5632:	08 4f       	mov	r15,	r8	
    5634:	09 4e       	mov	r14,	r9	
    5636:	3a 40 16 18 	mov	#6166,	r10	;#0x1816
    563a:	0b 43       	clr	r11		
    563c:	02 12       	push	r2		
    563e:	32 c2       	dint			
    5640:	03 43       	nop			
    5642:	82 4b 32 01 	mov	r11,	&0x0132	
    5646:	b2 40 28 00 38 01 	mov	#40,	&0x0138	;#0x0028
    564c:	1e 42 3a 01 	mov	&0x013a,r14	
    5650:	32 41       	pop	r2		
    5652:	5d 4e 02 18 	mov.b	6146(r14),r13	;0x1802(r14)
    5656:	0d 11       	rra	r13		
    5658:	0d 43       	clr	r13		
    565a:	4d 10       	rrc.b	r13		
    565c:	4d 4d       	mov.b	r13,	r13	
    565e:	8d 11       	sxt	r13		
    5660:	8d 10       	swpb	r13		
    5662:	4d 93       	tst.b	r13		
    5664:	32 24       	jz	$+102    	;abs 0x56ca
    5666:	6d 4a       	mov.b	@r10,	r13	
    5668:	4d 93       	tst.b	r13		
    566a:	21 24       	jz	$+68     	;abs 0x56ae
    566c:	4d 4d       	mov.b	r13,	r13	
    566e:	09 9d       	cmp	r13,	r9	
    5670:	01 34       	jge	$+4      	;abs 0x5674
    5672:	0d 49       	mov	r9,	r13	
    5674:	0d 93       	tst	r13		
    5676:	02 34       	jge	$+6      	;abs 0x567c
    5678:	3d 50 07 00 	add	#7,	r13	;#0x0007
    567c:	0d 11       	rra	r13		
    567e:	0d 11       	rra	r13		
    5680:	0d 11       	rra	r13		
    5682:	02 12       	push	r2		
    5684:	32 c2       	dint			
    5686:	03 43       	nop			
    5688:	82 4b 32 01 	mov	r11,	&0x0132	
    568c:	b2 40 28 00 38 01 	mov	#40,	&0x0138	;#0x0028
    5692:	1c 42 3a 01 	mov	&0x013a,r12	
    5696:	32 41       	pop	r2		
    5698:	2c 52       	add	#4,	r12	;r2 As==10
    569a:	0e 4c       	mov	r12,	r14	
    569c:	3e 50 02 18 	add	#6146,	r14	;#0x1802
    56a0:	0f 48       	mov	r8,	r15	
    56a2:	b0 12 80 ef 	call	#0xef80	
    56a6:	0f 93       	tst	r15		
    56a8:	10 20       	jnz	$+34     	;abs 0x56ca
    56aa:	09 93       	tst	r9		
    56ac:	0e 24       	jz	$+30     	;abs 0x56ca
    56ae:	02 12       	push	r2		
    56b0:	32 c2       	dint			
    56b2:	03 43       	nop			
    56b4:	82 4b 32 01 	mov	r11,	&0x0132	
    56b8:	b2 40 28 00 38 01 	mov	#40,	&0x0138	;#0x0028
    56be:	1f 42 3a 01 	mov	&0x013a,r15	
    56c2:	32 41       	pop	r2		
    56c4:	3f 50 02 18 	add	#6146,	r15	;#0x1802
    56c8:	07 3c       	jmp	$+16     	;abs 0x56d8
    56ca:	1b 53       	inc	r11		
    56cc:	3a 50 28 00 	add	#40,	r10	;#0x0028
    56d0:	3b 90 14 00 	cmp	#20,	r11	;#0x0014
    56d4:	b3 23       	jnz	$-152    	;abs 0x563c
    56d6:	0f 43       	clr	r15		
    56d8:	38 41       	pop	r8		
    56da:	39 41       	pop	r9		
    56dc:	3a 41       	pop	r10		
    56de:	3b 41       	pop	r11		
    56e0:	30 41       	ret			

000056e2 <IPPacketC__IPPacket__findHeader>:
    56e2:	0b 12       	push	r11		
    56e4:	0a 12       	push	r10		
    56e6:	09 12       	push	r9		
    56e8:	21 83       	decd	r1		
    56ea:	09 4f       	mov	r15,	r9	
    56ec:	0a 4d       	mov	r13,	r10	
    56ee:	0b 43       	clr	r11		
    56f0:	10 3c       	jmp	$+34     	;abs 0x5712
    56f2:	0c 41       	mov	r1,	r12	
    56f4:	2d 43       	mov	#2,	r13	;r3 As==10
    56f6:	0e 4b       	mov	r11,	r14	
    56f8:	0f 49       	mov	r9,	r15	
    56fa:	b0 12 ec e6 	call	#0xe6ec	
    56fe:	2f 93       	cmp	#2,	r15	;r3 As==10
    5700:	21 20       	jnz	$+68     	;abs 0x5744
    5702:	6e 41       	mov.b	@r1,	r14	
    5704:	5c 41 01 00 	mov.b	1(r1),	r12	;0x0001(r1)
    5708:	1c 53       	inc	r12		
    570a:	0c 5c       	rla	r12		
    570c:	0c 5c       	rla	r12		
    570e:	0c 5c       	rla	r12		
    5710:	0b 5c       	add	r12,	r11	
    5712:	6d 4a       	mov.b	@r10,	r13	
    5714:	7d 93       	cmp.b	#-1,	r13	;r3 As==11
    5716:	11 20       	jnz	$+36     	;abs 0x573a
    5718:	4e 93       	tst.b	r14		
    571a:	eb 27       	jz	$-40     	;abs 0x56f2
    571c:	7e 90 2b 00 	cmp.b	#43,	r14	;#0x002b
    5720:	e8 27       	jz	$-46     	;abs 0x56f2
    5722:	7e 90 2c 00 	cmp.b	#44,	r14	;#0x002c
    5726:	e5 27       	jz	$-52     	;abs 0x56f2
    5728:	7e 90 3c 00 	cmp.b	#60,	r14	;#0x003c
    572c:	e2 27       	jz	$-58     	;abs 0x56f2
    572e:	7e 90 87 ff 	cmp.b	#-121,	r14	;#0xff87
    5732:	df 27       	jz	$-64     	;abs 0x56f2
    5734:	ca 4e 00 00 	mov.b	r14,	0(r10)	;0x0000(r10)
    5738:	02 3c       	jmp	$+6      	;abs 0x573e
    573a:	4d 9e       	cmp.b	r14,	r13	
    573c:	da 23       	jnz	$-74     	;abs 0x56f2
    573e:	7e 90 3b 00 	cmp.b	#59,	r14	;#0x003b
    5742:	01 20       	jnz	$+4      	;abs 0x5746
    5744:	3b 43       	mov	#-1,	r11	;r3 As==11
    5746:	0f 4b       	mov	r11,	r15	
    5748:	21 53       	incd	r1		
    574a:	39 41       	pop	r9		
    574c:	3a 41       	pop	r10		
    574e:	3b 41       	pop	r11		
    5750:	30 41       	ret			

00005752 <IPPacketC__IPPacket__findTLV>:
    5752:	0b 12       	push	r11		
    5754:	0a 12       	push	r10		
    5756:	09 12       	push	r9		
    5758:	08 12       	push	r8		
    575a:	21 82       	sub	#4,	r1	;r2 As==10
    575c:	09 4f       	mov	r15,	r9	
    575e:	0a 4e       	mov	r14,	r10	
    5760:	48 4d       	mov.b	r13,	r8	
    5762:	0c 41       	mov	r1,	r12	
    5764:	2c 53       	incd	r12		
    5766:	2d 43       	mov	#2,	r13	;r3 As==10
    5768:	b0 12 ec e6 	call	#0xe6ec	
    576c:	2f 93       	cmp	#2,	r15	;r3 As==10
    576e:	1b 20       	jnz	$+56     	;abs 0x57a6
    5770:	0b 4a       	mov	r10,	r11	
    5772:	2b 53       	incd	r11		
    5774:	0e 3c       	jmp	$+30     	;abs 0x5792
    5776:	0c 41       	mov	r1,	r12	
    5778:	2d 43       	mov	#2,	r13	;r3 As==10
    577a:	0e 4b       	mov	r11,	r14	
    577c:	0f 49       	mov	r9,	r15	
    577e:	b0 12 ec e6 	call	#0xe6ec	
    5782:	2f 93       	cmp	#2,	r15	;r3 As==10
    5784:	10 20       	jnz	$+34     	;abs 0x57a6
    5786:	68 91       	cmp.b	@r1,	r8	
    5788:	0f 24       	jz	$+32     	;abs 0x57a8
    578a:	5c 41 01 00 	mov.b	1(r1),	r12	;0x0001(r1)
    578e:	2c 53       	incd	r12		
    5790:	0b 5c       	add	r12,	r11	
    5792:	0f 4b       	mov	r11,	r15	
    5794:	0f 8a       	sub	r10,	r15	
    5796:	5c 41 03 00 	mov.b	3(r1),	r12	;0x0003(r1)
    579a:	1c 53       	inc	r12		
    579c:	0c 5c       	rla	r12		
    579e:	0c 5c       	rla	r12		
    57a0:	0c 5c       	rla	r12		
    57a2:	0f 9c       	cmp	r12,	r15	
    57a4:	e8 3b       	jl	$-46     	;abs 0x5776
    57a6:	3b 43       	mov	#-1,	r11	;r3 As==11
    57a8:	0f 4b       	mov	r11,	r15	
    57aa:	21 52       	add	#4,	r1	;r2 As==10
    57ac:	38 41       	pop	r8		
    57ae:	39 41       	pop	r9		
    57b0:	3a 41       	pop	r10		
    57b2:	3b 41       	pop	r11		
    57b4:	30 41       	ret			

000057b6 <IPNeighborDiscoveryP__NeighborDiscovery__setPrefix>:
    57b6:	0b 12       	push	r11		
    57b8:	0a 12       	push	r10		
    57ba:	09 12       	push	r9		
    57bc:	08 12       	push	r8		
    57be:	08 4f       	mov	r15,	r8	
    57c0:	49 4e       	mov.b	r14,	r9	
    57c2:	0a 4c       	mov	r12,	r10	
    57c4:	0b 4d       	mov	r13,	r11	
    57c6:	3d 40 10 00 	mov	#16,	r13	;#0x0010
    57ca:	3e 40 9c 12 	mov	#4764,	r14	;#0x129c
    57ce:	b0 12 80 ef 	call	#0xef80	
    57d2:	0f 93       	tst	r15		
    57d4:	03 20       	jnz	$+8      	;abs 0x57dc
    57d6:	59 92 ea 11 	cmp.b	&0x11ea,r9	
    57da:	15 24       	jz	$+44     	;abs 0x5806
    57dc:	3d 40 10 00 	mov	#16,	r13	;#0x0010
    57e0:	0e 48       	mov	r8,	r14	
    57e2:	3f 40 9c 12 	mov	#4764,	r15	;#0x129c
    57e6:	b0 12 96 ed 	call	#0xed96	
    57ea:	c2 49 ea 11 	mov.b	r9,	&0x11ea	
    57ee:	82 4a e6 11 	mov	r10,	&0x11e6	
    57f2:	82 4b e8 11 	mov	r11,	&0x11e8	
    57f6:	92 41 0a 00 e2 11 	mov	10(r1),	&0x11e2	;0x000a(r1)
    57fc:	92 41 0c 00 e4 11 	mov	12(r1),	&0x11e4	;0x000c(r1)
    5802:	d2 43 e0 11 	mov.b	#1,	&0x11e0	;r3 As==01
    5806:	38 41       	pop	r8		
    5808:	39 41       	pop	r9		
    580a:	3a 41       	pop	r10		
    580c:	3b 41       	pop	r11		
    580e:	30 41       	ret			

00005810 <HplMsp430Usart0P__Usart__resetUsart>:
    5810:	4f 93       	tst.b	r15		
    5812:	03 24       	jz	$+8      	;abs 0x581a
    5814:	d2 43 70 00 	mov.b	#1,	&0x0070	;r3 As==01
    5818:	30 41       	ret			
    581a:	f2 f0 fe ff 70 00 	and.b	#-2,	&0x0070	;#0xfffe
    5820:	30 41       	ret			

00005822 <SchedulerBasicP__popTask.part.182>:
    5822:	5f 42 61 24 	mov.b	&0x2461,r15	
    5826:	4e 4f       	mov.b	r15,	r14	
    5828:	3e 50 74 12 	add	#4724,	r14	;#0x1274
    582c:	6d 4e       	mov.b	@r14,	r13	
    582e:	c2 4d 61 24 	mov.b	r13,	&0x2461	
    5832:	7d 93       	cmp.b	#-1,	r13	;r3 As==11
    5834:	02 20       	jnz	$+6      	;abs 0x583a
    5836:	f2 43 33 2a 	mov.b	#-1,	&0x2a33	;r3 As==11
    583a:	fe 43 00 00 	mov.b	#-1,	0(r14)	;r3 As==11, 0x0000(r14)
    583e:	30 41       	ret			

00005840 <Msp430TimerP__0__Event__fired>:
    5840:	5f 93       	cmp.b	#1,	r15	;r3 As==01
    5842:	0c 24       	jz	$+26     	;abs 0x585c
    5844:	03 28       	jnc	$+8      	;abs 0x584c
    5846:	6f 93       	cmp.b	#2,	r15	;r3 As==10
    5848:	18 20       	jnz	$+50     	;abs 0x587a
    584a:	10 3c       	jmp	$+34     	;abs 0x586c
    584c:	1f 42 62 01 	mov	&0x0162,r15	
    5850:	8f 10       	swpb	r15		
    5852:	5f f3       	and.b	#1,	r15	;r3 As==01
    5854:	12 24       	jz	$+38     	;abs 0x587a
    5856:	1f 42 72 01 	mov	&0x0172,r15	
    585a:	30 41       	ret			
    585c:	1f 42 64 01 	mov	&0x0164,r15	
    5860:	8f 10       	swpb	r15		
    5862:	5f f3       	and.b	#1,	r15	;r3 As==01
    5864:	0a 24       	jz	$+22     	;abs 0x587a
    5866:	1f 42 74 01 	mov	&0x0174,r15	
    586a:	30 41       	ret			
    586c:	1f 42 66 01 	mov	&0x0166,r15	
    5870:	8f 10       	swpb	r15		
    5872:	5f f3       	and.b	#1,	r15	;r3 As==01
    5874:	02 24       	jz	$+6      	;abs 0x587a
    5876:	1f 42 76 01 	mov	&0x0176,r15	
    587a:	30 41       	ret			

0000587c <ArbiterP__1__ResourceConfigure__unconfigure.part.208>:
    587c:	5f 43       	mov.b	#1,	r15	;r3 As==01
    587e:	b0 12 10 58 	call	#0x5810	
    5882:	f2 f0 bf ff 04 00 	and.b	#-65,	&0x0004	;#0xffbf
    5888:	3f 40 1b 00 	mov	#27,	r15	;#0x001b
    588c:	ff f0 fd ff 00 00 	and.b	#-3,	0(r15)	;#0xfffd, 0x0000(r15)
    5892:	ff f0 fb ff 00 00 	and.b	#-5,	0(r15)	;#0xfffb, 0x0000(r15)
    5898:	ff f0 f7 ff 00 00 	and.b	#-9,	0(r15)	;#0xfff7, 0x0000(r15)
    589e:	4f 43       	clr.b	r15		
    58a0:	b0 12 10 58 	call	#0x5810	
    58a4:	30 41       	ret			

000058a6 <RPLDAORoutingEngineP__0__SendPool__put>:
    58a6:	5d 42 51 12 	mov.b	&0x1251,r13	
    58aa:	7d 90 05 00 	cmp.b	#5,	r13	;#0x0005
    58ae:	11 2c       	jc	$+36     	;abs 0x58d2
    58b0:	5e 42 37 1c 	mov.b	&0x1c37,r14	
    58b4:	4c 4d       	mov.b	r13,	r12	
    58b6:	0e 5c       	add	r12,	r14	
    58b8:	3e 90 05 00 	cmp	#5,	r14	;#0x0005
    58bc:	02 28       	jnc	$+6      	;abs 0x58c2
    58be:	3e 50 fb ff 	add	#-5,	r14	;#0xfffb
    58c2:	0e 5e       	rla	r14		
    58c4:	8e 4f ca 12 	mov	r15,	4810(r14);0x12ca(r14)
    58c8:	5d 53       	inc.b	r13		
    58ca:	c2 4d 51 12 	mov.b	r13,	&0x1251	
    58ce:	4f 43       	clr.b	r15		
    58d0:	30 41       	ret			
    58d2:	5f 43       	mov.b	#1,	r15	;r3 As==01
    58d4:	30 41       	ret			

000058d6 <RPLDAORoutingEngineP__0__SendQueue__enqueue.part.211>:
    58d6:	5d 42 88 11 	mov.b	&0x1188,r13	
    58da:	4e 4d       	mov.b	r13,	r14	
    58dc:	0e 5e       	rla	r14		
    58de:	8e 4f c2 1c 	mov	r15,	7362(r14);0x1cc2(r14)
    58e2:	4f 4d       	mov.b	r13,	r15	
    58e4:	5f 53       	inc.b	r15		
    58e6:	c2 4f 88 11 	mov.b	r15,	&0x1188	
    58ea:	7f 90 05 00 	cmp.b	#5,	r15	;#0x0005
    58ee:	02 20       	jnz	$+6      	;abs 0x58f4
    58f0:	c2 43 88 11 	mov.b	#0,	&0x1188	;r3 As==00
    58f4:	d2 53 86 11 	inc.b	&0x1186	
    58f8:	4f 43       	clr.b	r15		
    58fa:	30 41       	ret			

000058fc <IPNeighborDiscoveryP__NeighborDiscovery__resolveAddress>:
    58fc:	bf 90 fe 80 00 00 	cmp	#-32514,0(r15)	;#0x80fe, 0x0000(r15)
    5902:	29 20       	jnz	$+84     	;abs 0x5956
    5904:	6d 4e       	mov.b	@r14,	r13	
    5906:	bf 90 00 ff 0a 00 	cmp	#-256,	10(r15)	;#0xff00, 0x000a(r15)
    590c:	13 20       	jnz	$+40     	;abs 0x5934
    590e:	bf 90 fe 00 0c 00 	cmp	#254,	12(r15)	;#0x00fe, 0x000c(r15)
    5914:	0f 20       	jnz	$+32     	;abs 0x5934
    5916:	7d f0 fc ff 	and.b	#-4,	r13	;#0xfffc
    591a:	6d d3       	bis.b	#2,	r13	;r3 As==10
    591c:	ce 4d 00 00 	mov.b	r13,	0(r14)	;0x0000(r14)
    5920:	1d 4f 0e 00 	mov	14(r15),r13	;0x000e(r15)
    5924:	4f 4d       	mov.b	r13,	r15	
    5926:	8f 10       	swpb	r15		
    5928:	8d 10       	swpb	r13		
    592a:	4d 4d       	mov.b	r13,	r13	
    592c:	0d df       	bis	r15,	r13	
    592e:	8e 4d 02 00 	mov	r13,	2(r14)	;0x0002(r14)
    5932:	22 3c       	jmp	$+70     	;abs 0x5978
    5934:	7d d0 03 00 	bis.b	#3,	r13	;#0x0003
    5938:	ce 4d 00 00 	mov.b	r13,	0(r14)	;0x0000(r14)
    593c:	0d 43       	clr	r13		
    593e:	0c 4e       	mov	r14,	r12	
    5940:	0c 5d       	add	r13,	r12	
    5942:	dc 4f 0f 00 02 00 	mov.b	15(r15),2(r12)	;0x000f(r15), 0x0002(r12)
    5948:	1d 53       	inc	r13		
    594a:	3f 53       	add	#-1,	r15	;r3 As==11
    594c:	3d 92       	cmp	#8,	r13	;r2 As==11
    594e:	f7 23       	jnz	$-16     	;abs 0x593e
    5950:	ee e3 09 00 	xor.b	#2,	9(r14)	;r3 As==10, 0x0009(r14)
    5954:	11 3c       	jmp	$+36     	;abs 0x5978
    5956:	ff 93 00 00 	cmp.b	#-1,	0(r15)	;r3 As==11, 0x0000(r15)
    595a:	10 20       	jnz	$+34     	;abs 0x597c
    595c:	5f 4f 01 00 	mov.b	1(r15),	r15	;0x0001(r15)
    5960:	3f f0 0f 00 	and	#15,	r15	;#0x000f
    5964:	2f 93       	cmp	#2,	r15	;r3 As==10
    5966:	0c 20       	jnz	$+26     	;abs 0x5980
    5968:	6f 4e       	mov.b	@r14,	r15	
    596a:	7f f0 fc ff 	and.b	#-4,	r15	;#0xfffc
    596e:	6f d3       	bis.b	#2,	r15	;r3 As==10
    5970:	ce 4f 00 00 	mov.b	r15,	0(r14)	;0x0000(r14)
    5974:	be 43 02 00 	mov	#-1,	2(r14)	;r3 As==11, 0x0002(r14)
    5978:	4f 43       	clr.b	r15		
    597a:	30 41       	ret			
    597c:	5f 43       	mov.b	#1,	r15	;r3 As==01
    597e:	30 41       	ret			
    5980:	5f 43       	mov.b	#1,	r15	;r3 As==01
    5982:	30 41       	ret			

00005984 <IPDispatchP__SendEntryPool__put>:
    5984:	5d 42 f3 17 	mov.b	&0x17f3,r13	
    5988:	7d 90 0c 00 	cmp.b	#12,	r13	;#0x000c
    598c:	11 2c       	jc	$+36     	;abs 0x59b0
    598e:	5e 42 08 25 	mov.b	&0x2508,r14	
    5992:	4c 4d       	mov.b	r13,	r12	
    5994:	0e 5c       	add	r12,	r14	
    5996:	3e 90 0c 00 	cmp	#12,	r14	;#0x000c
    599a:	02 28       	jnc	$+6      	;abs 0x59a0
    599c:	3e 50 f4 ff 	add	#-12,	r14	;#0xfff4
    59a0:	0e 5e       	rla	r14		
    59a2:	8e 4f 36 2a 	mov	r15,	10806(r14);0x2a36(r14)
    59a6:	5d 53       	inc.b	r13		
    59a8:	c2 4d f3 17 	mov.b	r13,	&0x17f3	
    59ac:	4f 43       	clr.b	r15		
    59ae:	30 41       	ret			
    59b0:	5f 43       	mov.b	#1,	r15	;r3 As==01
    59b2:	30 41       	ret			

000059b4 <IPDispatchP__FragPool__put>:
    59b4:	5d 42 f5 17 	mov.b	&0x17f5,r13	
    59b8:	7d 90 0c 00 	cmp.b	#12,	r13	;#0x000c
    59bc:	11 2c       	jc	$+36     	;abs 0x59e0
    59be:	5e 42 2e 15 	mov.b	&0x152e,r14	
    59c2:	4c 4d       	mov.b	r13,	r12	
    59c4:	0e 5c       	add	r12,	r14	
    59c6:	3e 90 0c 00 	cmp	#12,	r14	;#0x000c
    59ca:	02 28       	jnc	$+6      	;abs 0x59d0
    59cc:	3e 50 f4 ff 	add	#-12,	r14	;#0xfff4
    59d0:	0e 5e       	rla	r14		
    59d2:	8e 4f 60 1c 	mov	r15,	7264(r14);0x1c60(r14)
    59d6:	5d 53       	inc.b	r13		
    59d8:	c2 4d f5 17 	mov.b	r13,	&0x17f5	
    59dc:	4f 43       	clr.b	r15		
    59de:	30 41       	ret			
    59e0:	5f 43       	mov.b	#1,	r15	;r3 As==01
    59e2:	30 41       	ret			

000059e4 <IPDispatchP__SENDINFO_DECR>:
    59e4:	5e 4f 06 00 	mov.b	6(r15),	r14	;0x0006(r15)
    59e8:	7e 53       	add.b	#-1,	r14	;r3 As==11
    59ea:	cf 4e 06 00 	mov.b	r14,	6(r15)	;0x0006(r15)
    59ee:	14 20       	jnz	$+42     	;abs 0x5a18
    59f0:	5d 42 b8 12 	mov.b	&0x12b8,r13	
    59f4:	7d 90 03 00 	cmp.b	#3,	r13	;#0x0003
    59f8:	0f 2c       	jc	$+32     	;abs 0x5a18
    59fa:	5e 42 64 12 	mov.b	&0x1264,r14	
    59fe:	4c 4d       	mov.b	r13,	r12	
    5a00:	0e 5c       	add	r12,	r14	
    5a02:	3e 90 03 00 	cmp	#3,	r14	;#0x0003
    5a06:	02 28       	jnc	$+6      	;abs 0x5a0c
    5a08:	3e 50 fd ff 	add	#-3,	r14	;#0xfffd
    5a0c:	0e 5e       	rla	r14		
    5a0e:	8e 4f 7c 24 	mov	r15,	9340(r14);0x247c(r14)
    5a12:	5d 53       	inc.b	r13		
    5a14:	c2 4d b8 12 	mov.b	r13,	&0x12b8	
    5a18:	30 41       	ret			

00005a1a <FragmentPoolImplP__0__initialize__.part.216>:
    5a1a:	3f 40 ea 17 	mov	#6122,	r15	;#0x17ea
    5a1e:	bf 40 20 12 00 00 	mov	#4640,	0(r15)	;#0x1220, 0x0000(r15)
    5a24:	bf 42 02 00 	mov	#8,	2(r15)	;r2 As==11, 0x0002(r15)
    5a28:	3e 40 20 12 	mov	#4640,	r14	;#0x1220
    5a2c:	be 40 58 2a 00 00 	mov	#10840,	0(r14)	;#0x2a58, 0x0000(r14)
    5a32:	be 40 02 05 02 00 	mov	#1282,	2(r14)	;#0x0502, 0x0002(r14)
    5a38:	bf 40 58 1c 04 00 	mov	#7256,	4(r15)	;#0x1c58, 0x0004(r15)
    5a3e:	af 43 06 00 	mov	#2,	6(r15)	;r3 As==10, 0x0006(r15)
    5a42:	3f 40 58 1c 	mov	#7256,	r15	;#0x1c58
    5a46:	bf 40 10 25 00 00 	mov	#9488,	0(r15)	;#0x2510, 0x0000(r15)
    5a4c:	bf 40 04 05 02 00 	mov	#1284,	2(r15)	;#0x0504, 0x0002(r15)
    5a52:	d2 43 ae 12 	mov.b	#1,	&0x12ae	;r3 As==01
    5a56:	30 41       	ret			

00005a58 <IPForwardingEngineP__Pool__put.part.217>:
    5a58:	5d 42 ad 12 	mov.b	&0x12ad,r13	
    5a5c:	5e 42 50 2a 	mov.b	&0x2a50,r14	
    5a60:	4c 4d       	mov.b	r13,	r12	
    5a62:	0e 5c       	add	r12,	r14	
    5a64:	3e 90 03 00 	cmp	#3,	r14	;#0x0003
    5a68:	02 28       	jnc	$+6      	;abs 0x5a6e
    5a6a:	3e 50 fd ff 	add	#-3,	r14	;#0xfffd
    5a6e:	0e 5e       	rla	r14		
    5a70:	8e 4f 16 12 	mov	r15,	4630(r14);0x1216(r14)
    5a74:	5d 53       	inc.b	r13		
    5a76:	c2 4d ad 12 	mov.b	r13,	&0x12ad	
    5a7a:	4f 43       	clr.b	r15		
    5a7c:	30 41       	ret			

00005a7e <IPDispatchP__SendQueue__dequeue.part.218>:
    5a7e:	5f 42 bc 11 	mov.b	&0x11bc,r15	
    5a82:	5f 53       	inc.b	r15		
    5a84:	c2 4f bc 11 	mov.b	r15,	&0x11bc	
    5a88:	7f 90 0c 00 	cmp.b	#12,	r15	;#0x000c
    5a8c:	02 20       	jnz	$+6      	;abs 0x5a92
    5a8e:	c2 43 bc 11 	mov.b	#0,	&0x11bc	;r3 As==00
    5a92:	f2 53 b8 11 	add.b	#-1,	&0x11b8	;r3 As==11
    5a96:	30 41       	ret			

00005a98 <LinkControlProtocolP__PppOptions__set>:
    5a98:	0f 93       	tst	r15		
    5a9a:	08 24       	jz	$+18     	;abs 0x5aac
    5a9c:	3d 40 06 00 	mov	#6,	r13	;#0x0006
    5aa0:	0e 4f       	mov	r15,	r14	
    5aa2:	3f 40 74 11 	mov	#4468,	r15	;#0x1174
    5aa6:	b0 12 a0 ef 	call	#0xefa0	
    5aaa:	0a 3c       	jmp	$+22     	;abs 0x5ac0
    5aac:	c2 43 75 11 	mov.b	#0,	&0x1175	;r3 As==00
    5ab0:	c2 43 74 11 	mov.b	#0,	&0x1174	;r3 As==00
    5ab4:	b2 40 00 05 78 11 	mov	#1280,	&0x1178	;#0x0500
    5aba:	b2 40 00 05 76 11 	mov	#1280,	&0x1176	;#0x0500
    5ac0:	4f 43       	clr.b	r15		
    5ac2:	30 41       	ret			

00005ac4 <ArbiterP__0__ResourceConfigure__unconfigure.part.224>:
    5ac4:	b2 f0 ef ff 86 01 	and	#-17,	&0x0186	;#0xffef
    5aca:	d2 43 78 00 	mov.b	#1,	&0x0078	;r3 As==01
    5ace:	f2 f0 cf ff 01 00 	and.b	#-49,	&0x0001	;#0xffcf
    5ad4:	b0 12 9c 4c 	call	#0x4c9c	
    5ad8:	30 41       	ret			

00005ada <PppConfigureEngineP__1__PppProtocolOption__setLocal.isra.226>:
    5ada:	5f 93       	cmp.b	#1,	r15	;r3 As==01
    5adc:	0d 20       	jnz	$+28     	;abs 0x5af8
    5ade:	0e 93       	tst	r14		
    5ae0:	06 24       	jz	$+14     	;abs 0x5aee
    5ae2:	3d 42       	mov	#8,	r13	;r2 As==11
    5ae4:	3f 40 58 12 	mov	#4696,	r15	;#0x1258
    5ae8:	b0 12 a0 ef 	call	#0xefa0	
    5aec:	30 41       	ret			
    5aee:	3d 42       	mov	#8,	r13	;r2 As==11
    5af0:	3f 40 58 12 	mov	#4696,	r15	;#0x1258
    5af4:	b0 12 94 f1 	call	#0xf194	
    5af8:	30 41       	ret			

00005afa <PppConfigureEngineP__1__setOptions>:
    5afa:	0b 12       	push	r11		
    5afc:	0a 12       	push	r10		
    5afe:	09 12       	push	r9		
    5b00:	08 12       	push	r8		
    5b02:	07 12       	push	r7		
    5b04:	08 4e       	mov	r14,	r8	
    5b06:	4a 4d       	mov.b	r13,	r10	
    5b08:	49 4c       	mov.b	r12,	r9	
    5b0a:	0f 93       	tst	r15		
    5b0c:	3a 20       	jnz	$+118    	;abs 0x5b82
    5b0e:	10 3c       	jmp	$+34     	;abs 0x5b30
    5b10:	1b 53       	inc	r11		
    5b12:	49 93       	tst.b	r9		
    5b14:	04 24       	jz	$+10     	;abs 0x5b1e
    5b16:	0e 43       	clr	r14		
    5b18:	b0 12 da 5a 	call	#0x5ada	
    5b1c:	0b 3c       	jmp	$+24     	;abs 0x5b34
    5b1e:	5f 93       	cmp.b	#1,	r15	;r3 As==01
    5b20:	09 20       	jnz	$+20     	;abs 0x5b34
    5b22:	3d 42       	mov	#8,	r13	;r2 As==11
    5b24:	0e 43       	clr	r14		
    5b26:	3f 40 40 1c 	mov	#7232,	r15	;#0x1c40
    5b2a:	b0 12 a0 ef 	call	#0xefa0	
    5b2e:	02 3c       	jmp	$+6      	;abs 0x5b34
    5b30:	3b 40 ac 23 	mov	#9132,	r11	;#0x23ac
    5b34:	6f 4b       	mov.b	@r11,	r15	
    5b36:	4f 93       	tst.b	r15		
    5b38:	eb 23       	jnz	$-40     	;abs 0x5b10
    5b3a:	2b 3c       	jmp	$+88     	;abs 0x5b92
    5b3c:	57 4f 01 00 	mov.b	1(r15),	r7	;0x0001(r15)
    5b40:	67 83       	decd.b	r7		
    5b42:	df 93 00 00 	cmp.b	#1,	0(r15)	;r3 As==01, 0x0000(r15)
    5b46:	1b 20       	jnz	$+56     	;abs 0x5b7e
    5b48:	21 3c       	jmp	$+68     	;abs 0x5b8c
    5b4a:	7a 90 03 00 	cmp.b	#3,	r10	;#0x0003
    5b4e:	09 24       	jz	$+20     	;abs 0x5b62
    5b50:	6a 92       	cmp.b	#4,	r10	;r2 As==10
    5b52:	0c 24       	jz	$+26     	;abs 0x5b6c
    5b54:	6a 93       	cmp.b	#2,	r10	;r3 As==10
    5b56:	13 20       	jnz	$+40     	;abs 0x5b7e
    5b58:	0e 4b       	mov	r11,	r14	
    5b5a:	5f 43       	mov.b	#1,	r15	;r3 As==01
    5b5c:	b0 12 da 5a 	call	#0x5ada	
    5b60:	0e 3c       	jmp	$+30     	;abs 0x5b7e
    5b62:	3d 42       	mov	#8,	r13	;r2 As==11
    5b64:	0e 4b       	mov	r11,	r14	
    5b66:	3f 40 da 12 	mov	#4826,	r15	;#0x12da
    5b6a:	07 3c       	jmp	$+16     	;abs 0x5b7a
    5b6c:	c2 43 58 11 	mov.b	#0,	&0x1158	;r3 As==00
    5b70:	06 3c       	jmp	$+14     	;abs 0x5b7e
    5b72:	3d 42       	mov	#8,	r13	;r2 As==11
    5b74:	0e 4b       	mov	r11,	r14	
    5b76:	3f 40 40 1c 	mov	#7232,	r15	;#0x1c40
    5b7a:	b0 12 a0 ef 	call	#0xefa0	
    5b7e:	4f 47       	mov.b	r7,	r15	
    5b80:	0f 5b       	add	r11,	r15	
    5b82:	0b 4f       	mov	r15,	r11	
    5b84:	2b 53       	incd	r11		
    5b86:	08 9b       	cmp	r11,	r8	
    5b88:	d9 2f       	jc	$-76     	;abs 0x5b3c
    5b8a:	03 3c       	jmp	$+8      	;abs 0x5b92
    5b8c:	49 93       	tst.b	r9		
    5b8e:	dd 23       	jnz	$-68     	;abs 0x5b4a
    5b90:	f0 3f       	jmp	$-30     	;abs 0x5b72
    5b92:	37 41       	pop	r7		
    5b94:	38 41       	pop	r8		
    5b96:	39 41       	pop	r9		
    5b98:	3a 41       	pop	r10		
    5b9a:	3b 41       	pop	r11		
    5b9c:	30 41       	ret			

00005b9e <IPDispatchP__pack_address.isra.233>:
    5b9e:	0b 12       	push	r11		
    5ba0:	0a 12       	push	r10		
    5ba2:	09 12       	push	r9		
    5ba4:	08 12       	push	r8		
    5ba6:	07 12       	push	r7		
    5ba8:	0a 4f       	mov	r15,	r10	
    5baa:	0b 4e       	mov	r14,	r11	
    5bac:	07 4d       	mov	r13,	r7	
    5bae:	08 4c       	mov	r12,	r8	
    5bb0:	19 41 0c 00 	mov	12(r1),	r9	;0x000c(r1)
    5bb4:	c9 43 00 00 	mov.b	#0,	0(r9)	;r3 As==00, 0x0000(r9)
    5bb8:	2f 4e       	mov	@r14,	r15	
    5bba:	3f 90 fe 80 	cmp	#-32514,r15	;#0x80fe
    5bbe:	51 20       	jnz	$+164    	;abs 0x5c62
    5bc0:	8e 93 02 00 	tst	2(r14)		;0x0002(r14)
    5bc4:	4e 20       	jnz	$+158    	;abs 0x5c62
    5bc6:	8e 93 04 00 	tst	4(r14)		;0x0004(r14)
    5bca:	4b 20       	jnz	$+152    	;abs 0x5c62
    5bcc:	8e 93 06 00 	tst	6(r14)		;0x0006(r14)
    5bd0:	48 20       	jnz	$+146    	;abs 0x5c62
    5bd2:	8e 93 08 00 	tst	8(r14)		;0x0008(r14)
    5bd6:	11 20       	jnz	$+36     	;abs 0x5bfa
    5bd8:	8e 93 0a 00 	tst	10(r14)	;0x000a(r14)
    5bdc:	0e 20       	jnz	$+30     	;abs 0x5bfa
    5bde:	8e 93 0c 00 	tst	12(r14)	;0x000c(r14)
    5be2:	0b 20       	jnz	$+24     	;abs 0x5bfa
    5be4:	e9 43 00 00 	mov.b	#2,	0(r9)	;r3 As==10, 0x0000(r9)
    5be8:	3b 50 0e 00 	add	#14,	r11	;#0x000e
    5bec:	ea 4b 00 00 	mov.b	@r11,	0(r10)	;0x0000(r10)
    5bf0:	da 4b 01 00 01 00 	mov.b	1(r11),	1(r10)	;0x0001(r11), 0x0001(r10)
    5bf6:	2a 53       	incd	r10		
    5bf8:	a3 3c       	jmp	$+328    	;abs 0x5d40
    5bfa:	bb 90 00 ff 0a 00 	cmp	#-256,	10(r11)	;#0xff00, 0x000a(r11)
    5c00:	14 20       	jnz	$+42     	;abs 0x5c2a
    5c02:	bb 90 fe 00 0c 00 	cmp	#254,	12(r11)	;#0x00fe, 0x000c(r11)
    5c08:	10 20       	jnz	$+34     	;abs 0x5c2a
    5c0a:	6f 48       	mov.b	@r8,	r15	
    5c0c:	7f f0 03 00 	and.b	#3,	r15	;#0x0003
    5c10:	6f 93       	cmp.b	#2,	r15	;r3 As==10
    5c12:	0b 20       	jnz	$+24     	;abs 0x5c2a
    5c14:	1e 48 02 00 	mov	2(r8),	r14	;0x0002(r8)
    5c18:	0f 4e       	mov	r14,	r15	
    5c1a:	8f 10       	swpb	r15		
    5c1c:	4f 4f       	mov.b	r15,	r15	
    5c1e:	4e 4e       	mov.b	r14,	r14	
    5c20:	8e 10       	swpb	r14		
    5c22:	0f de       	bis	r14,	r15	
    5c24:	8b 9f 0e 00 	cmp	r15,	14(r11)	;0x000e(r11)
    5c28:	0e 24       	jz	$+30     	;abs 0x5c46
    5c2a:	6f 48       	mov.b	@r8,	r15	
    5c2c:	7f f0 03 00 	and.b	#3,	r15	;#0x0003
    5c30:	7f 90 03 00 	cmp.b	#3,	r15	;#0x0003
    5c34:	0c 20       	jnz	$+26     	;abs 0x5c4e
    5c36:	0e 48       	mov	r8,	r14	
    5c38:	2e 53       	incd	r14		
    5c3a:	0f 4b       	mov	r11,	r15	
    5c3c:	3f 52       	add	#8,	r15	;r2 As==11
    5c3e:	b0 12 44 4b 	call	#0x4b44	
    5c42:	0f 93       	tst	r15		
    5c44:	04 24       	jz	$+10     	;abs 0x5c4e
    5c46:	f9 40 03 00 00 00 	mov.b	#3,	0(r9)	;#0x0003, 0x0000(r9)
    5c4c:	79 3c       	jmp	$+244    	;abs 0x5d40
    5c4e:	d9 43 00 00 	mov.b	#1,	0(r9)	;r3 As==01, 0x0000(r9)
    5c52:	3d 42       	mov	#8,	r13	;r2 As==11
    5c54:	0e 4b       	mov	r11,	r14	
    5c56:	3e 52       	add	#8,	r14	;r2 As==11
    5c58:	0f 4a       	mov	r10,	r15	
    5c5a:	b0 12 a0 ef 	call	#0xefa0	
    5c5e:	3a 52       	add	#8,	r10	;r2 As==11
    5c60:	6f 3c       	jmp	$+224    	;abs 0x5d40
    5c62:	17 93       	cmp	#1,	r7	;r3 As==01
    5c64:	4b 38       	jl	$+152    	;abs 0x5cfc
    5c66:	e9 42 00 00 	mov.b	#4,	0(r9)	;r2 As==10, 0x0000(r9)
    5c6a:	37 90 80 00 	cmp	#128,	r7	;#0x0080
    5c6e:	2a 24       	jz	$+86     	;abs 0x5cc4
    5c70:	3d 40 70 00 	mov	#112,	r13	;#0x0070
    5c74:	0e 47       	mov	r7,	r14	
    5c76:	0f 4b       	mov	r11,	r15	
    5c78:	b0 12 94 4b 	call	#0x4b94	
    5c7c:	0f 93       	tst	r15		
    5c7e:	0c 20       	jnz	$+26     	;abs 0x5c98
    5c80:	f9 40 06 00 00 00 	mov.b	#6,	0(r9)	;#0x0006, 0x0000(r9)
    5c86:	3b 50 0e 00 	add	#14,	r11	;#0x000e
    5c8a:	ea 4b 00 00 	mov.b	@r11,	0(r10)	;0x0000(r10)
    5c8e:	da 4b 01 00 01 00 	mov.b	1(r11),	1(r10)	;0x0001(r11), 0x0001(r10)
    5c94:	2f 43       	mov	#2,	r15	;r3 As==10
    5c96:	30 3c       	jmp	$+98     	;abs 0x5cf8
    5c98:	3d 40 40 00 	mov	#64,	r13	;#0x0040
    5c9c:	0e 47       	mov	r7,	r14	
    5c9e:	0f 4b       	mov	r11,	r15	
    5ca0:	b0 12 94 4b 	call	#0x4b94	
    5ca4:	0f 93       	tst	r15		
    5ca6:	1e 20       	jnz	$+62     	;abs 0x5ce4
    5ca8:	6f 48       	mov.b	@r8,	r15	
    5caa:	7f f0 03 00 	and.b	#3,	r15	;#0x0003
    5cae:	7f 90 03 00 	cmp.b	#3,	r15	;#0x0003
    5cb2:	0d 20       	jnz	$+28     	;abs 0x5cce
    5cb4:	0e 48       	mov	r8,	r14	
    5cb6:	2e 53       	incd	r14		
    5cb8:	0f 4b       	mov	r11,	r15	
    5cba:	3f 52       	add	#8,	r15	;r2 As==11
    5cbc:	b0 12 44 4b 	call	#0x4b44	
    5cc0:	0f 93       	tst	r15		
    5cc2:	05 24       	jz	$+12     	;abs 0x5cce
    5cc4:	f9 40 07 00 00 00 	mov.b	#7,	0(r9)	;#0x0007, 0x0000(r9)
    5cca:	0f 43       	clr	r15		
    5ccc:	15 3c       	jmp	$+44     	;abs 0x5cf8
    5cce:	f9 40 05 00 00 00 	mov.b	#5,	0(r9)	;#0x0005, 0x0000(r9)
    5cd4:	3d 42       	mov	#8,	r13	;r2 As==11
    5cd6:	0e 4b       	mov	r11,	r14	
    5cd8:	3e 52       	add	#8,	r14	;r2 As==11
    5cda:	0f 4a       	mov	r10,	r15	
    5cdc:	b0 12 a0 ef 	call	#0xefa0	
    5ce0:	3f 42       	mov	#8,	r15	;r2 As==11
    5ce2:	0a 3c       	jmp	$+22     	;abs 0x5cf8
    5ce4:	c9 43 00 00 	mov.b	#0,	0(r9)	;r3 As==00, 0x0000(r9)
    5ce8:	3d 40 10 00 	mov	#16,	r13	;#0x0010
    5cec:	0e 4b       	mov	r11,	r14	
    5cee:	0f 4a       	mov	r10,	r15	
    5cf0:	b0 12 a0 ef 	call	#0xefa0	
    5cf4:	3f 40 10 00 	mov	#16,	r15	;#0x0010
    5cf8:	0a 5f       	add	r15,	r10	
    5cfa:	22 3c       	jmp	$+70     	;abs 0x5d40
    5cfc:	0f 93       	tst	r15		
    5cfe:	18 20       	jnz	$+50     	;abs 0x5d30
    5d00:	8b 93 02 00 	tst	2(r11)		;0x0002(r11)
    5d04:	15 20       	jnz	$+44     	;abs 0x5d30
    5d06:	8b 93 04 00 	tst	4(r11)		;0x0004(r11)
    5d0a:	12 20       	jnz	$+38     	;abs 0x5d30
    5d0c:	8b 93 06 00 	tst	6(r11)		;0x0006(r11)
    5d10:	0f 20       	jnz	$+32     	;abs 0x5d30
    5d12:	8b 93 08 00 	tst	8(r11)		;0x0008(r11)
    5d16:	0c 20       	jnz	$+26     	;abs 0x5d30
    5d18:	8b 93 0a 00 	tst	10(r11)	;0x000a(r11)
    5d1c:	09 20       	jnz	$+20     	;abs 0x5d30
    5d1e:	8b 93 0c 00 	tst	12(r11)	;0x000c(r11)
    5d22:	06 20       	jnz	$+14     	;abs 0x5d30
    5d24:	8b 93 0e 00 	tst	14(r11)	;0x000e(r11)
    5d28:	03 20       	jnz	$+8      	;abs 0x5d30
    5d2a:	e9 42 00 00 	mov.b	#4,	0(r9)	;r2 As==10, 0x0000(r9)
    5d2e:	08 3c       	jmp	$+18     	;abs 0x5d40
    5d30:	3d 40 10 00 	mov	#16,	r13	;#0x0010
    5d34:	0e 4b       	mov	r11,	r14	
    5d36:	0f 4a       	mov	r10,	r15	
    5d38:	b0 12 a0 ef 	call	#0xefa0	
    5d3c:	3a 50 10 00 	add	#16,	r10	;#0x0010
    5d40:	0f 4a       	mov	r10,	r15	
    5d42:	37 41       	pop	r7		
    5d44:	38 41       	pop	r8		
    5d46:	39 41       	pop	r9		
    5d48:	3a 41       	pop	r10		
    5d4a:	3b 41       	pop	r11		
    5d4c:	30 41       	ret			

00005d4e <IPDispatchP__pack_ieee154_header.isra.234>:
    5d4e:	0b 12       	push	r11		
    5d50:	0a 12       	push	r10		
    5d52:	09 12       	push	r9		
    5d54:	21 83       	decd	r1		
    5d56:	0a 4f       	mov	r15,	r10	
    5d58:	0b 4e       	mov	r14,	r11	
    5d5a:	3f 50 06 00 	add	#6,	r15	;#0x0006
    5d5e:	5e 4e 0a 00 	mov.b	10(r14),r14	;0x000a(r14)
    5d62:	7e f0 03 00 	and.b	#3,	r14	;#0x0003
    5d66:	6e 93       	cmp.b	#2,	r14	;r3 As==10
    5d68:	0b 20       	jnz	$+24     	;abs 0x5d80
    5d6a:	91 4b 0c 00 00 00 	mov	12(r11),0(r1)	;0x000c(r11), 0x0000(r1)
    5d70:	ef 41 00 00 	mov.b	@r1,	0(r15)	;0x0000(r15)
    5d74:	df 41 01 00 01 00 	mov.b	1(r1),	1(r15)	;0x0001(r1), 0x0001(r15)
    5d7a:	09 4a       	mov	r10,	r9	
    5d7c:	39 52       	add	#8,	r9	;r2 As==11
    5d7e:	09 3c       	jmp	$+20     	;abs 0x5d92
    5d80:	3d 42       	mov	#8,	r13	;r2 As==11
    5d82:	0e 4b       	mov	r11,	r14	
    5d84:	3e 50 0c 00 	add	#12,	r14	;#0x000c
    5d88:	b0 12 a0 ef 	call	#0xefa0	
    5d8c:	09 4a       	mov	r10,	r9	
    5d8e:	39 50 0e 00 	add	#14,	r9	;#0x000e
    5d92:	6f 4b       	mov.b	@r11,	r15	
    5d94:	7f f0 03 00 	and.b	#3,	r15	;#0x0003
    5d98:	6f 93       	cmp.b	#2,	r15	;r3 As==10
    5d9a:	0b 20       	jnz	$+24     	;abs 0x5db2
    5d9c:	91 4b 02 00 00 00 	mov	2(r11),	0(r1)	;0x0002(r11), 0x0000(r1)
    5da2:	e9 41 00 00 	mov.b	@r1,	0(r9)	;0x0000(r9)
    5da6:	d9 41 01 00 01 00 	mov.b	1(r1),	1(r9)	;0x0001(r1), 0x0001(r9)
    5dac:	0f 49       	mov	r9,	r15	
    5dae:	2f 53       	incd	r15		
    5db0:	08 3c       	jmp	$+18     	;abs 0x5dc2
    5db2:	3d 42       	mov	#8,	r13	;r2 As==11
    5db4:	0e 4b       	mov	r11,	r14	
    5db6:	2e 53       	incd	r14		
    5db8:	0f 49       	mov	r9,	r15	
    5dba:	b0 12 a0 ef 	call	#0xefa0	
    5dbe:	0f 49       	mov	r9,	r15	
    5dc0:	3f 52       	add	#8,	r15	;r2 As==11
    5dc2:	6d 4b       	mov.b	@r11,	r13	
    5dc4:	3d f0 03 00 	and	#3,	r13	;#0x0003
    5dc8:	8d 10       	swpb	r13		
    5dca:	7e 40 06 00 	mov.b	#6,	r14	;#0x0006
    5dce:	0d 5d       	rla	r13		
    5dd0:	7e 53       	add.b	#-1,	r14	;r3 As==11
    5dd2:	fd 23       	jnz	$-4      	;abs 0x5dce
    5dd4:	5e 4b 0a 00 	mov.b	10(r11),r14	;0x000a(r11)
    5dd8:	3e f0 03 00 	and	#3,	r14	;#0x0003
    5ddc:	8e 10       	swpb	r14		
    5dde:	0e 5e       	rla	r14		
    5de0:	0e 5e       	rla	r14		
    5de2:	0e dd       	bis	r13,	r14	
    5de4:	fa 40 41 00 01 00 	mov.b	#65,	1(r10)	;#0x0041, 0x0001(r10)
    5dea:	3e d0 41 00 	bis	#65,	r14	;#0x0041
    5dee:	8e 10       	swpb	r14		
    5df0:	ca 4e 02 00 	mov.b	r14,	2(r10)	;0x0002(r10)
    5df4:	da 4b 14 00 04 00 	mov.b	20(r11),4(r10)	;0x0014(r11), 0x0004(r10)
    5dfa:	1e 4b 14 00 	mov	20(r11),r14	;0x0014(r11)
    5dfe:	8e 10       	swpb	r14		
    5e00:	ca 4e 05 00 	mov.b	r14,	5(r10)	;0x0005(r10)
    5e04:	21 53       	incd	r1		
    5e06:	39 41       	pop	r9		
    5e08:	3a 41       	pop	r10		
    5e0a:	3b 41       	pop	r11		
    5e0c:	30 41       	ret			

00005e0e <IPDispatchP__unpack_address.isra.236>:
    5e0e:	0b 12       	push	r11		
    5e10:	0a 12       	push	r10		
    5e12:	09 12       	push	r9		
    5e14:	08 12       	push	r8		
    5e16:	07 12       	push	r7		
    5e18:	06 12       	push	r6		
    5e1a:	31 50 f0 ff 	add	#-16,	r1	;#0xfff0
    5e1e:	0b 4f       	mov	r15,	r11	
    5e20:	47 4e       	mov.b	r14,	r7	
    5e22:	06 4d       	mov	r13,	r6	
    5e24:	0a 4c       	mov	r12,	r10	
    5e26:	19 41 1e 00 	mov	30(r1),	r9	;0x001e(r1)
    5e2a:	18 41 20 00 	mov	32(r1),	r8	;0x0020(r1)
    5e2e:	3d 40 10 00 	mov	#16,	r13	;#0x0010
    5e32:	0e 43       	clr	r14		
    5e34:	b0 12 94 f1 	call	#0xf194	
    5e38:	47 47       	mov.b	r7,	r7	
    5e3a:	0f 47       	mov	r7,	r15	
    5e3c:	2f f2       	and	#4,	r15	;r2 As==10
    5e3e:	37 f0 03 00 	and	#3,	r7	;#0x0003
    5e42:	0f 93       	tst	r15		
    5e44:	3f 20       	jnz	$+128    	;abs 0x5ec4
    5e46:	17 93       	cmp	#1,	r7	;r3 As==01
    5e48:	15 24       	jz	$+44     	;abs 0x5e74
    5e4a:	27 93       	cmp	#2,	r7	;r3 As==10
    5e4c:	1a 24       	jz	$+54     	;abs 0x5e82
    5e4e:	07 93       	tst	r7		
    5e50:	1f 20       	jnz	$+64     	;abs 0x5e90
    5e52:	b9 90 10 00 00 00 	cmp	#16,	0(r9)	;#0x0010, 0x0000(r9)
    5e58:	8f 28       	jnc	$+288    	;abs 0x5f78
    5e5a:	3d 40 10 00 	mov	#16,	r13	;#0x0010
    5e5e:	2e 4a       	mov	@r10,	r14	
    5e60:	0f 4b       	mov	r11,	r15	
    5e62:	b0 12 a0 ef 	call	#0xefa0	
    5e66:	ba 50 10 00 00 00 	add	#16,	0(r10)	;#0x0010, 0x0000(r10)
    5e6c:	b9 50 f0 ff 00 00 	add	#-16,	0(r9)	;#0xfff0, 0x0000(r9)
    5e72:	80 3c       	jmp	$+258    	;abs 0x5f74
    5e74:	b9 92 00 00 	cmp	#8,	0(r9)	;r2 As==11, 0x0000(r9)
    5e78:	7f 28       	jnc	$+256    	;abs 0x5f78
    5e7a:	bb 40 fe 80 00 00 	mov	#-32514,0(r11)	;#0x80fe, 0x0000(r11)
    5e80:	3b 3c       	jmp	$+120    	;abs 0x5ef8
    5e82:	a9 93 00 00 	cmp	#2,	0(r9)	;r3 As==10, 0x0000(r9)
    5e86:	78 28       	jnc	$+242    	;abs 0x5f78
    5e88:	bb 40 fe 80 00 00 	mov	#-32514,0(r11)	;#0x80fe, 0x0000(r11)
    5e8e:	42 3c       	jmp	$+134    	;abs 0x5f14
    5e90:	bb 40 fe 80 00 00 	mov	#-32514,0(r11)	;#0x80fe, 0x0000(r11)
    5e96:	6f 48       	mov.b	@r8,	r15	
    5e98:	7f f0 03 00 	and.b	#3,	r15	;#0x0003
    5e9c:	7f 90 03 00 	cmp.b	#3,	r15	;#0x0003
    5ea0:	0b 20       	jnz	$+24     	;abs 0x5eb8
    5ea2:	0f 43       	clr	r15		
    5ea4:	0e 4b       	mov	r11,	r14	
    5ea6:	0e 5f       	add	r15,	r14	
    5ea8:	de 48 09 00 08 00 	mov.b	9(r8),	8(r14)	;0x0009(r8), 0x0008(r14)
    5eae:	1f 53       	inc	r15		
    5eb0:	38 53       	add	#-1,	r8	;r3 As==11
    5eb2:	3f 92       	cmp	#8,	r15	;r2 As==11
    5eb4:	f7 23       	jnz	$-16     	;abs 0x5ea4
    5eb6:	4b 3c       	jmp	$+152    	;abs 0x5f4e
    5eb8:	fb 43 0b 00 	mov.b	#-1,	11(r11)	;r3 As==11, 0x000b(r11)
    5ebc:	fb 40 fe ff 0c 00 	mov.b	#-2,	12(r11)	;#0xfffe, 0x000c(r11)
    5ec2:	4e 3c       	jmp	$+158    	;abs 0x5f60
    5ec4:	07 93       	tst	r7		
    5ec6:	56 24       	jz	$+174    	;abs 0x5f74
    5ec8:	0f 41       	mov	r1,	r15	
    5eca:	b0 12 3a 48 	call	#0x483a	
    5ece:	4f 93       	tst.b	r15		
    5ed0:	07 24       	jz	$+16     	;abs 0x5ee0
    5ed2:	46 93       	tst.b	r6		
    5ed4:	05 20       	jnz	$+12     	;abs 0x5ee0
    5ed6:	3d 42       	mov	#8,	r13	;r2 As==11
    5ed8:	0e 41       	mov	r1,	r14	
    5eda:	0f 4b       	mov	r11,	r15	
    5edc:	b0 12 a0 ef 	call	#0xefa0	
    5ee0:	1f 41 22 00 	mov	34(r1),	r15	;0x0022(r1)
    5ee4:	df 43 00 00 	mov.b	#1,	0(r15)	;r3 As==01, 0x0000(r15)
    5ee8:	27 93       	cmp	#2,	r7	;r3 As==10
    5eea:	11 24       	jz	$+36     	;abs 0x5f0e
    5eec:	37 90 03 00 	cmp	#3,	r7	;#0x0003
    5ef0:	1e 24       	jz	$+62     	;abs 0x5f2e
    5ef2:	b9 92 00 00 	cmp	#8,	0(r9)	;r2 As==11, 0x0000(r9)
    5ef6:	40 28       	jnc	$+130    	;abs 0x5f78
    5ef8:	3d 42       	mov	#8,	r13	;r2 As==11
    5efa:	2e 4a       	mov	@r10,	r14	
    5efc:	0f 4b       	mov	r11,	r15	
    5efe:	3f 52       	add	#8,	r15	;r2 As==11
    5f00:	b0 12 a0 ef 	call	#0xefa0	
    5f04:	ba 52 00 00 	add	#8,	0(r10)	;r2 As==11, 0x0000(r10)
    5f08:	b9 82 00 00 	sub	#8,	0(r9)	;r2 As==11, 0x0000(r9)
    5f0c:	33 3c       	jmp	$+104    	;abs 0x5f74
    5f0e:	a9 93 00 00 	cmp	#2,	0(r9)	;r3 As==10, 0x0000(r9)
    5f12:	32 28       	jnc	$+102    	;abs 0x5f78
    5f14:	3b 50 0e 00 	add	#14,	r11	;#0x000e
    5f18:	2f 4a       	mov	@r10,	r15	
    5f1a:	eb 4f 00 00 	mov.b	@r15,	0(r11)	;0x0000(r11)
    5f1e:	db 4f 01 00 01 00 	mov.b	1(r15),	1(r11)	;0x0001(r15), 0x0001(r11)
    5f24:	aa 53 00 00 	incd	0(r10)		;0x0000(r10)
    5f28:	a9 83 00 00 	decd	0(r9)		;0x0000(r9)
    5f2c:	23 3c       	jmp	$+72     	;abs 0x5f74
    5f2e:	6f 48       	mov.b	@r8,	r15	
    5f30:	7f f0 03 00 	and.b	#3,	r15	;#0x0003
    5f34:	7f 90 03 00 	cmp.b	#3,	r15	;#0x0003
    5f38:	0d 20       	jnz	$+28     	;abs 0x5f54
    5f3a:	0f 43       	clr	r15		
    5f3c:	0e 4b       	mov	r11,	r14	
    5f3e:	0e 5f       	add	r15,	r14	
    5f40:	de 48 09 00 08 00 	mov.b	9(r8),	8(r14)	;0x0009(r8), 0x0008(r14)
    5f46:	1f 53       	inc	r15		
    5f48:	38 53       	add	#-1,	r8	;r3 As==11
    5f4a:	3f 92       	cmp	#8,	r15	;r2 As==11
    5f4c:	f7 23       	jnz	$-16     	;abs 0x5f3c
    5f4e:	eb e3 08 00 	xor.b	#2,	8(r11)	;r3 As==10, 0x0008(r11)
    5f52:	10 3c       	jmp	$+34     	;abs 0x5f74
    5f54:	3d 42       	mov	#8,	r13	;r2 As==11
    5f56:	0e 43       	clr	r14		
    5f58:	0f 4b       	mov	r11,	r15	
    5f5a:	3f 52       	add	#8,	r15	;r2 As==11
    5f5c:	b0 12 94 f1 	call	#0xf194	
    5f60:	1e 48 02 00 	mov	2(r8),	r14	;0x0002(r8)
    5f64:	0f 4e       	mov	r14,	r15	
    5f66:	8f 10       	swpb	r15		
    5f68:	4f 4f       	mov.b	r15,	r15	
    5f6a:	4e 4e       	mov.b	r14,	r14	
    5f6c:	8e 10       	swpb	r14		
    5f6e:	0e df       	bis	r15,	r14	
    5f70:	8b 4e 0e 00 	mov	r14,	14(r11)	;0x000e(r11)
    5f74:	0f 43       	clr	r15		
    5f76:	01 3c       	jmp	$+4      	;abs 0x5f7a
    5f78:	3f 43       	mov	#-1,	r15	;r3 As==11
    5f7a:	31 50 10 00 	add	#16,	r1	;#0x0010
    5f7e:	36 41       	pop	r6		
    5f80:	37 41       	pop	r7		
    5f82:	38 41       	pop	r8		
    5f84:	39 41       	pop	r9		
    5f86:	3a 41       	pop	r10		
    5f88:	3b 41       	pop	r11		
    5f8a:	30 41       	ret			

00005f8c <IPDispatchP__lowpan_recon_start>:
    5f8c:	0b 12       	push	r11		
    5f8e:	0a 12       	push	r10		
    5f90:	09 12       	push	r9		
    5f92:	08 12       	push	r8		
    5f94:	07 12       	push	r7		
    5f96:	06 12       	push	r6		
    5f98:	05 12       	push	r5		
    5f9a:	04 12       	push	r4		
    5f9c:	04 41       	mov	r1,	r4	
    5f9e:	34 50 10 00 	add	#16,	r4	;#0x0010
    5fa2:	31 50 da ff 	add	#-38,	r1	;#0xffda
    5fa6:	84 4f ec ff 	mov	r15,	-20(r4)	;0xffec(r4)
    5faa:	84 4e e0 ff 	mov	r14,	-32(r4)	;0xffe0(r4)
    5fae:	0b 4d       	mov	r13,	r11	
    5fb0:	84 4c de ff 	mov	r12,	-34(r4)	;0xffde(r4)
    5fb4:	c4 43 ca ff 	mov.b	#0,	-54(r4)	;r3 As==00, 0xffca(r4)
    5fb8:	84 4d d0 ff 	mov	r13,	-48(r4)	;0xffd0(r4)
    5fbc:	06 4c       	mov	r12,	r6	
    5fbe:	c4 4c cf ff 	mov.b	r12,	-49(r4)	;0xffcf(r4)
    5fc2:	0f 44       	mov	r4,	r15	
    5fc4:	3f 50 ce ff 	add	#-50,	r15	;#0xffce
    5fc8:	b0 12 c0 49 	call	#0x49c0	
    5fcc:	45 4f       	mov.b	r15,	r5	
    5fce:	c4 4f ce ff 	mov.b	r15,	-50(r4)	;0xffce(r4)
    5fd2:	75 90 10 00 	cmp.b	#16,	r5	;#0x0010
    5fd6:	02 20       	jnz	$+6      	;abs 0x5fdc
    5fd8:	30 40 28 69 	br	#0x6928	
    5fdc:	0f 44       	mov	r4,	r15	
    5fde:	3f 50 ce ff 	add	#-50,	r15	;#0xffce
    5fe2:	b0 12 a2 49 	call	#0x49a2	
    5fe6:	84 4f cc ff 	mov	r15,	-52(r4)	;0xffcc(r4)
    5fea:	08 4b       	mov	r11,	r8	
    5fec:	8b 10       	swpb	r11		
    5fee:	8b 11       	sxt	r11		
    5ff0:	8b 10       	swpb	r11		
    5ff2:	8b 11       	sxt	r11		
    5ff4:	09 4b       	mov	r11,	r9	
    5ff6:	0a 4f       	mov	r15,	r10	
    5ff8:	0d 4f       	mov	r15,	r13	
    5ffa:	8d 10       	swpb	r13		
    5ffc:	8d 11       	sxt	r13		
    5ffe:	8d 10       	swpb	r13		
    6000:	8d 11       	sxt	r13		
    6002:	0b 4d       	mov	r13,	r11	
    6004:	08 8a       	sub	r10,	r8	
    6006:	09 7b       	subc	r11,	r9	
    6008:	08 56       	add	r6,	r8	
    600a:	84 48 de ff 	mov	r8,	-34(r4)	;0xffde(r4)
    600e:	02 20       	jnz	$+6      	;abs 0x6014
    6010:	30 40 2c 69 	br	#0x692c	
    6014:	65 f2       	and.b	#4,	r5	;r2 As==10
    6016:	29 24       	jz	$+84     	;abs 0x606a
    6018:	1e 44 e0 ff 	mov	-32(r4),r14	;0xffe0(r4)
    601c:	0f 44       	mov	r4,	r15	
    601e:	3f 50 ce ff 	add	#-50,	r15	;#0xffce
    6022:	b0 12 30 4a 	call	#0x4a30	
    6026:	1c 44 d0 ff 	mov	-48(r4),r12	;0xffd0(r4)
    602a:	0c 93       	tst	r12		
    602c:	23 24       	jz	$+72     	;abs 0x6074
    602e:	b4 90 fc ff e0 ff 	cmp	#-4,	-32(r4)	;#0xfffc, 0xffe0(r4)
    6034:	1f 24       	jz	$+64     	;abs 0x6074
    6036:	6b 4c       	mov.b	@r12,	r11	
    6038:	4d 4b       	mov.b	r11,	r13	
    603a:	12 c3       	clrc			
    603c:	4d 10       	rrc.b	r13		
    603e:	12 c3       	clrc			
    6040:	4d 10       	rrc.b	r13		
    6042:	12 c3       	clrc			
    6044:	4d 10       	rrc.b	r13		
    6046:	7d 90 18 00 	cmp.b	#24,	r13	;#0x0018
    604a:	03 24       	jz	$+8      	;abs 0x6052
    604c:	7d 90 1c 00 	cmp.b	#28,	r13	;#0x001c
    6050:	11 20       	jnz	$+36     	;abs 0x6074
    6052:	0d 4b       	mov	r11,	r13	
    6054:	3d f0 07 00 	and	#7,	r13	;#0x0007
    6058:	8d 10       	swpb	r13		
    605a:	5c 4c 01 00 	mov.b	1(r12),	r12	;0x0001(r12)
    605e:	0d dc       	bis	r12,	r13	
    6060:	1e 44 e0 ff 	mov	-32(r4),r14	;0xffe0(r4)
    6064:	8e 4d 04 00 	mov	r13,	4(r14)	;0x0004(r14)
    6068:	05 3c       	jmp	$+12     	;abs 0x6074
    606a:	1f 44 e0 ff 	mov	-32(r4),r15	;0xffe0(r4)
    606e:	bf 40 d1 00 04 00 	mov	#209,	4(r15)	;#0x00d1, 0x0004(r15)
    6074:	1e 44 e0 ff 	mov	-32(r4),r14	;0xffe0(r4)
    6078:	1f 4e 04 00 	mov	4(r14),	r15	;0x0004(r14)
    607c:	b0 12 00 e9 	call	#0xe900	
    6080:	1e 44 e0 ff 	mov	-32(r4),r14	;0xffe0(r4)
    6084:	8e 4f 06 00 	mov	r15,	6(r14)	;0x0006(r14)
    6088:	0f 93       	tst	r15		
    608a:	02 20       	jnz	$+6      	;abs 0x6090
    608c:	30 40 32 69 	br	#0x6932	
    6090:	1d 4e 04 00 	mov	4(r14),	r13	;0x0004(r14)
    6094:	0e 43       	clr	r14		
    6096:	b0 12 94 f1 	call	#0xf194	
    609a:	1f 44 e0 ff 	mov	-32(r4),r15	;0xffe0(r4)
    609e:	8f 43 0c 00 	mov	#0,	12(r15)	;r3 As==00, 0x000c(r15)
    60a2:	1a 44 de ff 	mov	-34(r4),r10	;0xffde(r4)
    60a6:	94 4f 06 00 e2 ff 	mov	6(r15),	-30(r4)	;0x0006(r15), 0xffe2(r4)
    60ac:	0a 93       	tst	r10		
    60ae:	08 20       	jnz	$+18     	;abs 0x60c0
    60b0:	1f 44 e2 ff 	mov	-30(r4),r15	;0xffe2(r4)
    60b4:	b0 12 ac e9 	call	#0xe9ac	
    60b8:	3f 40 fb ff 	mov	#-5,	r15	;#0xfffb
    60bc:	30 40 3a 69 	br	#0x693a	
    60c0:	1b 44 cc ff 	mov	-52(r4),r11	;0xffcc(r4)
    60c4:	fb 90 41 00 00 00 	cmp.b	#65,	0(r11)	;#0x0041, 0x0000(r11)
    60ca:	28 20       	jnz	$+82     	;abs 0x611c
    60cc:	1b 53       	inc	r11		
    60ce:	84 4b cc ff 	mov	r11,	-52(r4)	;0xffcc(r4)
    60d2:	0d 4a       	mov	r10,	r13	
    60d4:	3d 53       	add	#-1,	r13	;r3 As==11
    60d6:	84 4d de ff 	mov	r13,	-34(r4)	;0xffde(r4)
    60da:	3d 90 28 00 	cmp	#40,	r13	;#0x0028
    60de:	08 2c       	jc	$+18     	;abs 0x60f0
    60e0:	1f 44 e2 ff 	mov	-30(r4),r15	;0xffe2(r4)
    60e4:	b0 12 ac e9 	call	#0xe9ac	
    60e8:	3f 40 f9 ff 	mov	#-7,	r15	;#0xfff9
    60ec:	30 40 3a 69 	br	#0x693a	
    60f0:	1e 44 e0 ff 	mov	-32(r4),r14	;0xffe0(r4)
    60f4:	8e 9d 04 00 	cmp	r13,	4(r14)	;0x0004(r14)
    60f8:	08 2c       	jc	$+18     	;abs 0x610a
    60fa:	1f 44 e2 ff 	mov	-30(r4),r15	;0xffe2(r4)
    60fe:	b0 12 ac e9 	call	#0xe9ac	
    6102:	3f 40 fa ff 	mov	#-6,	r15	;#0xfffa
    6106:	30 40 3a 69 	br	#0x693a	
    610a:	0e 4b       	mov	r11,	r14	
    610c:	1f 44 e2 ff 	mov	-30(r4),r15	;0xffe2(r4)
    6110:	b0 12 a0 ef 	call	#0xefa0	
    6114:	1a 44 de ff 	mov	-34(r4),r10	;0xffde(r4)
    6118:	30 40 2a 68 	br	#0x682a	
    611c:	1f 44 e0 ff 	mov	-32(r4),r15	;0xffe0(r4)
    6120:	94 4f 04 00 e8 ff 	mov	4(r15),	-24(r4)	;0x0004(r15), 0xffe8(r4)
    6126:	c4 43 ca ff 	mov.b	#0,	-54(r4)	;r3 As==00, 0xffca(r4)
    612a:	2a 93       	cmp	#2,	r10	;r3 As==10
    612c:	02 2c       	jc	$+6      	;abs 0x6132
    612e:	30 40 18 68 	br	#0x6818	
    6132:	69 4b       	mov.b	@r11,	r9	
    6134:	d4 4b 01 00 e4 ff 	mov.b	1(r11),	-28(r4)	;0x0001(r11), 0xffe4(r4)
    613a:	0e 4b       	mov	r11,	r14	
    613c:	2e 53       	incd	r14		
    613e:	84 4e cc ff 	mov	r14,	-52(r4)	;0xffcc(r4)
    6142:	0d 4a       	mov	r10,	r13	
    6144:	2d 83       	decd	r13		
    6146:	84 4d de ff 	mov	r13,	-34(r4)	;0xffde(r4)
    614a:	b4 90 28 00 e8 ff 	cmp	#40,	-24(r4)	;#0x0028, 0xffe8(r4)
    6150:	02 2c       	jc	$+6      	;abs 0x6156
    6152:	30 40 18 68 	br	#0x6818	
    6156:	49 49       	mov.b	r9,	r9	
    6158:	84 49 e6 ff 	mov	r9,	-26(r4)	;0xffe6(r4)
    615c:	39 f0 e0 00 	and	#224,	r9	;#0x00e0
    6160:	39 90 60 00 	cmp	#96,	r9	;#0x0060
    6164:	02 24       	jz	$+6      	;abs 0x616a
    6166:	30 40 18 68 	br	#0x6818	
    616a:	c4 93 e4 ff 	tst.b	-28(r4)	;0xffe4(r4)
    616e:	20 34       	jge	$+66     	;abs 0x61b0
    6170:	0d 93       	tst	r13		
    6172:	02 20       	jnz	$+6      	;abs 0x6178
    6174:	30 40 18 68 	br	#0x6818	
    6178:	58 4b 02 00 	mov.b	2(r11),	r8	;0x0002(r11)
    617c:	4c 48       	mov.b	r8,	r12	
    617e:	12 c3       	clrc			
    6180:	4c 10       	rrc.b	r12		
    6182:	12 c3       	clrc			
    6184:	4c 10       	rrc.b	r12		
    6186:	12 c3       	clrc			
    6188:	4c 10       	rrc.b	r12		
    618a:	12 c3       	clrc			
    618c:	4c 10       	rrc.b	r12		
    618e:	0d 4c       	mov	r12,	r13	
    6190:	3d f0 0f 00 	and	#15,	r13	;#0x000f
    6194:	0f 48       	mov	r8,	r15	
    6196:	3f f0 0f 00 	and	#15,	r15	;#0x000f
    619a:	84 4f ea ff 	mov	r15,	-22(r4)	;0xffea(r4)
    619e:	3b 50 03 00 	add	#3,	r11	;#0x0003
    61a2:	84 4b cc ff 	mov	r11,	-52(r4)	;0xffcc(r4)
    61a6:	3a 50 fd ff 	add	#-3,	r10	;#0xfffd
    61aa:	84 4a de ff 	mov	r10,	-34(r4)	;0xffde(r4)
    61ae:	03 3c       	jmp	$+8      	;abs 0x61b6
    61b0:	84 43 ea ff 	mov	#0,	-22(r4)	;r3 As==00, 0xffea(r4)
    61b4:	0d 43       	clr	r13		
    61b6:	19 44 e6 ff 	mov	-26(r4),r9	;0xffe6(r4)
    61ba:	39 f0 18 00 	and	#24,	r9	;#0x0018
    61be:	39 92       	cmp	#8,	r9	;r2 As==11
    61c0:	24 24       	jz	$+74     	;abs 0x620a
    61c2:	39 90 10 00 	cmp	#16,	r9	;#0x0010
    61c6:	03 24       	jz	$+8      	;abs 0x61ce
    61c8:	09 93       	tst	r9		
    61ca:	3e 24       	jz	$+126    	;abs 0x6248
    61cc:	60 3c       	jmp	$+194    	;abs 0x628e
    61ce:	1f 44 de ff 	mov	-34(r4),r15	;0xffde(r4)
    61d2:	0f 93       	tst	r15		
    61d4:	02 20       	jnz	$+6      	;abs 0x61da
    61d6:	30 40 18 68 	br	#0x6818	
    61da:	15 44 cc ff 	mov	-52(r4),r5	;0xffcc(r4)
    61de:	67 45       	mov.b	@r5,	r7	
    61e0:	08 47       	mov	r7,	r8	
    61e2:	07 57       	rla	r7		
    61e4:	07 57       	rla	r7		
    61e6:	49 48       	mov.b	r8,	r9	
    61e8:	76 40 06 00 	mov.b	#6,	r6	;#0x0006
    61ec:	12 c3       	clrc			
    61ee:	49 10       	rrc.b	r9		
    61f0:	76 53       	add.b	#-1,	r6	;r3 As==11
    61f2:	fc 23       	jnz	$-6      	;abs 0x61ec
    61f4:	49 d7       	bis.b	r7,	r9	
    61f6:	15 53       	inc	r5		
    61f8:	84 45 cc ff 	mov	r5,	-52(r4)	;0xffcc(r4)
    61fc:	3f 53       	add	#-1,	r15	;r3 As==11
    61fe:	84 4f de ff 	mov	r15,	-34(r4)	;0xffde(r4)
    6202:	4a 43       	clr.b	r10		
    6204:	4f 43       	clr.b	r15		
    6206:	4b 43       	clr.b	r11		
    6208:	46 3c       	jmp	$+142    	;abs 0x6296
    620a:	1e 44 de ff 	mov	-34(r4),r14	;0xffde(r4)
    620e:	3e 90 03 00 	cmp	#3,	r14	;#0x0003
    6212:	02 2c       	jc	$+6      	;abs 0x6218
    6214:	30 40 18 68 	br	#0x6818	
    6218:	16 44 cc ff 	mov	-52(r4),r6	;0xffcc(r4)
    621c:	67 46       	mov.b	@r6,	r7	
    621e:	49 47       	mov.b	r7,	r9	
    6220:	75 40 06 00 	mov.b	#6,	r5	;#0x0006
    6224:	12 c3       	clrc			
    6226:	49 10       	rrc.b	r9		
    6228:	75 53       	add.b	#-1,	r5	;r3 As==11
    622a:	fc 23       	jnz	$-6      	;abs 0x6224
    622c:	4a 47       	mov.b	r7,	r10	
    622e:	7a f0 0f 00 	and.b	#15,	r10	;#0x000f
    6232:	5f 46 01 00 	mov.b	1(r6),	r15	;0x0001(r6)
    6236:	5b 46 02 00 	mov.b	2(r6),	r11	;0x0002(r6)
    623a:	36 50 03 00 	add	#3,	r6	;#0x0003
    623e:	84 46 cc ff 	mov	r6,	-52(r4)	;0xffcc(r4)
    6242:	3e 50 fd ff 	add	#-3,	r14	;#0xfffd
    6246:	20 3c       	jmp	$+66     	;abs 0x6288
    6248:	1e 44 de ff 	mov	-34(r4),r14	;0xffde(r4)
    624c:	2e 92       	cmp	#4,	r14	;r2 As==10
    624e:	02 2c       	jc	$+6      	;abs 0x6254
    6250:	30 40 18 68 	br	#0x6818	
    6254:	16 44 cc ff 	mov	-52(r4),r6	;0xffcc(r4)
    6258:	67 46       	mov.b	@r6,	r7	
    625a:	09 47       	mov	r7,	r9	
    625c:	07 57       	rla	r7		
    625e:	07 57       	rla	r7		
    6260:	49 49       	mov.b	r9,	r9	
    6262:	75 40 06 00 	mov.b	#6,	r5	;#0x0006
    6266:	12 c3       	clrc			
    6268:	49 10       	rrc.b	r9		
    626a:	75 53       	add.b	#-1,	r5	;r3 As==11
    626c:	fc 23       	jnz	$-6      	;abs 0x6266
    626e:	49 d7       	bis.b	r7,	r9	
    6270:	5a 46 01 00 	mov.b	1(r6),	r10	;0x0001(r6)
    6274:	7a f0 0f 00 	and.b	#15,	r10	;#0x000f
    6278:	5f 46 02 00 	mov.b	2(r6),	r15	;0x0002(r6)
    627c:	5b 46 03 00 	mov.b	3(r6),	r11	;0x0003(r6)
    6280:	26 52       	add	#4,	r6	;r2 As==10
    6282:	84 46 cc ff 	mov	r6,	-52(r4)	;0xffcc(r4)
    6286:	2e 82       	sub	#4,	r14	;r2 As==10
    6288:	84 4e de ff 	mov	r14,	-34(r4)	;0xffde(r4)
    628c:	04 3c       	jmp	$+10     	;abs 0x6296
    628e:	4a 43       	clr.b	r10		
    6290:	4f 43       	clr.b	r15		
    6292:	4b 43       	clr.b	r11		
    6294:	49 43       	clr.b	r9		
    6296:	46 4b       	mov.b	r11,	r6	
    6298:	07 43       	clr	r7		
    629a:	0b 46       	mov	r6,	r11	
    629c:	0c 47       	mov	r7,	r12	
    629e:	0b d3       	bis	#0,	r11	;r3 As==00
    62a0:	3c d0 00 60 	bis	#24576,	r12	;#0x6000
    62a4:	06 43       	clr	r6		
    62a6:	07 43       	clr	r7		
    62a8:	47 49       	mov.b	r9,	r7	
    62aa:	69 42       	mov.b	#4,	r9	;r2 As==10
    62ac:	06 56       	rla	r6		
    62ae:	07 67       	rlc	r7		
    62b0:	79 53       	add.b	#-1,	r9	;r3 As==11
    62b2:	fc 23       	jnz	$-6      	;abs 0x62ac
    62b4:	06 db       	bis	r11,	r6	
    62b6:	07 dc       	bis	r12,	r7	
    62b8:	08 43       	clr	r8		
    62ba:	09 43       	clr	r9		
    62bc:	09 4a       	mov	r10,	r9	
    62be:	39 f0 0f 00 	and	#15,	r9	;#0x000f
    62c2:	06 d8       	bis	r8,	r6	
    62c4:	07 d9       	bis	r9,	r7	
    62c6:	48 4f       	mov.b	r15,	r8	
    62c8:	09 43       	clr	r9		
    62ca:	49 e8       	xor.b	r8,	r9	
    62cc:	09 e8       	xor	r8,	r9	
    62ce:	89 10       	swpb	r9		
    62d0:	48 48       	mov.b	r8,	r8	
    62d2:	88 10       	swpb	r8		
    62d4:	0e 46       	mov	r6,	r14	
    62d6:	0f 47       	mov	r7,	r15	
    62d8:	0e d8       	bis	r8,	r14	
    62da:	0f d9       	bis	r9,	r15	
    62dc:	84 4d ee ff 	mov	r13,	-18(r4)	;0xffee(r4)
    62e0:	b0 12 68 ed 	call	#0xed68	
    62e4:	08 4e       	mov	r14,	r8	
    62e6:	09 4f       	mov	r15,	r9	
    62e8:	1e 44 e2 ff 	mov	-30(r4),r14	;0xffe2(r4)
    62ec:	ce 48 00 00 	mov.b	r8,	0(r14)	;0x0000(r14)
    62f0:	88 10       	swpb	r8		
    62f2:	ce 48 01 00 	mov.b	r8,	1(r14)	;0x0001(r14)
    62f6:	ce 4f 02 00 	mov.b	r15,	2(r14)	;0x0002(r14)
    62fa:	89 10       	swpb	r9		
    62fc:	ce 49 03 00 	mov.b	r9,	3(r14)	;0x0003(r14)
    6300:	18 44 e6 ff 	mov	-26(r4),r8	;0xffe6(r4)
    6304:	28 f2       	and	#4,	r8	;r2 As==10
    6306:	1d 44 ee ff 	mov	-18(r4),r13	;0xffee(r4)
    630a:	10 20       	jnz	$+34     	;abs 0x632c
    630c:	19 44 de ff 	mov	-34(r4),r9	;0xffde(r4)
    6310:	09 93       	tst	r9		
    6312:	02 20       	jnz	$+6      	;abs 0x6318
    6314:	30 40 18 68 	br	#0x6818	
    6318:	17 44 cc ff 	mov	-52(r4),r7	;0xffcc(r4)
    631c:	ee 47 06 00 	mov.b	@r7,	6(r14)	;0x0006(r14)
    6320:	17 53       	inc	r7		
    6322:	84 47 cc ff 	mov	r7,	-52(r4)	;0xffcc(r4)
    6326:	39 53       	add	#-1,	r9	;r3 As==11
    6328:	84 49 de ff 	mov	r9,	-34(r4)	;0xffde(r4)
    632c:	1a 44 e6 ff 	mov	-26(r4),r10	;0xffe6(r4)
    6330:	3a f0 03 00 	and	#3,	r10	;#0x0003
    6334:	2a 93       	cmp	#2,	r10	;r3 As==10
    6336:	0a 24       	jz	$+22     	;abs 0x634c
    6338:	3a 90 03 00 	cmp	#3,	r10	;#0x0003
    633c:	0d 24       	jz	$+28     	;abs 0x6358
    633e:	1a 93       	cmp	#1,	r10	;r3 As==01
    6340:	10 20       	jnz	$+34     	;abs 0x6362
    6342:	1f 44 e2 ff 	mov	-30(r4),r15	;0xffe2(r4)
    6346:	df 43 07 00 	mov.b	#1,	7(r15)	;r3 As==01, 0x0007(r15)
    634a:	1d 3c       	jmp	$+60     	;abs 0x6386
    634c:	1e 44 e2 ff 	mov	-30(r4),r14	;0xffe2(r4)
    6350:	fe 40 40 00 07 00 	mov.b	#64,	7(r14)	;#0x0040, 0x0007(r14)
    6356:	17 3c       	jmp	$+48     	;abs 0x6386
    6358:	1f 44 e2 ff 	mov	-30(r4),r15	;0xffe2(r4)
    635c:	ff 43 07 00 	mov.b	#-1,	7(r15)	;r3 As==11, 0x0007(r15)
    6360:	12 3c       	jmp	$+38     	;abs 0x6386
    6362:	1a 44 de ff 	mov	-34(r4),r10	;0xffde(r4)
    6366:	0a 93       	tst	r10		
    6368:	02 20       	jnz	$+6      	;abs 0x636e
    636a:	30 40 18 68 	br	#0x6818	
    636e:	19 44 cc ff 	mov	-52(r4),r9	;0xffcc(r4)
    6372:	1e 44 e2 ff 	mov	-30(r4),r14	;0xffe2(r4)
    6376:	ee 49 07 00 	mov.b	@r9,	7(r14)	;0x0007(r14)
    637a:	19 53       	inc	r9		
    637c:	84 49 cc ff 	mov	r9,	-52(r4)	;0xffcc(r4)
    6380:	3a 53       	add	#-1,	r10	;r3 As==11
    6382:	84 4a de ff 	mov	r10,	-34(r4)	;0xffde(r4)
    6386:	59 44 e4 ff 	mov.b	-28(r4),r9	;0xffe4(r4)
    638a:	5b 44 e4 ff 	mov.b	-28(r4),r11	;0xffe4(r4)
    638e:	12 c3       	clrc			
    6390:	4b 10       	rrc.b	r11		
    6392:	12 c3       	clrc			
    6394:	4b 10       	rrc.b	r11		
    6396:	12 c3       	clrc			
    6398:	4b 10       	rrc.b	r11		
    639a:	12 c3       	clrc			
    639c:	4b 10       	rrc.b	r11		
    639e:	3f 40 ca ff 	mov	#-54,	r15	;#0xffca
    63a2:	0f 54       	add	r4,	r15	
    63a4:	0f 12       	push	r15		
    63a6:	14 12 ec ff 	push	-20(r4)	;0xffec(r4)
    63aa:	3e 40 de ff 	mov	#-34,	r14	;#0xffde
    63ae:	0e 54       	add	r4,	r14	
    63b0:	0e 12       	push	r14		
    63b2:	0c 44       	mov	r4,	r12	
    63b4:	3c 50 cc ff 	add	#-52,	r12	;#0xffcc
    63b8:	4e 4b       	mov.b	r11,	r14	
    63ba:	1f 44 e2 ff 	mov	-30(r4),r15	;0xffe2(r4)
    63be:	3f 52       	add	#8,	r15	;r2 As==11
    63c0:	b0 12 0e 5e 	call	#0x5e0e	
    63c4:	31 50 06 00 	add	#6,	r1	;#0x0006
    63c8:	0f 93       	tst	r15		
    63ca:	02 34       	jge	$+6      	;abs 0x63d0
    63cc:	30 40 18 68 	br	#0x6818	
    63d0:	07 49       	mov	r9,	r7	
    63d2:	37 f2       	and	#8,	r7	;r2 As==11
    63d4:	1a 44 e2 ff 	mov	-30(r4),r10	;0xffe2(r4)
    63d8:	3a 50 18 00 	add	#24,	r10	;#0x0018
    63dc:	07 93       	tst	r7		
    63de:	60 24       	jz	$+194    	;abs 0x64a0
    63e0:	3d 40 10 00 	mov	#16,	r13	;#0x0010
    63e4:	0e 43       	clr	r14		
    63e6:	0f 4a       	mov	r10,	r15	
    63e8:	b0 12 94 f1 	call	#0xf194	
    63ec:	29 b2       	bit	#4,	r9	;r2 As==10
    63ee:	02 24       	jz	$+6      	;abs 0x63f4
    63f0:	30 40 18 68 	br	#0x6818	
    63f4:	39 f0 03 00 	and	#3,	r9	;#0x0003
    63f8:	29 93       	cmp	#2,	r9	;r3 As==10
    63fa:	1c 24       	jz	$+58     	;abs 0x6434
    63fc:	39 90 03 00 	cmp	#3,	r9	;#0x0003
    6400:	39 24       	jz	$+116    	;abs 0x6474
    6402:	19 93       	cmp	#1,	r9	;r3 As==01
    6404:	03 20       	jnz	$+8      	;abs 0x640c
    6406:	3a 40 05 00 	mov	#5,	r10	;#0x0005
    640a:	16 3c       	jmp	$+46     	;abs 0x6438
    640c:	b4 90 10 00 de ff 	cmp	#16,	-34(r4)	;#0x0010, 0xffde(r4)
    6412:	02 2c       	jc	$+6      	;abs 0x6418
    6414:	30 40 18 68 	br	#0x6818	
    6418:	3d 40 10 00 	mov	#16,	r13	;#0x0010
    641c:	1e 44 cc ff 	mov	-52(r4),r14	;0xffcc(r4)
    6420:	0f 4a       	mov	r10,	r15	
    6422:	b0 12 a0 ef 	call	#0xefa0	
    6426:	b4 50 10 00 cc ff 	add	#16,	-52(r4)	;#0x0010, 0xffcc(r4)
    642c:	b4 50 f0 ff de ff 	add	#-16,	-34(r4)	;#0xfff0, 0xffde(r4)
    6432:	53 3c       	jmp	$+168    	;abs 0x64da
    6434:	3a 40 03 00 	mov	#3,	r10	;#0x0003
    6438:	09 4a       	mov	r10,	r9	
    643a:	19 53       	inc	r9		
    643c:	84 99 de ff 	cmp	r9,	-34(r4)	;0xffde(r4)
    6440:	02 2c       	jc	$+6      	;abs 0x6446
    6442:	30 40 18 68 	br	#0x6818	
    6446:	1f 44 e2 ff 	mov	-30(r4),r15	;0xffe2(r4)
    644a:	ff 43 18 00 	mov.b	#-1,	24(r15)	;r3 As==11, 0x0018(r15)
    644e:	1c 44 cc ff 	mov	-52(r4),r12	;0xffcc(r4)
    6452:	ff 4c 19 00 	mov.b	@r12+,	25(r15)	;0x0019(r15)
    6456:	07 4f       	mov	r15,	r7	
    6458:	07 8a       	sub	r10,	r7	
    645a:	0d 4a       	mov	r10,	r13	
    645c:	0e 4c       	mov	r12,	r14	
    645e:	0f 47       	mov	r7,	r15	
    6460:	3f 50 28 00 	add	#40,	r15	;#0x0028
    6464:	b0 12 a0 ef 	call	#0xefa0	
    6468:	84 59 cc ff 	add	r9,	-52(r4)	;0xffcc(r4)
    646c:	3a e3       	inv	r10		
    646e:	84 5a de ff 	add	r10,	-34(r4)	;0xffde(r4)
    6472:	33 3c       	jmp	$+104    	;abs 0x64da
    6474:	1d 44 de ff 	mov	-34(r4),r13	;0xffde(r4)
    6478:	0d 93       	tst	r13		
    647a:	02 20       	jnz	$+6      	;abs 0x6480
    647c:	30 40 18 68 	br	#0x6818	
    6480:	1e 44 e2 ff 	mov	-30(r4),r14	;0xffe2(r4)
    6484:	be 40 ff 02 18 00 	mov	#767,	24(r14)	;#0x02ff, 0x0018(r14)
    648a:	1c 44 cc ff 	mov	-52(r4),r12	;0xffcc(r4)
    648e:	ee 4c 27 00 	mov.b	@r12,	39(r14)	;0x0027(r14)
    6492:	1c 53       	inc	r12		
    6494:	84 4c cc ff 	mov	r12,	-52(r4)	;0xffcc(r4)
    6498:	3d 53       	add	#-1,	r13	;r3 As==11
    649a:	84 4d de ff 	mov	r13,	-34(r4)	;0xffde(r4)
    649e:	1d 3c       	jmp	$+60     	;abs 0x64da
    64a0:	3f 40 ca ff 	mov	#-54,	r15	;#0xffca
    64a4:	0f 54       	add	r4,	r15	
    64a6:	0f 12       	push	r15		
    64a8:	1c 44 ec ff 	mov	-20(r4),r12	;0xffec(r4)
    64ac:	3c 50 0a 00 	add	#10,	r12	;#0x000a
    64b0:	0c 12       	push	r12		
    64b2:	3e 40 de ff 	mov	#-34,	r14	;#0xffde
    64b6:	0e 54       	add	r4,	r14	
    64b8:	0e 12       	push	r14		
    64ba:	0c 44       	mov	r4,	r12	
    64bc:	3c 50 cc ff 	add	#-52,	r12	;#0xffcc
    64c0:	1d 44 ea ff 	mov	-22(r4),r13	;0xffea(r4)
    64c4:	5e 44 e4 ff 	mov.b	-28(r4),r14	;0xffe4(r4)
    64c8:	0f 4a       	mov	r10,	r15	
    64ca:	b0 12 0e 5e 	call	#0x5e0e	
    64ce:	31 50 06 00 	add	#6,	r1	;#0x0006
    64d2:	0f 93       	tst	r15		
    64d4:	02 34       	jge	$+6      	;abs 0x64da
    64d6:	30 40 18 68 	br	#0x6818	
    64da:	19 44 e2 ff 	mov	-30(r4),r9	;0xffe2(r4)
    64de:	39 50 28 00 	add	#40,	r9	;#0x0028
    64e2:	1b 44 e8 ff 	mov	-24(r4),r11	;0xffe8(r4)
    64e6:	3b 50 d8 ff 	add	#-40,	r11	;#0xffd8
    64ea:	08 93       	tst	r8		
    64ec:	02 20       	jnz	$+6      	;abs 0x64f2
    64ee:	30 40 d6 67 	br	#0x67d6	
    64f2:	16 44 e2 ff 	mov	-30(r4),r6	;0xffe2(r4)
    64f6:	36 50 06 00 	add	#6,	r6	;#0x0006
    64fa:	1f 44 e0 ff 	mov	-32(r4),r15	;0xffe0(r4)
    64fe:	8f 49 0e 00 	mov	r9,	14(r15)	;0x000e(r15)
    6502:	1f 44 de ff 	mov	-34(r4),r15	;0xffde(r4)
    6506:	0f 93       	tst	r15		
    6508:	02 20       	jnz	$+6      	;abs 0x650e
    650a:	30 40 18 68 	br	#0x6818	
    650e:	1e 44 cc ff 	mov	-52(r4),r14	;0xffcc(r4)
    6512:	68 4e       	mov.b	@r14,	r8	
    6514:	1e 53       	inc	r14		
    6516:	84 4e cc ff 	mov	r14,	-52(r4)	;0xffcc(r4)
    651a:	3f 53       	add	#-1,	r15	;r3 As==11
    651c:	84 4f de ff 	mov	r15,	-34(r4)	;0xffde(r4)
    6520:	0f 48       	mov	r8,	r15	
    6522:	3f f0 f0 00 	and	#240,	r15	;#0x00f0
    6526:	3f 90 e0 00 	cmp	#224,	r15	;#0x00e0
    652a:	8c 20       	jnz	$+282    	;abs 0x6644
    652c:	2b 93       	cmp	#2,	r11	;r3 As==10
    652e:	02 2c       	jc	$+6      	;abs 0x6534
    6530:	30 40 18 68 	br	#0x6818	
    6534:	0f 48       	mov	r8,	r15	
    6536:	3f f0 0e 00 	and	#14,	r15	;#0x000e
    653a:	0f 5f       	rla	r15		
    653c:	10 4f 24 f2 	br	-3548(r15)	;0xf224(r15)
    6540:	c6 43 00 00 	mov.b	#0,	0(r6)	;r3 As==00, 0x0000(r6)
    6544:	13 3c       	jmp	$+40     	;abs 0x656c
    6546:	f6 40 2b 00 00 00 	mov.b	#43,	0(r6)	;#0x002b, 0x0000(r6)
    654c:	0f 3c       	jmp	$+32     	;abs 0x656c
    654e:	f6 40 2c 00 00 00 	mov.b	#44,	0(r6)	;#0x002c, 0x0000(r6)
    6554:	0b 3c       	jmp	$+24     	;abs 0x656c
    6556:	f6 40 3c 00 00 00 	mov.b	#60,	0(r6)	;#0x003c, 0x0000(r6)
    655c:	07 3c       	jmp	$+16     	;abs 0x656c
    655e:	f6 40 87 ff 00 00 	mov.b	#-121,	0(r6)	;#0xff87, 0x0000(r6)
    6564:	03 3c       	jmp	$+8      	;abs 0x656c
    6566:	f6 40 29 00 00 00 	mov.b	#41,	0(r6)	;#0x0029, 0x0000(r6)
    656c:	18 f3       	and	#1,	r8	;r3 As==01
    656e:	0d 20       	jnz	$+28     	;abs 0x658a
    6570:	84 93 de ff 	tst	-34(r4)	;0xffde(r4)
    6574:	02 20       	jnz	$+6      	;abs 0x657a
    6576:	30 40 18 68 	br	#0x6818	
    657a:	1f 44 cc ff 	mov	-52(r4),r15	;0xffcc(r4)
    657e:	e9 4f 00 00 	mov.b	@r15,	0(r9)	;0x0000(r9)
    6582:	94 53 cc ff 	inc	-52(r4)	;0xffcc(r4)
    6586:	b4 53 de ff 	add	#-1,	-34(r4)	;r3 As==11, 0xffde(r4)
    658a:	1c 44 de ff 	mov	-34(r4),r12	;0xffde(r4)
    658e:	0c 93       	tst	r12		
    6590:	02 20       	jnz	$+6      	;abs 0x6596
    6592:	30 40 18 68 	br	#0x6818	
    6596:	2b 83       	decd	r11		
    6598:	1e 44 cc ff 	mov	-52(r4),r14	;0xffcc(r4)
    659c:	7d 4e       	mov.b	@r14+,	r13	
    659e:	84 4e cc ff 	mov	r14,	-52(r4)	;0xffcc(r4)
    65a2:	3c 53       	add	#-1,	r12	;r3 As==11
    65a4:	84 4c de ff 	mov	r12,	-34(r4)	;0xffde(r4)
    65a8:	0a 4d       	mov	r13,	r10	
    65aa:	0f 4d       	mov	r13,	r15	
    65ac:	2f 53       	incd	r15		
    65ae:	84 4f e2 ff 	mov	r15,	-30(r4)	;0xffe2(r4)
    65b2:	0d 4f       	mov	r15,	r13	
    65b4:	3d f0 07 00 	and	#7,	r13	;#0x0007
    65b8:	3f 42       	mov	#8,	r15	;r2 As==11
    65ba:	0f 8d       	sub	r13,	r15	
    65bc:	47 4f       	mov.b	r15,	r7	
    65be:	77 f0 07 00 	and.b	#7,	r7	;#0x0007
    65c2:	45 47       	mov.b	r7,	r5	
    65c4:	0d 4a       	mov	r10,	r13	
    65c6:	0d 55       	add	r5,	r13	
    65c8:	0b 9d       	cmp	r13,	r11	
    65ca:	02 2c       	jc	$+6      	;abs 0x65d0
    65cc:	30 40 18 68 	br	#0x6818	
    65d0:	0c 9a       	cmp	r10,	r12	
    65d2:	02 2c       	jc	$+6      	;abs 0x65d8
    65d4:	30 40 18 68 	br	#0x6818	
    65d8:	0c 49       	mov	r9,	r12	
    65da:	2c 53       	incd	r12		
    65dc:	0d 4a       	mov	r10,	r13	
    65de:	0f 4c       	mov	r12,	r15	
    65e0:	84 4c ee ff 	mov	r12,	-18(r4)	;0xffee(r4)
    65e4:	b0 12 a0 ef 	call	#0xefa0	
    65e8:	1c 44 ee ff 	mov	-18(r4),r12	;0xffee(r4)
    65ec:	0c 5a       	add	r10,	r12	
    65ee:	0b 8a       	sub	r10,	r11	
    65f0:	84 5a cc ff 	add	r10,	-52(r4)	;0xffcc(r4)
    65f4:	84 8a de ff 	sub	r10,	-34(r4)	;0xffde(r4)
    65f8:	6d 46       	mov.b	@r6,	r13	
    65fa:	4d 93       	tst.b	r13		
    65fc:	03 24       	jz	$+8      	;abs 0x6604
    65fe:	7d 90 3c 00 	cmp.b	#60,	r13	;#0x003c
    6602:	12 20       	jnz	$+38     	;abs 0x6628
    6604:	57 93       	cmp.b	#1,	r7	;r3 As==01
    6606:	05 20       	jnz	$+12     	;abs 0x6612
    6608:	cc 43 00 00 	mov.b	#0,	0(r12)	;r3 As==00, 0x0000(r12)
    660c:	1c 53       	inc	r12		
    660e:	3b 53       	add	#-1,	r11	;r3 As==11
    6610:	0b 3c       	jmp	$+24     	;abs 0x6628
    6612:	67 93       	cmp.b	#2,	r7	;r3 As==10
    6614:	09 28       	jnc	$+20     	;abs 0x6628
    6616:	dc 43 00 00 	mov.b	#1,	0(r12)	;r3 As==01, 0x0000(r12)
    661a:	4e 47       	mov.b	r7,	r14	
    661c:	6e 83       	decd.b	r14		
    661e:	cc 4e 01 00 	mov.b	r14,	1(r12)	;0x0001(r12)
    6622:	4f 47       	mov.b	r7,	r15	
    6624:	0c 5f       	add	r15,	r12	
    6626:	0b 8f       	sub	r15,	r11	
    6628:	1e 44 e2 ff 	mov	-30(r4),r14	;0xffe2(r4)
    662c:	0e 55       	add	r5,	r14	
    662e:	0e 11       	rra	r14		
    6630:	0e 11       	rra	r14		
    6632:	0e 11       	rra	r14		
    6634:	7e 53       	add.b	#-1,	r14	;r3 As==11
    6636:	c9 4e 01 00 	mov.b	r14,	1(r9)	;0x0001(r9)
    663a:	06 49       	mov	r9,	r6	
    663c:	09 4c       	mov	r12,	r9	
    663e:	08 93       	tst	r8		
    6640:	5c 23       	jnz	$-326    	;abs 0x64fa
    6642:	c9 3c       	jmp	$+404    	;abs 0x67d6
    6644:	07 49       	mov	r9,	r7	
    6646:	0f 48       	mov	r8,	r15	
    6648:	3f f0 f8 00 	and	#248,	r15	;#0x00f8
    664c:	3f 90 f0 00 	cmp	#240,	r15	;#0x00f0
    6650:	c2 20       	jnz	$+390    	;abs 0x67d6
    6652:	3b 92       	cmp	#8,	r11	;r2 As==11
    6654:	e1 28       	jnc	$+452    	;abs 0x6818
    6656:	f6 40 11 00 00 00 	mov.b	#17,	0(r6)	;#0x0011, 0x0000(r6)
    665c:	89 43 04 00 	mov	#0,	4(r9)	;r3 As==00, 0x0004(r9)
    6660:	89 43 06 00 	mov	#0,	6(r9)	;r3 As==00, 0x0006(r9)
    6664:	0f 48       	mov	r8,	r15	
    6666:	3f f0 03 00 	and	#3,	r15	;#0x0003
    666a:	1c 44 de ff 	mov	-34(r4),r12	;0xffde(r4)
    666e:	2f 93       	cmp	#2,	r15	;r3 As==10
    6670:	40 24       	jz	$+130    	;abs 0x66f2
    6672:	3f 90 03 00 	cmp	#3,	r15	;#0x0003
    6676:	62 24       	jz	$+198    	;abs 0x673c
    6678:	1f 93       	cmp	#1,	r15	;r3 As==01
    667a:	24 24       	jz	$+74     	;abs 0x66c4
    667c:	2c 92       	cmp	#4,	r12	;r2 As==10
    667e:	cc 28       	jnc	$+410    	;abs 0x6818
    6680:	1d 44 cc ff 	mov	-52(r4),r13	;0xffcc(r4)
    6684:	6a 4d       	mov.b	@r13,	r10	
    6686:	8a 10       	swpb	r10		
    6688:	5f 4d 01 00 	mov.b	1(r13),	r15	;0x0001(r13)
    668c:	0a df       	bis	r15,	r10	
    668e:	0f 4a       	mov	r10,	r15	
    6690:	8f 10       	swpb	r15		
    6692:	4f 4f       	mov.b	r15,	r15	
    6694:	4a 4a       	mov.b	r10,	r10	
    6696:	8a 10       	swpb	r10		
    6698:	0a df       	bis	r15,	r10	
    669a:	89 4a 00 00 	mov	r10,	0(r9)	;0x0000(r9)
    669e:	5a 4d 02 00 	mov.b	2(r13),	r10	;0x0002(r13)
    66a2:	8a 10       	swpb	r10		
    66a4:	5f 4d 03 00 	mov.b	3(r13),	r15	;0x0003(r13)
    66a8:	0a df       	bis	r15,	r10	
    66aa:	0f 4a       	mov	r10,	r15	
    66ac:	8f 10       	swpb	r15		
    66ae:	4f 4f       	mov.b	r15,	r15	
    66b0:	4a 4a       	mov.b	r10,	r10	
    66b2:	8a 10       	swpb	r10		
    66b4:	0a df       	bis	r15,	r10	
    66b6:	89 4a 02 00 	mov	r10,	2(r9)	;0x0002(r9)
    66ba:	2d 52       	add	#4,	r13	;r2 As==10
    66bc:	84 4d cc ff 	mov	r13,	-52(r4)	;0xffcc(r4)
    66c0:	2c 82       	sub	#4,	r12	;r2 As==10
    66c2:	65 3c       	jmp	$+204    	;abs 0x678e
    66c4:	3c 90 03 00 	cmp	#3,	r12	;#0x0003
    66c8:	a7 28       	jnc	$+336    	;abs 0x6818
    66ca:	1f 44 cc ff 	mov	-52(r4),r15	;0xffcc(r4)
    66ce:	6d 4f       	mov.b	@r15,	r13	
    66d0:	8d 10       	swpb	r13		
    66d2:	5a 4f 01 00 	mov.b	1(r15),	r10	;0x0001(r15)
    66d6:	0d da       	bis	r10,	r13	
    66d8:	0a 4d       	mov	r13,	r10	
    66da:	8a 10       	swpb	r10		
    66dc:	4a 4a       	mov.b	r10,	r10	
    66de:	4d 4d       	mov.b	r13,	r13	
    66e0:	8d 10       	swpb	r13		
    66e2:	0d da       	bis	r10,	r13	
    66e4:	89 4d 00 00 	mov	r13,	0(r9)	;0x0000(r9)
    66e8:	5d 4f 02 00 	mov.b	2(r15),	r13	;0x0002(r15)
    66ec:	3d d0 00 f0 	bis	#-4096,	r13	;#0xf000
    66f0:	16 3c       	jmp	$+46     	;abs 0x671e
    66f2:	3c 90 03 00 	cmp	#3,	r12	;#0x0003
    66f6:	90 28       	jnc	$+290    	;abs 0x6818
    66f8:	1f 44 cc ff 	mov	-52(r4),r15	;0xffcc(r4)
    66fc:	6d 4f       	mov.b	@r15,	r13	
    66fe:	3d d0 00 f0 	bis	#-4096,	r13	;#0xf000
    6702:	0a 4d       	mov	r13,	r10	
    6704:	8a 10       	swpb	r10		
    6706:	4a 4a       	mov.b	r10,	r10	
    6708:	4d 4d       	mov.b	r13,	r13	
    670a:	8d 10       	swpb	r13		
    670c:	0d da       	bis	r10,	r13	
    670e:	89 4d 00 00 	mov	r13,	0(r9)	;0x0000(r9)
    6712:	5d 4f 01 00 	mov.b	1(r15),	r13	;0x0001(r15)
    6716:	8d 10       	swpb	r13		
    6718:	5a 4f 02 00 	mov.b	2(r15),	r10	;0x0002(r15)
    671c:	0d da       	bis	r10,	r13	
    671e:	0a 4d       	mov	r13,	r10	
    6720:	8a 10       	swpb	r10		
    6722:	4a 4a       	mov.b	r10,	r10	
    6724:	4d 4d       	mov.b	r13,	r13	
    6726:	8d 10       	swpb	r13		
    6728:	0d da       	bis	r10,	r13	
    672a:	89 4d 02 00 	mov	r13,	2(r9)	;0x0002(r9)
    672e:	3f 50 03 00 	add	#3,	r15	;#0x0003
    6732:	84 4f cc ff 	mov	r15,	-52(r4)	;0xffcc(r4)
    6736:	3c 50 fd ff 	add	#-3,	r12	;#0xfffd
    673a:	29 3c       	jmp	$+84     	;abs 0x678e
    673c:	0c 93       	tst	r12		
    673e:	6c 24       	jz	$+218    	;abs 0x6818
    6740:	1a 44 cc ff 	mov	-52(r4),r10	;0xffcc(r4)
    6744:	6d 4a       	mov.b	@r10,	r13	
    6746:	12 c3       	clrc			
    6748:	4d 10       	rrc.b	r13		
    674a:	12 c3       	clrc			
    674c:	4d 10       	rrc.b	r13		
    674e:	12 c3       	clrc			
    6750:	4d 10       	rrc.b	r13		
    6752:	12 c3       	clrc			
    6754:	4d 10       	rrc.b	r13		
    6756:	4d 4d       	mov.b	r13,	r13	
    6758:	3d d0 b0 f0 	bis	#-3920,	r13	;#0xf0b0
    675c:	0f 4d       	mov	r13,	r15	
    675e:	8f 10       	swpb	r15		
    6760:	4f 4f       	mov.b	r15,	r15	
    6762:	4d 4d       	mov.b	r13,	r13	
    6764:	8d 10       	swpb	r13		
    6766:	0d df       	bis	r15,	r13	
    6768:	89 4d 00 00 	mov	r13,	0(r9)	;0x0000(r9)
    676c:	6d 4a       	mov.b	@r10,	r13	
    676e:	3d f0 0f 00 	and	#15,	r13	;#0x000f
    6772:	3d d0 b0 f0 	bis	#-3920,	r13	;#0xf0b0
    6776:	0f 4d       	mov	r13,	r15	
    6778:	8f 10       	swpb	r15		
    677a:	4f 4f       	mov.b	r15,	r15	
    677c:	4d 4d       	mov.b	r13,	r13	
    677e:	8d 10       	swpb	r13		
    6780:	0d df       	bis	r15,	r13	
    6782:	89 4d 02 00 	mov	r13,	2(r9)	;0x0002(r9)
    6786:	1a 53       	inc	r10		
    6788:	84 4a cc ff 	mov	r10,	-52(r4)	;0xffcc(r4)
    678c:	3c 53       	add	#-1,	r12	;r3 As==11
    678e:	84 4c de ff 	mov	r12,	-34(r4)	;0xffde(r4)
    6792:	28 f2       	and	#4,	r8	;r2 As==10
    6794:	19 20       	jnz	$+52     	;abs 0x67c8
    6796:	1a 44 de ff 	mov	-34(r4),r10	;0xffde(r4)
    679a:	2a 93       	cmp	#2,	r10	;r3 As==10
    679c:	3d 28       	jnc	$+124    	;abs 0x6818
    679e:	1c 44 cc ff 	mov	-52(r4),r12	;0xffcc(r4)
    67a2:	6d 4c       	mov.b	@r12,	r13	
    67a4:	8d 10       	swpb	r13		
    67a6:	5f 4c 01 00 	mov.b	1(r12),	r15	;0x0001(r12)
    67aa:	0d df       	bis	r15,	r13	
    67ac:	0f 4d       	mov	r13,	r15	
    67ae:	8f 10       	swpb	r15		
    67b0:	4f 4f       	mov.b	r15,	r15	
    67b2:	4d 4d       	mov.b	r13,	r13	
    67b4:	8d 10       	swpb	r13		
    67b6:	0d df       	bis	r15,	r13	
    67b8:	89 4d 06 00 	mov	r13,	6(r9)	;0x0006(r9)
    67bc:	2c 53       	incd	r12		
    67be:	84 4c cc ff 	mov	r12,	-52(r4)	;0xffcc(r4)
    67c2:	2a 83       	decd	r10		
    67c4:	84 4a de ff 	mov	r10,	-34(r4)	;0xffde(r4)
    67c8:	39 52       	add	#8,	r9	;r2 As==11
    67ca:	3b 82       	sub	#8,	r11	;r2 As==11
    67cc:	27 52       	add	#4,	r7	;r2 As==10
    67ce:	1f 44 e0 ff 	mov	-32(r4),r15	;0xffe0(r4)
    67d2:	8f 47 0c 00 	mov	r7,	12(r15)	;0x000c(r15)
    67d6:	1d 44 de ff 	mov	-34(r4),r13	;0xffde(r4)
    67da:	0b 9d       	cmp	r13,	r11	
    67dc:	1d 28       	jnc	$+60     	;abs 0x6818
    67de:	1e 44 cc ff 	mov	-52(r4),r14	;0xffcc(r4)
    67e2:	0f 49       	mov	r9,	r15	
    67e4:	b0 12 a0 ef 	call	#0xefa0	
    67e8:	0f 49       	mov	r9,	r15	
    67ea:	1f 54 de ff 	add	-34(r4),r15	;0xffde(r4)
    67ee:	84 43 de ff 	mov	#0,	-34(r4)	;r3 As==00, 0xffde(r4)
    67f2:	0a 4f       	mov	r15,	r10	
    67f4:	8f 10       	swpb	r15		
    67f6:	8f 11       	sxt	r15		
    67f8:	8f 10       	swpb	r15		
    67fa:	8f 11       	sxt	r15		
    67fc:	0b 4f       	mov	r15,	r11	
    67fe:	1e 44 e0 ff 	mov	-32(r4),r14	;0xffe0(r4)
    6802:	1c 4e 06 00 	mov	6(r14),	r12	;0x0006(r14)
    6806:	0f 4c       	mov	r12,	r15	
    6808:	8f 10       	swpb	r15		
    680a:	8f 11       	sxt	r15		
    680c:	8f 10       	swpb	r15		
    680e:	8f 11       	sxt	r15		
    6810:	0d 4f       	mov	r15,	r13	
    6812:	0a 8c       	sub	r12,	r10	
    6814:	0b 7d       	subc	r13,	r11	
    6816:	09 3c       	jmp	$+20     	;abs 0x682a
    6818:	1e 44 e0 ff 	mov	-32(r4),r14	;0xffe0(r4)
    681c:	1f 4e 06 00 	mov	6(r14),	r15	;0x0006(r14)
    6820:	b0 12 ac e9 	call	#0xe9ac	
    6824:	3f 40 fd ff 	mov	#-3,	r15	;#0xfffd
    6828:	88 3c       	jmp	$+274    	;abs 0x693a
    682a:	e4 b2 ce ff 	bit.b	#4,	-50(r4)	;r2 As==10, 0xffce(r4)
    682e:	04 20       	jnz	$+10     	;abs 0x6838
    6830:	1f 44 e0 ff 	mov	-32(r4),r15	;0xffe0(r4)
    6834:	8f 4a 04 00 	mov	r10,	4(r15)	;0x0004(r15)
    6838:	1e 44 e0 ff 	mov	-32(r4),r14	;0xffe0(r4)
    683c:	8e 4a 08 00 	mov	r10,	8(r14)	;0x0008(r14)
    6840:	1c 4e 06 00 	mov	6(r14),	r12	;0x0006(r14)
    6844:	1d 4e 04 00 	mov	4(r14),	r13	;0x0004(r14)
    6848:	3d 50 d8 ff 	add	#-40,	r13	;#0xffd8
    684c:	4f 4d       	mov.b	r13,	r15	
    684e:	8f 10       	swpb	r15		
    6850:	8d 10       	swpb	r13		
    6852:	4d 4d       	mov.b	r13,	r13	
    6854:	0f dd       	bis	r13,	r15	
    6856:	cc 4f 04 00 	mov.b	r15,	4(r12)	;0x0004(r12)
    685a:	8f 10       	swpb	r15		
    685c:	cc 4f 05 00 	mov.b	r15,	5(r12)	;0x0005(r12)
    6860:	19 4e 0c 00 	mov	12(r14),r9	;0x000c(r14)
    6864:	09 93       	tst	r9		
    6866:	1d 24       	jz	$+60     	;abs 0x68a2
    6868:	1a 4e 0e 00 	mov	14(r14),r10	;0x000e(r14)
    686c:	0f 4a       	mov	r10,	r15	
    686e:	8f 10       	swpb	r15		
    6870:	8f 11       	sxt	r15		
    6872:	8f 10       	swpb	r15		
    6874:	8f 11       	sxt	r15		
    6876:	0b 4f       	mov	r15,	r11	
    6878:	1c 4e 06 00 	mov	6(r14),	r12	;0x0006(r14)
    687c:	0f 4c       	mov	r12,	r15	
    687e:	8f 10       	swpb	r15		
    6880:	8f 11       	sxt	r15		
    6882:	8f 10       	swpb	r15		
    6884:	8f 11       	sxt	r15		
    6886:	0d 4f       	mov	r15,	r13	
    6888:	0a 8c       	sub	r12,	r10	
    688a:	0b 7d       	subc	r13,	r11	
    688c:	1f 4e 04 00 	mov	4(r14),	r15	;0x0004(r14)
    6890:	0f 8a       	sub	r10,	r15	
    6892:	0a 4f       	mov	r15,	r10	
    6894:	4f 4f       	mov.b	r15,	r15	
    6896:	8f 10       	swpb	r15		
    6898:	8a 10       	swpb	r10		
    689a:	4a 4a       	mov.b	r10,	r10	
    689c:	0a df       	bis	r15,	r10	
    689e:	89 4a 00 00 	mov	r10,	0(r9)	;0x0000(r9)
    68a2:	c4 93 ca ff 	tst.b	-54(r4)	;0xffca(r4)
    68a6:	48 24       	jz	$+146    	;abs 0x6938
    68a8:	1e 44 e0 ff 	mov	-32(r4),r14	;0xffe0(r4)
    68ac:	1a 4e 06 00 	mov	6(r14),	r10	;0x0006(r14)
    68b0:	fa 90 11 00 06 00 	cmp.b	#17,	6(r10)	;#0x0011, 0x0006(r10)
    68b6:	40 20       	jnz	$+130    	;abs 0x6938
    68b8:	1b 4e 0e 00 	mov	14(r14),r11	;0x000e(r14)
    68bc:	8b 43 06 00 	mov	#0,	6(r11)	;r3 As==00, 0x0006(r11)
    68c0:	84 4b d2 ff 	mov	r11,	-46(r4)	;0xffd2(r4)
    68c4:	b4 42 d4 ff 	mov	#8,	-44(r4)	;r2 As==11, 0xffd4(r4)
    68c8:	3f 40 ca ff 	mov	#-54,	r15	;#0xffca
    68cc:	0f 54       	add	r4,	r15	
    68ce:	3f 50 0e 00 	add	#14,	r15	;#0x000e
    68d2:	84 4f d6 ff 	mov	r15,	-42(r4)	;0xffd6(r4)
    68d6:	0e 4b       	mov	r11,	r14	
    68d8:	3e 52       	add	#8,	r14	;r2 As==11
    68da:	84 4e d8 ff 	mov	r14,	-40(r4)	;0xffd8(r4)
    68de:	2f 49       	mov	@r9,	r15	
    68e0:	4e 4f       	mov.b	r15,	r14	
    68e2:	8e 10       	swpb	r14		
    68e4:	8f 10       	swpb	r15		
    68e6:	4f 4f       	mov.b	r15,	r15	
    68e8:	0e df       	bis	r15,	r14	
    68ea:	3e 82       	sub	#8,	r14	;r2 As==11
    68ec:	84 4e da ff 	mov	r14,	-38(r4)	;0xffda(r4)
    68f0:	84 43 dc ff 	mov	#0,	-36(r4)	;r3 As==00, 0xffdc(r4)
    68f4:	7d 40 11 00 	mov.b	#17,	r13	;#0x0011
    68f8:	0e 44       	mov	r4,	r14	
    68fa:	3e 50 d2 ff 	add	#-46,	r14	;#0xffd2
    68fe:	0f 4a       	mov	r10,	r15	
    6900:	b0 12 6e e8 	call	#0xe86e	
    6904:	09 4f       	mov	r15,	r9	
    6906:	7d 40 11 00 	mov.b	#17,	r13	;#0x0011
    690a:	0e 44       	mov	r4,	r14	
    690c:	3e 50 d2 ff 	add	#-46,	r14	;#0xffd2
    6910:	0f 4a       	mov	r10,	r15	
    6912:	b0 12 6e e8 	call	#0xe86e	
    6916:	0e 4f       	mov	r15,	r14	
    6918:	8e 10       	swpb	r14		
    691a:	4e 4e       	mov.b	r14,	r14	
    691c:	4f 49       	mov.b	r9,	r15	
    691e:	8f 10       	swpb	r15		
    6920:	0e df       	bis	r15,	r14	
    6922:	8b 4e 06 00 	mov	r14,	6(r11)	;0x0006(r11)
    6926:	08 3c       	jmp	$+18     	;abs 0x6938
    6928:	3f 43       	mov	#-1,	r15	;r3 As==11
    692a:	07 3c       	jmp	$+16     	;abs 0x693a
    692c:	3f 40 fc ff 	mov	#-4,	r15	;#0xfffc
    6930:	04 3c       	jmp	$+10     	;abs 0x693a
    6932:	3f 40 fe ff 	mov	#-2,	r15	;#0xfffe
    6936:	01 3c       	jmp	$+4      	;abs 0x693a
    6938:	0f 43       	clr	r15		
    693a:	31 50 26 00 	add	#38,	r1	;#0x0026
    693e:	34 41       	pop	r4		
    6940:	35 41       	pop	r5		
    6942:	36 41       	pop	r6		
    6944:	37 41       	pop	r7		
    6946:	38 41       	pop	r8		
    6948:	39 41       	pop	r9		
    694a:	3a 41       	pop	r10		
    694c:	3b 41       	pop	r11		
    694e:	30 41       	ret			

00006950 <RPLRankP__getParent>:
    6950:	0b 12       	push	r11		
    6952:	0a 12       	push	r10		
    6954:	09 12       	push	r9		
    6956:	08 12       	push	r8		
    6958:	08 4f       	mov	r15,	r8	
    695a:	c2 93 b2 11 	tst.b	&0x11b2	
    695e:	22 24       	jz	$+70     	;abs 0x69a4
    6960:	3a 40 fe 12 	mov	#4862,	r10	;#0x12fe
    6964:	0b 43       	clr	r11		
    6966:	49 4b       	mov.b	r11,	r9	
    6968:	02 12       	push	r2		
    696a:	32 c2       	dint			
    696c:	03 43       	nop			
    696e:	82 4b 32 01 	mov	r11,	&0x0132	
    6972:	b2 40 18 00 38 01 	mov	#24,	&0x0138	;#0x0018
    6978:	1c 42 3a 01 	mov	&0x013a,r12	
    697c:	32 41       	pop	r2		
    697e:	3d 40 10 00 	mov	#16,	r13	;#0x0010
    6982:	0e 48       	mov	r8,	r14	
    6984:	0f 4c       	mov	r12,	r15	
    6986:	3f 50 e8 12 	add	#4840,	r15	;#0x12e8
    698a:	b0 12 80 ef 	call	#0xef80	
    698e:	0f 93       	tst	r15		
    6990:	03 20       	jnz	$+8      	;abs 0x6998
    6992:	ca 93 00 00 	tst.b	0(r10)		;0x0000(r10)
    6996:	08 20       	jnz	$+18     	;abs 0x69a8
    6998:	1b 53       	inc	r11		
    699a:	3a 50 18 00 	add	#24,	r10	;#0x0018
    699e:	3b 90 14 00 	cmp	#20,	r11	;#0x0014
    69a2:	e1 23       	jnz	$-60     	;abs 0x6966
    69a4:	79 40 14 00 	mov.b	#20,	r9	;#0x0014
    69a8:	4f 49       	mov.b	r9,	r15	
    69aa:	38 41       	pop	r8		
    69ac:	39 41       	pop	r9		
    69ae:	3a 41       	pop	r10		
    69b0:	3b 41       	pop	r11		
    69b2:	30 41       	ret			

000069b4 <IPDispatchP__reconstruct_age>:
    69b4:	0b 12       	push	r11		
    69b6:	0b 4f       	mov	r15,	r11	
    69b8:	5f 4f 0a 00 	mov.b	10(r15),r15	;0x000a(r15)
    69bc:	5f 93       	cmp.b	#1,	r15	;r3 As==01
    69be:	0d 24       	jz	$+28     	;abs 0x69da
    69c0:	09 28       	jnc	$+20     	;abs 0x69d4
    69c2:	7f 90 03 00 	cmp.b	#3,	r15	;#0x0003
    69c6:	03 24       	jz	$+8      	;abs 0x69ce
    69c8:	6f 92       	cmp.b	#4,	r15	;r2 As==10
    69ca:	11 20       	jnz	$+36     	;abs 0x69ee
    69cc:	06 3c       	jmp	$+14     	;abs 0x69da
    69ce:	eb 42 0a 00 	mov.b	#4,	10(r11)	;r2 As==10, 0x000a(r11)
    69d2:	0d 3c       	jmp	$+28     	;abs 0x69ee
    69d4:	db 43 0a 00 	mov.b	#1,	10(r11)	;r3 As==01, 0x000a(r11)
    69d8:	0a 3c       	jmp	$+22     	;abs 0x69ee
    69da:	1f 4b 06 00 	mov	6(r11),	r15	;0x0006(r11)
    69de:	0f 93       	tst	r15		
    69e0:	02 24       	jz	$+6      	;abs 0x69e6
    69e2:	b0 12 ac e9 	call	#0xe9ac	
    69e6:	eb 43 0a 00 	mov.b	#2,	10(r11)	;r3 As==10, 0x000a(r11)
    69ea:	8b 43 06 00 	mov	#0,	6(r11)	;r3 As==00, 0x0006(r11)
    69ee:	3b 41       	pop	r11		
    69f0:	30 41       	ret			

000069f2 <RPLRoutingEngineP__0__RPLRankInfo__getRank.constprop.353>:
    69f2:	c2 93 ac 11 	tst.b	&0x11ac	
    69f6:	03 24       	jz	$+8      	;abs 0x69fe
    69f8:	1f 42 7c 11 	mov	&0x117c,r15	
    69fc:	30 41       	ret			
    69fe:	1f 42 30 11 	mov	&0x1130,r15	
    6a02:	30 41       	ret			

00006a04 <__nesc_atomic_start>:
    6a04:	0e 42       	mov	r2,	r14	
    6a06:	32 c2       	dint			
    6a08:	03 43       	nop			
    6a0a:	03 43       	nop			
    6a0c:	3e f2       	and	#8,	r14	;r2 As==11
    6a0e:	5f 43       	mov.b	#1,	r15	;r3 As==01
    6a10:	01 20       	jnz	$+4      	;abs 0x6a14
    6a12:	4f 43       	clr.b	r15		
    6a14:	30 41       	ret			

00006a16 <__nesc_atomic_end>:
    6a16:	4f 93       	tst.b	r15		
    6a18:	01 24       	jz	$+4      	;abs 0x6a1c
    6a1a:	32 d2       	eint			
    6a1c:	30 41       	ret			

00006a1e <Msp430SpiNoDmaP__0__continueOp>:
    6a1e:	0b 12       	push	r11		
    6a20:	b0 12 04 6a 	call	#0x6a04	
    6a24:	1d 42 32 15 	mov	&0x1532,r13	
    6a28:	1e 42 78 24 	mov	&0x2478,r14	
    6a2c:	0d 93       	tst	r13		
    6a2e:	03 24       	jz	$+8      	;abs 0x6a36
    6a30:	0d 5e       	add	r14,	r13	
    6a32:	6d 4d       	mov.b	@r13,	r13	
    6a34:	01 3c       	jmp	$+4      	;abs 0x6a38
    6a36:	4d 43       	clr.b	r13		
    6a38:	c2 4d 77 00 	mov.b	r13,	&0x0077	
    6a3c:	6e 53       	incd.b	r14		
    6a3e:	1d 42 88 24 	mov	&0x2488,r13	
    6a42:	4c 4e       	mov.b	r14,	r12	
    6a44:	0d 9c       	cmp	r12,	r13	
    6a46:	1c 2c       	jc	$+58     	;abs 0x6a80
    6a48:	4e 4d       	mov.b	r13,	r14	
    6a4a:	1a 3c       	jmp	$+54     	;abs 0x6a80
    6a4c:	5d 42 02 00 	mov.b	&0x0002,r13	
    6a50:	3d f0 40 00 	and	#64,	r13	;#0x0040
    6a54:	fb 27       	jz	$-8      	;abs 0x6a4c
    6a56:	5b 42 76 00 	mov.b	&0x0076,r11	
    6a5a:	1d 42 e4 1b 	mov	&0x1be4,r13	
    6a5e:	0d 93       	tst	r13		
    6a60:	03 24       	jz	$+8      	;abs 0x6a68
    6a62:	0c 5d       	add	r13,	r12	
    6a64:	cc 4b 00 00 	mov.b	r11,	0(r12)	;0x0000(r12)
    6a68:	1d 42 32 15 	mov	&0x1532,r13	
    6a6c:	0d 93       	tst	r13		
    6a6e:	04 24       	jz	$+10     	;abs 0x6a78
    6a70:	1d 52 78 24 	add	&0x2478,r13	
    6a74:	6d 4d       	mov.b	@r13,	r13	
    6a76:	01 3c       	jmp	$+4      	;abs 0x6a7a
    6a78:	4d 43       	clr.b	r13		
    6a7a:	c2 4d 77 00 	mov.b	r13,	&0x0077	
    6a7e:	01 3c       	jmp	$+4      	;abs 0x6a82
    6a80:	4e 4e       	mov.b	r14,	r14	
    6a82:	1c 42 78 24 	mov	&0x2478,r12	
    6a86:	0d 4c       	mov	r12,	r13	
    6a88:	1d 53       	inc	r13		
    6a8a:	82 4d 78 24 	mov	r13,	&0x2478	
    6a8e:	0d 9e       	cmp	r14,	r13	
    6a90:	dd 2b       	jnc	$-68     	;abs 0x6a4c
    6a92:	b0 12 16 6a 	call	#0x6a16	
    6a96:	3b 41       	pop	r11		
    6a98:	30 41       	ret			

00006a9a <CC2420SpiP__WorkingState__isIdle>:
    6a9a:	0b 12       	push	r11		
    6a9c:	b0 12 04 6a 	call	#0x6a04	
    6aa0:	5b 43       	mov.b	#1,	r11	;r3 As==01
    6aa2:	c2 93 8c 1c 	tst.b	&0x1c8c	
    6aa6:	01 24       	jz	$+4      	;abs 0x6aaa
    6aa8:	4b 43       	clr.b	r11		
    6aaa:	b0 12 16 6a 	call	#0x6a16	
    6aae:	4f 4b       	mov.b	r11,	r15	
    6ab0:	3b 41       	pop	r11		
    6ab2:	30 41       	ret			

00006ab4 <CC2420SpiP__Strobe__strobe>:
    6ab4:	0b 12       	push	r11		
    6ab6:	0a 12       	push	r10		
    6ab8:	4a 4f       	mov.b	r15,	r10	
    6aba:	b0 12 04 6a 	call	#0x6a04	
    6abe:	4b 4f       	mov.b	r15,	r11	
    6ac0:	b0 12 9a 6a 	call	#0x6a9a	
    6ac4:	4f 93       	tst.b	r15		
    6ac6:	05 24       	jz	$+12     	;abs 0x6ad2
    6ac8:	4f 4b       	mov.b	r11,	r15	
    6aca:	b0 12 16 6a 	call	#0x6a16	
    6ace:	4f 43       	clr.b	r15		
    6ad0:	06 3c       	jmp	$+14     	;abs 0x6ade
    6ad2:	4f 4b       	mov.b	r11,	r15	
    6ad4:	b0 12 16 6a 	call	#0x6a16	
    6ad8:	4f 4a       	mov.b	r10,	r15	
    6ada:	b0 12 88 49 	call	#0x4988	
    6ade:	3a 41       	pop	r10		
    6ae0:	3b 41       	pop	r11		
    6ae2:	30 41       	ret			

00006ae4 <CC2420CsmaP__SplitControlState__isState>:
    6ae4:	0b 12       	push	r11		
    6ae6:	0a 12       	push	r10		
    6ae8:	4a 4f       	mov.b	r15,	r10	
    6aea:	b0 12 04 6a 	call	#0x6a04	
    6aee:	5b 43       	mov.b	#1,	r11	;r3 As==01
    6af0:	5a 92 8d 1c 	cmp.b	&0x1c8d,r10	
    6af4:	01 24       	jz	$+4      	;abs 0x6af8
    6af6:	4b 43       	clr.b	r11		
    6af8:	b0 12 16 6a 	call	#0x6a16	
    6afc:	4f 4b       	mov.b	r11,	r15	
    6afe:	3a 41       	pop	r10		
    6b00:	3b 41       	pop	r11		
    6b02:	30 41       	ret			

00006b04 <Msp430GpioC__5__GeneralIO__clr>:
    6b04:	b0 12 04 6a 	call	#0x6a04	
    6b08:	f2 f0 fb ff 1d 00 	and.b	#-5,	&0x001d	;#0xfffb
    6b0e:	b0 12 16 6a 	call	#0x6a16	
    6b12:	30 41       	ret			

00006b14 <SchedulerBasicP__TaskBasic__postTask>:
    6b14:	0b 12       	push	r11		
    6b16:	4b 4f       	mov.b	r15,	r11	
    6b18:	b0 12 04 6a 	call	#0x6a04	
    6b1c:	4e 4b       	mov.b	r11,	r14	
    6b1e:	fe 93 74 12 	cmp.b	#-1,	4724(r14);r3 As==11, 0x1274(r14)
    6b22:	06 20       	jnz	$+14     	;abs 0x6b30
    6b24:	1e 43       	mov	#1,	r14	;r3 As==01
    6b26:	c2 9b 33 2a 	cmp.b	r11,	&0x2a33	
    6b2a:	03 24       	jz	$+8      	;abs 0x6b32
    6b2c:	0e 43       	clr	r14		
    6b2e:	01 3c       	jmp	$+4      	;abs 0x6b32
    6b30:	1e 43       	mov	#1,	r14	;r3 As==01
    6b32:	0e 93       	tst	r14		
    6b34:	0e 20       	jnz	$+30     	;abs 0x6b52
    6b36:	f2 93 61 24 	cmp.b	#-1,	&0x2461	;r3 As==11
    6b3a:	03 20       	jnz	$+8      	;abs 0x6b42
    6b3c:	c2 4b 61 24 	mov.b	r11,	&0x2461	
    6b40:	04 3c       	jmp	$+10     	;abs 0x6b4a
    6b42:	5e 42 33 2a 	mov.b	&0x2a33,r14	
    6b46:	ce 4b 74 12 	mov.b	r11,	4724(r14);0x1274(r14)
    6b4a:	c2 4b 33 2a 	mov.b	r11,	&0x2a33	
    6b4e:	4b 43       	clr.b	r11		
    6b50:	02 3c       	jmp	$+6      	;abs 0x6b56
    6b52:	7b 40 05 00 	mov.b	#5,	r11	;#0x0005
    6b56:	b0 12 16 6a 	call	#0x6a16	
    6b5a:	4f 4b       	mov.b	r11,	r15	
    6b5c:	3b 41       	pop	r11		
    6b5e:	30 41       	ret			

00006b60 <CC2420SpiP__attemptRelease>:
    6b60:	c2 93 ca 11 	tst.b	&0x11ca	
    6b64:	39 20       	jnz	$+116    	;abs 0x6bd8
    6b66:	f2 93 3d 11 	cmp.b	#-1,	&0x113d	;r3 As==11
    6b6a:	36 20       	jnz	$+110    	;abs 0x6bd8
    6b6c:	b0 12 9a 6a 	call	#0x6a9a	
    6b70:	4f 93       	tst.b	r15		
    6b72:	32 24       	jz	$+102    	;abs 0x6bd8
    6b74:	d2 43 70 23 	mov.b	#1,	&0x2370	;r3 As==01
    6b78:	c2 93 70 12 	tst.b	&0x1270	
    6b7c:	02 24       	jz	$+6      	;abs 0x6b82
    6b7e:	c2 43 70 23 	mov.b	#0,	&0x2370	;r3 As==00
    6b82:	c2 93 70 23 	tst.b	&0x2370	
    6b86:	2a 24       	jz	$+86     	;abs 0x6bdc
    6b88:	f2 90 03 00 c8 11 	cmp.b	#3,	&0x11c8	;#0x0003
    6b8e:	29 20       	jnz	$+84     	;abs 0x6be2
    6b90:	c2 93 3a 11 	tst.b	&0x113a	
    6b94:	28 20       	jnz	$+82     	;abs 0x6be6
    6b96:	5e 42 3c 11 	mov.b	&0x113c,r14	
    6b9a:	7e 93       	cmp.b	#-1,	r14	;r3 As==11
    6b9c:	16 24       	jz	$+46     	;abs 0x6bca
    6b9e:	4f 4e       	mov.b	r14,	r15	
    6ba0:	5d 4f 8a 24 	mov.b	9354(r15),r13	;0x248a(r15)
    6ba4:	c2 4d 3c 11 	mov.b	r13,	&0x113c	
    6ba8:	7d 93       	cmp.b	#-1,	r13	;r3 As==11
    6baa:	02 20       	jnz	$+6      	;abs 0x6bb0
    6bac:	f2 43 3b 11 	mov.b	#-1,	&0x113b	;r3 As==11
    6bb0:	ff 43 8a 24 	mov.b	#-1,	9354(r15);r3 As==11, 0x248a(r15)
    6bb4:	c2 4e ce 14 	mov.b	r14,	&0x14ce	
    6bb8:	f2 43 3a 11 	mov.b	#-1,	&0x113a	;r3 As==11
    6bbc:	d2 43 c8 11 	mov.b	#1,	&0x11c8	;r3 As==01
    6bc0:	7f 40 12 00 	mov.b	#18,	r15	;#0x0012
    6bc4:	b0 12 14 6b 	call	#0x6b14	
    6bc8:	04 3c       	jmp	$+10     	;abs 0x6bd2
    6bca:	d2 43 3a 11 	mov.b	#1,	&0x113a	;r3 As==01
    6bce:	c2 43 c8 11 	mov.b	#0,	&0x11c8	;r3 As==00
    6bd2:	b0 12 7c 58 	call	#0x587c	
    6bd6:	05 3c       	jmp	$+12     	;abs 0x6be2
    6bd8:	5f 43       	mov.b	#1,	r15	;r3 As==01
    6bda:	30 41       	ret			
    6bdc:	7f 40 05 00 	mov.b	#5,	r15	;#0x0005
    6be0:	30 41       	ret			
    6be2:	4f 43       	clr.b	r15		
    6be4:	30 41       	ret			
    6be6:	4f 43       	clr.b	r15		
    6be8:	30 41       	ret			

00006bea <ArbiterP__1__ResourceDefaultOwner__release>:
    6bea:	d2 93 3a 11 	cmp.b	#1,	&0x113a	;r3 As==01
    6bee:	13 20       	jnz	$+40     	;abs 0x6c16
    6bf0:	5f 42 c8 11 	mov.b	&0x11c8,r15	
    6bf4:	5f 93       	cmp.b	#1,	r15	;r3 As==01
    6bf6:	05 20       	jnz	$+12     	;abs 0x6c02
    6bf8:	7f 40 12 00 	mov.b	#18,	r15	;#0x0012
    6bfc:	b0 12 14 6b 	call	#0x6b14	
    6c00:	08 3c       	jmp	$+18     	;abs 0x6c12
    6c02:	6f 93       	cmp.b	#2,	r15	;r3 As==10
    6c04:	0a 20       	jnz	$+22     	;abs 0x6c1a
    6c06:	d2 42 ce 14 3a 11 	mov.b	&0x14ce,&0x113a	
    6c0c:	f2 40 03 00 c8 11 	mov.b	#3,	&0x11c8	;#0x0003
    6c12:	4f 43       	clr.b	r15		
    6c14:	30 41       	ret			
    6c16:	5f 43       	mov.b	#1,	r15	;r3 As==01
    6c18:	30 41       	ret			
    6c1a:	5f 43       	mov.b	#1,	r15	;r3 As==01
    6c1c:	30 41       	ret			

00006c1e <PppP__Ppp__sendOutputFrame>:
    6c1e:	b0 12 3a 4c 	call	#0x4c3a	
    6c22:	0f 93       	tst	r15		
    6c24:	16 24       	jz	$+46     	;abs 0x6c52
    6c26:	5e 4f 04 00 	mov.b	4(r15),	r14	;0x0004(r15)
    6c2a:	7e f0 f0 ff 	and.b	#-16,	r14	;#0xfff0
    6c2e:	7e d0 03 00 	bis.b	#3,	r14	;#0x0003
    6c32:	cf 4e 04 00 	mov.b	r14,	4(r15)	;0x0004(r15)
    6c36:	5d 42 38 1c 	mov.b	&0x1c38,r13	
    6c3a:	4e 4d       	mov.b	r13,	r14	
    6c3c:	0e 5e       	rla	r14		
    6c3e:	8e 4f 7a 1c 	mov	r15,	7290(r14);0x1c7a(r14)
    6c42:	5d 53       	inc.b	r13		
    6c44:	c2 4d 38 1c 	mov.b	r13,	&0x1c38	
    6c48:	5f 43       	mov.b	#1,	r15	;r3 As==01
    6c4a:	b0 12 14 6b 	call	#0x6b14	
    6c4e:	4f 43       	clr.b	r15		
    6c50:	30 41       	ret			
    6c52:	7f 40 06 00 	mov.b	#6,	r15	;#0x0006
    6c56:	30 41       	ret			

00006c58 <IPForwardingEngineP__ForwardingTable__addRoute>:
    6c58:	0b 12       	push	r11		
    6c5a:	0a 12       	push	r10		
    6c5c:	09 12       	push	r9		
    6c5e:	08 12       	push	r8		
    6c60:	07 12       	push	r7		
    6c62:	06 12       	push	r6		
    6c64:	05 12       	push	r5		
    6c66:	04 12       	push	r4		
    6c68:	21 83       	decd	r1		
    6c6a:	04 4f       	mov	r15,	r4	
    6c6c:	09 4e       	mov	r14,	r9	
    6c6e:	05 4d       	mov	r13,	r5	
    6c70:	c1 4c 00 00 	mov.b	r12,	0(r1)	;0x0000(r1)
    6c74:	3e b0 07 00 	bit	#7,	r14	;#0x0007
    6c78:	d3 20       	jnz	$+424    	;abs 0x6e20
    6c7a:	3e 90 81 00 	cmp	#129,	r14	;#0x0081
    6c7e:	d0 34       	jge	$+418    	;abs 0x6e20
    6c80:	b0 12 2a 56 	call	#0x562a	
    6c84:	0b 4f       	mov	r15,	r11	
    6c86:	0f 93       	tst	r15		
    6c88:	04 24       	jz	$+10     	;abs 0x6c92
    6c8a:	5d 4f 14 00 	mov.b	20(r15),r13	;0x0014(r15)
    6c8e:	0d 99       	cmp	r9,	r13	
    6c90:	ab 24       	jz	$+344    	;abs 0x6de8
    6c92:	d2 b3 fa 1a 	bit.b	#1,	&0x1afa	;r3 As==01
    6c96:	9f 20       	jnz	$+320    	;abs 0x6dd6
    6c98:	38 40 16 18 	mov	#6166,	r8	;#0x1816
    6c9c:	0a 43       	clr	r10		
    6c9e:	02 12       	push	r2		
    6ca0:	32 c2       	dint			
    6ca2:	03 43       	nop			
    6ca4:	82 4a 32 01 	mov	r10,	&0x0132	
    6ca8:	b2 40 28 00 38 01 	mov	#40,	&0x0138	;#0x0028
    6cae:	1d 42 3a 01 	mov	&0x013a,r13	
    6cb2:	32 41       	pop	r2		
    6cb4:	5b 4d 02 18 	mov.b	6146(r13),r11	;0x1802(r13)
    6cb8:	0b 11       	rra	r11		
    6cba:	0b 43       	clr	r11		
    6cbc:	4b 10       	rrc.b	r11		
    6cbe:	4b 4b       	mov.b	r11,	r11	
    6cc0:	8b 11       	sxt	r11		
    6cc2:	8b 10       	swpb	r11		
    6cc4:	4b 93       	tst.b	r11		
    6cc6:	37 24       	jz	$+112    	;abs 0x6d36
    6cc8:	6d 48       	mov.b	@r8,	r13	
    6cca:	0d 99       	cmp	r9,	r13	
    6ccc:	07 38       	jl	$+16     	;abs 0x6cdc
    6cce:	1a 53       	inc	r10		
    6cd0:	38 50 28 00 	add	#40,	r8	;#0x0028
    6cd4:	3a 90 14 00 	cmp	#20,	r10	;#0x0014
    6cd8:	e2 23       	jnz	$-58     	;abs 0x6c9e
    6cda:	7d 3c       	jmp	$+252    	;abs 0x6dd6
    6cdc:	3b 40 13 00 	mov	#19,	r11	;#0x0013
    6ce0:	0b 8a       	sub	r10,	r11	
    6ce2:	02 12       	push	r2		
    6ce4:	32 c2       	dint			
    6ce6:	03 43       	nop			
    6ce8:	82 4b 32 01 	mov	r11,	&0x0132	
    6cec:	b2 40 28 00 38 01 	mov	#40,	&0x0138	;#0x0028
    6cf2:	1d 42 3a 01 	mov	&0x013a,r13	
    6cf6:	32 41       	pop	r2		
    6cf8:	02 12       	push	r2		
    6cfa:	32 c2       	dint			
    6cfc:	03 43       	nop			
    6cfe:	82 4a 32 01 	mov	r10,	&0x0132	
    6d02:	b2 40 28 00 38 01 	mov	#40,	&0x0138	;#0x0028
    6d08:	1b 42 3a 01 	mov	&0x013a,r11	
    6d0c:	32 41       	pop	r2		
    6d0e:	3b 50 02 18 	add	#6146,	r11	;#0x1802
    6d12:	0f 4a       	mov	r10,	r15	
    6d14:	1f 53       	inc	r15		
    6d16:	02 12       	push	r2		
    6d18:	32 c2       	dint			
    6d1a:	03 43       	nop			
    6d1c:	82 4f 32 01 	mov	r15,	&0x0132	
    6d20:	b2 40 28 00 38 01 	mov	#40,	&0x0138	;#0x0028
    6d26:	1f 42 3a 01 	mov	&0x013a,r15	
    6d2a:	32 41       	pop	r2		
    6d2c:	0e 4b       	mov	r11,	r14	
    6d2e:	3f 50 02 18 	add	#6146,	r15	;#0x1802
    6d32:	b0 12 9a f0 	call	#0xf09a	
    6d36:	02 12       	push	r2		
    6d38:	32 c2       	dint			
    6d3a:	03 43       	nop			
    6d3c:	82 4a 32 01 	mov	r10,	&0x0132	
    6d40:	b2 40 28 00 38 01 	mov	#40,	&0x0138	;#0x0028
    6d46:	1b 42 3a 01 	mov	&0x013a,r11	
    6d4a:	32 41       	pop	r2		
    6d4c:	db d3 02 18 	bis.b	#1,	6146(r11);r3 As==01, 0x1802(r11)
    6d50:	18 42 3e 11 	mov	&0x113e,r8	
    6d54:	01 3c       	jmp	$+4      	;abs 0x6d58
    6d56:	08 4d       	mov	r13,	r8	
    6d58:	0d 48       	mov	r8,	r13	
    6d5a:	1d 53       	inc	r13		
    6d5c:	36 40 04 18 	mov	#6148,	r6	;#0x1804
    6d60:	07 43       	clr	r7		
    6d62:	02 12       	push	r2		
    6d64:	32 c2       	dint			
    6d66:	03 43       	nop			
    6d68:	82 47 32 01 	mov	r7,	&0x0132	
    6d6c:	b2 40 28 00 38 01 	mov	#40,	&0x0138	;#0x0028
    6d72:	1b 42 3a 01 	mov	&0x013a,r11	
    6d76:	32 41       	pop	r2		
    6d78:	5b 4b 02 18 	mov.b	6146(r11),r11	;0x1802(r11)
    6d7c:	0b 11       	rra	r11		
    6d7e:	0b 43       	clr	r11		
    6d80:	4b 10       	rrc.b	r11		
    6d82:	4b 4b       	mov.b	r11,	r11	
    6d84:	8b 11       	sxt	r11		
    6d86:	8b 10       	swpb	r11		
    6d88:	4b 93       	tst.b	r11		
    6d8a:	02 24       	jz	$+6      	;abs 0x6d90
    6d8c:	28 96       	cmp	@r6,	r8	
    6d8e:	e3 27       	jz	$-56     	;abs 0x6d56
    6d90:	17 53       	inc	r7		
    6d92:	36 50 28 00 	add	#40,	r6	;#0x0028
    6d96:	37 90 14 00 	cmp	#20,	r7	;#0x0014
    6d9a:	e3 23       	jnz	$-56     	;abs 0x6d62
    6d9c:	82 4d 3e 11 	mov	r13,	&0x113e	
    6da0:	02 12       	push	r2		
    6da2:	32 c2       	dint			
    6da4:	03 43       	nop			
    6da6:	82 4a 32 01 	mov	r10,	&0x0132	
    6daa:	b2 40 28 00 38 01 	mov	#40,	&0x0138	;#0x0028
    6db0:	1d 42 3a 01 	mov	&0x013a,r13	
    6db4:	32 41       	pop	r2		
    6db6:	8d 48 04 18 	mov	r8,	6148(r13);0x1804(r13)
    6dba:	02 12       	push	r2		
    6dbc:	32 c2       	dint			
    6dbe:	03 43       	nop			
    6dc0:	82 4a 32 01 	mov	r10,	&0x0132	
    6dc4:	b2 40 28 00 38 01 	mov	#40,	&0x0138	;#0x0028
    6dca:	1b 42 3a 01 	mov	&0x013a,r11	
    6dce:	32 41       	pop	r2		
    6dd0:	3b 50 02 18 	add	#6146,	r11	;#0x1802
    6dd4:	01 3c       	jmp	$+4      	;abs 0x6dd8
    6dd6:	0b 43       	clr	r11		
    6dd8:	09 93       	tst	r9		
    6dda:	04 20       	jnz	$+10     	;abs 0x6de4
    6ddc:	7f 40 0c 00 	mov.b	#12,	r15	;#0x000c
    6de0:	b0 12 14 6b 	call	#0x6b14	
    6de4:	0b 93       	tst	r11		
    6de6:	1c 24       	jz	$+58     	;abs 0x6e20
    6de8:	cb 49 14 00 	mov.b	r9,	20(r11)	;0x0014(r11)
    6dec:	eb 41 26 00 	mov.b	@r1,	38(r11)	;0x0026(r11)
    6df0:	39 92       	cmp	#8,	r9	;r2 As==11
    6df2:	09 38       	jl	$+20     	;abs 0x6e06
    6df4:	0d 49       	mov	r9,	r13	
    6df6:	0d 11       	rra	r13		
    6df8:	0d 11       	rra	r13		
    6dfa:	0d 11       	rra	r13		
    6dfc:	0e 44       	mov	r4,	r14	
    6dfe:	0f 4b       	mov	r11,	r15	
    6e00:	2f 52       	add	#4,	r15	;r2 As==10
    6e02:	b0 12 a0 ef 	call	#0xefa0	
    6e06:	05 93       	tst	r5		
    6e08:	08 24       	jz	$+18     	;abs 0x6e1a
    6e0a:	3d 40 10 00 	mov	#16,	r13	;#0x0010
    6e0e:	0e 45       	mov	r5,	r14	
    6e10:	0f 4b       	mov	r11,	r15	
    6e12:	3f 50 16 00 	add	#22,	r15	;#0x0016
    6e16:	b0 12 a0 ef 	call	#0xefa0	
    6e1a:	1f 4b 02 00 	mov	2(r11),	r15	;0x0002(r11)
    6e1e:	01 3c       	jmp	$+4      	;abs 0x6e22
    6e20:	3f 43       	mov	#-1,	r15	;r3 As==11
    6e22:	21 53       	incd	r1		
    6e24:	34 41       	pop	r4		
    6e26:	35 41       	pop	r5		
    6e28:	36 41       	pop	r6		
    6e2a:	37 41       	pop	r7		
    6e2c:	38 41       	pop	r8		
    6e2e:	39 41       	pop	r9		
    6e30:	3a 41       	pop	r10		
    6e32:	3b 41       	pop	r11		
    6e34:	30 41       	ret			

00006e36 <CC2420SpiP__SpiPacket__send.part.244>:
    6e36:	b0 12 04 6a 	call	#0x6a04	
    6e3a:	f2 f0 bf ff 02 00 	and.b	#-65,	&0x0002	;#0xffbf
    6e40:	f2 d0 40 00 00 00 	bis.b	#64,	&0x0000	;#0x0040
    6e46:	b0 12 16 6a 	call	#0x6a16	
    6e4a:	b0 12 1e 6a 	call	#0x6a1e	
    6e4e:	30 41       	ret			

00006e50 <CC2420ReceiveP__RXFIFO__continueRead>:
    6e50:	4e 4e       	mov.b	r14,	r14	
    6e52:	c2 43 94 15 	mov.b	#0,	&0x1594	;r3 As==00
    6e56:	82 43 32 15 	mov	#0,	&0x1532	;r3 As==00
    6e5a:	82 4f e4 1b 	mov	r15,	&0x1be4	
    6e5e:	82 4e 88 24 	mov	r14,	&0x2488	
    6e62:	82 43 78 24 	mov	#0,	&0x2478	;r3 As==00
    6e66:	0e 93       	tst	r14		
    6e68:	03 24       	jz	$+8      	;abs 0x6e70
    6e6a:	b0 12 36 6e 	call	#0x6e36	
    6e6e:	04 3c       	jmp	$+10     	;abs 0x6e78
    6e70:	7f 40 11 00 	mov.b	#17,	r15	;#0x0011
    6e74:	b0 12 14 6b 	call	#0x6b14	
    6e78:	4f 43       	clr.b	r15		
    6e7a:	30 41       	ret			

00006e7c <CC2420ReceiveP__RXFIFO__beginRead>:
    6e7c:	0b 12       	push	r11		
    6e7e:	0a 12       	push	r10		
    6e80:	09 12       	push	r9		
    6e82:	0a 4f       	mov	r15,	r10	
    6e84:	49 4e       	mov.b	r14,	r9	
    6e86:	b0 12 04 6a 	call	#0x6a04	
    6e8a:	4b 4f       	mov.b	r15,	r11	
    6e8c:	b0 12 9a 6a 	call	#0x6a9a	
    6e90:	4f 93       	tst.b	r15		
    6e92:	05 24       	jz	$+12     	;abs 0x6e9e
    6e94:	4f 4b       	mov.b	r11,	r15	
    6e96:	b0 12 16 6a 	call	#0x6a16	
    6e9a:	4b 43       	clr.b	r11		
    6e9c:	1f 3c       	jmp	$+64     	;abs 0x6edc
    6e9e:	4f 4b       	mov.b	r11,	r15	
    6ea0:	b0 12 16 6a 	call	#0x6a16	
    6ea4:	b2 40 7f 00 96 15 	mov	#127,	&0x1596	;#0x007f
    6eaa:	7f 40 7f 00 	mov.b	#127,	r15	;#0x007f
    6eae:	b0 12 88 49 	call	#0x4988	
    6eb2:	4b 4f       	mov.b	r15,	r11	
    6eb4:	4e 49       	mov.b	r9,	r14	
    6eb6:	c2 43 94 15 	mov.b	#0,	&0x1594	;r3 As==00
    6eba:	82 43 32 15 	mov	#0,	&0x1532	;r3 As==00
    6ebe:	82 4a e4 1b 	mov	r10,	&0x1be4	
    6ec2:	82 4e 88 24 	mov	r14,	&0x2488	
    6ec6:	82 43 78 24 	mov	#0,	&0x2478	;r3 As==00
    6eca:	0e 93       	tst	r14		
    6ecc:	03 24       	jz	$+8      	;abs 0x6ed4
    6ece:	b0 12 36 6e 	call	#0x6e36	
    6ed2:	04 3c       	jmp	$+10     	;abs 0x6edc
    6ed4:	7f 40 11 00 	mov.b	#17,	r15	;#0x0011
    6ed8:	b0 12 14 6b 	call	#0x6b14	
    6edc:	4f 4b       	mov.b	r11,	r15	
    6ede:	39 41       	pop	r9		
    6ee0:	3a 41       	pop	r10		
    6ee2:	3b 41       	pop	r11		
    6ee4:	30 41       	ret			

00006ee6 <CC2420ReceiveP__receive>:
    6ee6:	b0 12 04 6b 	call	#0x6b04	
    6eea:	5e 43       	mov.b	#1,	r14	;r3 As==01
    6eec:	1f 42 f0 11 	mov	&0x11f0,r15	
    6ef0:	b0 12 7c 6e 	call	#0x6e7c	
    6ef4:	30 41       	ret			

00006ef6 <CC2420TransmitP__Send__sendDone.isra.256>:
    6ef6:	0b 12       	push	r11		
    6ef8:	4b 4f       	mov.b	r15,	r11	
    6efa:	b0 12 04 6a 	call	#0x6a04	
    6efe:	c2 4b c4 11 	mov.b	r11,	&0x11c4	
    6f02:	b0 12 16 6a 	call	#0x6a16	
    6f06:	7f 40 18 00 	mov.b	#24,	r15	;#0x0018
    6f0a:	b0 12 14 6b 	call	#0x6b14	
    6f0e:	3b 41       	pop	r11		
    6f10:	30 41       	ret			

00006f12 <CC2420TransmitP__signalDone>:
    6f12:	0b 12       	push	r11		
    6f14:	4b 4f       	mov.b	r15,	r11	
    6f16:	92 43 c2 11 	mov	#1,	&0x11c2	;r3 As==01
    6f1a:	c2 43 70 12 	mov.b	#0,	&0x1270	;r3 As==00
    6f1e:	b0 12 60 6b 	call	#0x6b60	
    6f22:	4f 4b       	mov.b	r11,	r15	
    6f24:	b0 12 f6 6e 	call	#0x6ef6	
    6f28:	3b 41       	pop	r11		
    6f2a:	30 41       	ret			

00006f2c <StateImplP__State__toIdle>:
    6f2c:	0b 12       	push	r11		
    6f2e:	4b 4f       	mov.b	r15,	r11	
    6f30:	b0 12 04 6a 	call	#0x6a04	
    6f34:	4e 4b       	mov.b	r11,	r14	
    6f36:	ce 43 8c 1c 	mov.b	#0,	7308(r14);r3 As==00, 0x1c8c(r14)
    6f3a:	b0 12 16 6a 	call	#0x6a16	
    6f3e:	3b 41       	pop	r11		
    6f40:	30 41       	ret			

00006f42 <Msp430GpioC__5__GeneralIO__set>:
    6f42:	b0 12 04 6a 	call	#0x6a04	
    6f46:	e2 d2 1d 00 	bis.b	#4,	&0x001d	;r2 As==10
    6f4a:	b0 12 16 6a 	call	#0x6a16	
    6f4e:	30 41       	ret			

00006f50 <CC2420SpiP__Resource__release>:
    6f50:	0b 12       	push	r11		
    6f52:	0a 12       	push	r10		
    6f54:	09 12       	push	r9		
    6f56:	4b 4f       	mov.b	r15,	r11	
    6f58:	b0 12 04 6a 	call	#0x6a04	
    6f5c:	4a 4f       	mov.b	r15,	r10	
    6f5e:	c2 9b 3d 11 	cmp.b	r11,	&0x113d	
    6f62:	04 24       	jz	$+10     	;abs 0x6f6c
    6f64:	b0 12 16 6a 	call	#0x6a16	
    6f68:	5f 43       	mov.b	#1,	r15	;r3 As==01
    6f6a:	49 3c       	jmp	$+148    	;abs 0x6ffe
    6f6c:	f2 43 3d 11 	mov.b	#-1,	&0x113d	;r3 As==11
    6f70:	5b 42 ca 11 	mov.b	&0x11ca,r11	
    6f74:	4b 93       	tst.b	r11		
    6f76:	06 20       	jnz	$+14     	;abs 0x6f84
    6f78:	4f 43       	clr.b	r15		
    6f7a:	b0 12 2c 6f 	call	#0x6f2c	
    6f7e:	b0 12 60 6b 	call	#0x6b60	
    6f82:	35 3c       	jmp	$+108    	;abs 0x6fee
    6f84:	4c 43       	clr.b	r12		
    6f86:	49 4b       	mov.b	r11,	r9	
    6f88:	02 12       	push	r2		
    6f8a:	32 c2       	dint			
    6f8c:	03 43       	nop			
    6f8e:	c2 4c 30 01 	mov.b	r12,	&0x0130	
    6f92:	f2 40 cd ff 38 01 	mov.b	#-51,	&0x0138	;#0xffcd
    6f98:	1e 42 3a 01 	mov	&0x013a,r14	
    6f9c:	32 41       	pop	r2		
    6f9e:	8e 10       	swpb	r14		
    6fa0:	12 c3       	clrc			
    6fa2:	4e 10       	rrc.b	r14		
    6fa4:	12 c3       	clrc			
    6fa6:	4e 10       	rrc.b	r14		
    6fa8:	4d 4e       	mov.b	r14,	r13	
    6faa:	4d 5d       	rla.b	r13		
    6fac:	4d 5d       	rla.b	r13		
    6fae:	4e 5d       	add.b	r13,	r14	
    6fb0:	4c 8e       	sub.b	r14,	r12	
    6fb2:	4e 4c       	mov.b	r12,	r14	
    6fb4:	4f 4c       	mov.b	r12,	r15	
    6fb6:	0d 49       	mov	r9,	r13	
    6fb8:	7c f0 0f 00 	and.b	#15,	r12	;#0x000f
    6fbc:	4c 93       	tst.b	r12		
    6fbe:	03 24       	jz	$+8      	;abs 0x6fc6
    6fc0:	0d 11       	rra	r13		
    6fc2:	7c 53       	add.b	#-1,	r12	;r3 As==11
    6fc4:	fb 3f       	jmp	$-8      	;abs 0x6fbc
    6fc6:	1d f3       	and	#1,	r13	;r3 As==01
    6fc8:	17 24       	jz	$+48     	;abs 0x6ff8
    6fca:	c2 4e 3d 11 	mov.b	r14,	&0x113d	
    6fce:	1e 43       	mov	#1,	r14	;r3 As==01
    6fd0:	4d 4f       	mov.b	r15,	r13	
    6fd2:	7d f0 0f 00 	and.b	#15,	r13	;#0x000f
    6fd6:	4d 93       	tst.b	r13		
    6fd8:	03 24       	jz	$+8      	;abs 0x6fe0
    6fda:	0e 5e       	rla	r14		
    6fdc:	7d 53       	add.b	#-1,	r13	;r3 As==11
    6fde:	fb 3f       	jmp	$-8      	;abs 0x6fd6
    6fe0:	4b ce       	bic.b	r14,	r11	
    6fe2:	c2 4b ca 11 	mov.b	r11,	&0x11ca	
    6fe6:	7f 40 10 00 	mov.b	#16,	r15	;#0x0010
    6fea:	b0 12 14 6b 	call	#0x6b14	
    6fee:	4f 4a       	mov.b	r10,	r15	
    6ff0:	b0 12 16 6a 	call	#0x6a16	
    6ff4:	4f 43       	clr.b	r15		
    6ff6:	03 3c       	jmp	$+8      	;abs 0x6ffe
    6ff8:	4c 4e       	mov.b	r14,	r12	
    6ffa:	5c 53       	inc.b	r12		
    6ffc:	c5 3f       	jmp	$-116    	;abs 0x6f88
    6ffe:	39 41       	pop	r9		
    7000:	3a 41       	pop	r10		
    7002:	3b 41       	pop	r11		
    7004:	30 41       	ret			

00007006 <CC2420TransmitP__releaseSpiResource>:
    7006:	7f 40 03 00 	mov.b	#3,	r15	;#0x0003
    700a:	b0 12 50 6f 	call	#0x6f50	
    700e:	4f 43       	clr.b	r15		
    7010:	30 41       	ret			

00007012 <RandomMlcgC__Random__rand32>:
    7012:	0b 12       	push	r11		
    7014:	0a 12       	push	r10		
    7016:	09 12       	push	r9		
    7018:	08 12       	push	r8		
    701a:	07 12       	push	r7		
    701c:	06 12       	push	r6		
    701e:	05 12       	push	r5		
    7020:	b0 12 04 6a 	call	#0x6a04	
    7024:	45 4f       	mov.b	r15,	r5	
    7026:	3c 40 4e 83 	mov	#-31922,r12	;#0x834e
    702a:	0d 43       	clr	r13		
    702c:	1e 42 26 15 	mov	&0x1526,r14	
    7030:	1f 42 28 15 	mov	&0x1528,r15	
    7034:	b0 12 38 ee 	call	#0xee38	
    7038:	07 4d       	mov	r13,	r7	
    703a:	08 4e       	mov	r14,	r8	
    703c:	09 4f       	mov	r15,	r9	
    703e:	0e 4c       	mov	r12,	r14	
    7040:	0f 47       	mov	r7,	r15	
    7042:	12 c3       	clrc			
    7044:	0f 10       	rrc	r15		
    7046:	0e 10       	rrc	r14		
    7048:	08 5e       	add	r14,	r8	
    704a:	09 6f       	addc	r15,	r9	
    704c:	09 93       	tst	r9		
    704e:	05 34       	jge	$+12     	;abs 0x705a
    7050:	38 f3       	and	#-1,	r8	;r3 As==11
    7052:	39 f0 ff 7f 	and	#32767,	r9	;#0x7fff
    7056:	18 53       	inc	r8		
    7058:	09 63       	adc	r9		
    705a:	82 48 26 15 	mov	r8,	&0x1526	
    705e:	82 49 28 15 	mov	r9,	&0x1528	
    7062:	4f 45       	mov.b	r5,	r15	
    7064:	b0 12 16 6a 	call	#0x6a16	
    7068:	0e 48       	mov	r8,	r14	
    706a:	0f 49       	mov	r9,	r15	
    706c:	35 41       	pop	r5		
    706e:	36 41       	pop	r6		
    7070:	37 41       	pop	r7		
    7072:	38 41       	pop	r8		
    7074:	39 41       	pop	r9		
    7076:	3a 41       	pop	r10		
    7078:	3b 41       	pop	r11		
    707a:	30 41       	ret			

0000707c <TransformAlarmC__1__Counter__get>:
    707c:	0b 12       	push	r11		
    707e:	0a 12       	push	r10		
    7080:	09 12       	push	r9		
    7082:	b0 12 04 6a 	call	#0x6a04	
    7086:	49 4f       	mov.b	r15,	r9	
    7088:	1b 42 30 15 	mov	&0x1530,r11	
    708c:	b0 12 9a 4a 	call	#0x4a9a	
    7090:	0a 4f       	mov	r15,	r10	
    7092:	1f 42 80 01 	mov	&0x0180,r15	
    7096:	5f f3       	and.b	#1,	r15	;r3 As==01
    7098:	04 24       	jz	$+10     	;abs 0x70a2
    709a:	1b 53       	inc	r11		
    709c:	b0 12 9a 4a 	call	#0x4a9a	
    70a0:	0a 4f       	mov	r15,	r10	
    70a2:	0c 43       	clr	r12		
    70a4:	0d 43       	clr	r13		
    70a6:	0d 4b       	mov	r11,	r13	
    70a8:	0e 4a       	mov	r10,	r14	
    70aa:	0f 43       	clr	r15		
    70ac:	0a 4c       	mov	r12,	r10	
    70ae:	0b 4d       	mov	r13,	r11	
    70b0:	0a de       	bis	r14,	r10	
    70b2:	0b df       	bis	r15,	r11	
    70b4:	4f 49       	mov.b	r9,	r15	
    70b6:	b0 12 16 6a 	call	#0x6a16	
    70ba:	0e 4a       	mov	r10,	r14	
    70bc:	0f 4b       	mov	r11,	r15	
    70be:	39 41       	pop	r9		
    70c0:	3a 41       	pop	r10		
    70c2:	3b 41       	pop	r11		
    70c4:	30 41       	ret			

000070c6 <TransformAlarmC__1__set_alarm>:
    70c6:	0b 12       	push	r11		
    70c8:	0a 12       	push	r10		
    70ca:	09 12       	push	r9		
    70cc:	08 12       	push	r8		
    70ce:	b0 12 7c 70 	call	#0x707c	
    70d2:	08 4e       	mov	r14,	r8	
    70d4:	09 4f       	mov	r15,	r9	
    70d6:	1e 42 f4 11 	mov	&0x11f4,r14	
    70da:	1f 42 f6 11 	mov	&0x11f6,r15	
    70de:	0a 4e       	mov	r14,	r10	
    70e0:	0b 4f       	mov	r15,	r11	
    70e2:	1a 52 b4 12 	add	&0x12b4,r10	
    70e6:	1b 62 b6 12 	addc	&0x12b6,r11	
    70ea:	09 9f       	cmp	r15,	r9	
    70ec:	09 28       	jnc	$+20     	;abs 0x7100
    70ee:	02 20       	jnz	$+6      	;abs 0x70f4
    70f0:	08 9e       	cmp	r14,	r8	
    70f2:	06 28       	jnc	$+14     	;abs 0x7100
    70f4:	0b 9f       	cmp	r15,	r11	
    70f6:	10 28       	jnc	$+34     	;abs 0x7118
    70f8:	09 20       	jnz	$+20     	;abs 0x710c
    70fa:	0a 9e       	cmp	r14,	r10	
    70fc:	0d 28       	jnc	$+28     	;abs 0x7118
    70fe:	06 3c       	jmp	$+14     	;abs 0x710c
    7100:	0b 9f       	cmp	r15,	r11	
    7102:	04 28       	jnc	$+10     	;abs 0x710c
    7104:	0f 9b       	cmp	r11,	r15	
    7106:	27 28       	jnc	$+80     	;abs 0x7156
    7108:	0a 9e       	cmp	r14,	r10	
    710a:	25 2c       	jc	$+76     	;abs 0x7156
    710c:	09 9b       	cmp	r11,	r9	
    710e:	04 28       	jnc	$+10     	;abs 0x7118
    7110:	0b 99       	cmp	r9,	r11	
    7112:	21 28       	jnc	$+68     	;abs 0x7156
    7114:	08 9a       	cmp	r10,	r8	
    7116:	1f 2c       	jc	$+64     	;abs 0x7156
    7118:	0c 4a       	mov	r10,	r12	
    711a:	0d 4b       	mov	r11,	r13	
    711c:	0c 88       	sub	r8,	r12	
    711e:	0d 79       	subc	r9,	r13	
    7120:	0d 93       	tst	r13		
    7122:	03 20       	jnz	$+8      	;abs 0x712a
    7124:	3c 90 01 80 	cmp	#-32767,r12	;#0x8001
    7128:	18 28       	jnc	$+50     	;abs 0x715a
    712a:	0e 48       	mov	r8,	r14	
    712c:	0f 49       	mov	r9,	r15	
    712e:	3e 50 00 80 	add	#-32768,r14	;#0x8000
    7132:	0f 63       	adc	r15		
    7134:	82 4e f4 11 	mov	r14,	&0x11f4	
    7138:	82 4f f6 11 	mov	r15,	&0x11f6	
    713c:	0e 4c       	mov	r12,	r14	
    713e:	0f 4d       	mov	r13,	r15	
    7140:	3e 50 00 80 	add	#-32768,r14	;#0x8000
    7144:	3f 63       	addc	#-1,	r15	;r3 As==11
    7146:	82 4e b4 12 	mov	r14,	&0x12b4	
    714a:	82 4f b6 12 	mov	r15,	&0x12b6	
    714e:	3c 40 00 80 	mov	#-32768,r12	;#0x8000
    7152:	0d 43       	clr	r13		
    7154:	0a 3c       	jmp	$+22     	;abs 0x716a
    7156:	0c 43       	clr	r12		
    7158:	0d 43       	clr	r13		
    715a:	82 4a f4 11 	mov	r10,	&0x11f4	
    715e:	82 4b f6 11 	mov	r11,	&0x11f6	
    7162:	82 43 b4 12 	mov	#0,	&0x12b4	;r3 As==00
    7166:	82 43 b6 12 	mov	#0,	&0x12b6	;r3 As==00
    716a:	0a 4c       	mov	r12,	r10	
    716c:	b0 12 9a 4a 	call	#0x4a9a	
    7170:	0e 4f       	mov	r15,	r14	
    7172:	0e 88       	sub	r8,	r14	
    7174:	0e 9a       	cmp	r10,	r14	
    7176:	05 2c       	jc	$+12     	;abs 0x7182
    7178:	0c 4a       	mov	r10,	r12	
    717a:	0c 8e       	sub	r14,	r12	
    717c:	3c 90 03 00 	cmp	#3,	r12	;#0x0003
    7180:	06 2c       	jc	$+14     	;abs 0x718e
    7182:	b0 12 9a 4a 	call	#0x4a9a	
    7186:	2f 53       	incd	r15		
    7188:	82 4f 98 01 	mov	r15,	&0x0198	
    718c:	03 3c       	jmp	$+8      	;abs 0x7194
    718e:	0c 5f       	add	r15,	r12	
    7190:	82 4c 98 01 	mov	r12,	&0x0198	
    7194:	b2 f0 fe ff 88 01 	and	#-2,	&0x0188	;#0xfffe
    719a:	b2 d0 10 00 88 01 	bis	#16,	&0x0188	;#0x0010
    71a0:	38 41       	pop	r8		
    71a2:	39 41       	pop	r9		
    71a4:	3a 41       	pop	r10		
    71a6:	3b 41       	pop	r11		
    71a8:	30 41       	ret			

000071aa <TransformAlarmC__1__Alarm__start>:
    71aa:	0b 12       	push	r11		
    71ac:	0a 12       	push	r10		
    71ae:	09 12       	push	r9		
    71b0:	08 12       	push	r8		
    71b2:	21 83       	decd	r1		
    71b4:	0a 4e       	mov	r14,	r10	
    71b6:	0b 4f       	mov	r15,	r11	
    71b8:	b0 12 7c 70 	call	#0x707c	
    71bc:	08 4e       	mov	r14,	r8	
    71be:	09 4f       	mov	r15,	r9	
    71c0:	b0 12 04 6a 	call	#0x6a04	
    71c4:	82 48 f4 11 	mov	r8,	&0x11f4	
    71c8:	82 49 f6 11 	mov	r9,	&0x11f6	
    71cc:	82 4a b4 12 	mov	r10,	&0x12b4	
    71d0:	82 4b b6 12 	mov	r11,	&0x12b6	
    71d4:	81 4f 00 00 	mov	r15,	0(r1)	;0x0000(r1)
    71d8:	b0 12 c6 70 	call	#0x70c6	
    71dc:	2f 41       	mov	@r1,	r15	
    71de:	b0 12 16 6a 	call	#0x6a16	
    71e2:	21 53       	incd	r1		
    71e4:	38 41       	pop	r8		
    71e6:	39 41       	pop	r9		
    71e8:	3a 41       	pop	r10		
    71ea:	3b 41       	pop	r11		
    71ec:	30 41       	ret			

000071ee <CC2420TransmitP__congestionBackoff>:
    71ee:	0b 12       	push	r11		
    71f0:	b0 12 04 6a 	call	#0x6a04	
    71f4:	4b 4f       	mov.b	r15,	r11	
    71f6:	b0 12 12 70 	call	#0x7012	
    71fa:	0d 4e       	mov	r14,	r13	
    71fc:	3e 40 46 00 	mov	#70,	r14	;#0x0046
    7200:	0f 4d       	mov	r13,	r15	
    7202:	b0 12 fe ee 	call	#0xeefe	
    7206:	0e 4f       	mov	r15,	r14	
    7208:	3e 50 0b 00 	add	#11,	r14	;#0x000b
    720c:	82 4e 30 2a 	mov	r14,	&0x2a30	
    7210:	0f 43       	clr	r15		
    7212:	b0 12 aa 71 	call	#0x71aa	
    7216:	4f 4b       	mov.b	r11,	r15	
    7218:	b0 12 16 6a 	call	#0x6a16	
    721c:	3b 41       	pop	r11		
    721e:	30 41       	ret			

00007220 <CC2420TransmitP__attemptSend>:
    7220:	0b 12       	push	r11		
    7222:	0a 12       	push	r10		
    7224:	b0 12 04 6a 	call	#0x6a04	
    7228:	4a 4f       	mov.b	r15,	r10	
    722a:	b2 92 c2 11 	cmp	#8,	&0x11c2	;r2 As==11
    722e:	12 20       	jnz	$+38     	;abs 0x7254
    7230:	7f 40 09 00 	mov.b	#9,	r15	;#0x0009
    7234:	b0 12 b4 6a 	call	#0x6ab4	
    7238:	b0 12 06 70 	call	#0x7006	
    723c:	b0 12 42 6f 	call	#0x6f42	
    7240:	92 43 c2 11 	mov	#1,	&0x11c2	;r3 As==01
    7244:	7f 40 03 00 	mov.b	#3,	r15	;#0x0003
    7248:	b0 12 f6 6e 	call	#0x6ef6	
    724c:	4f 4a       	mov.b	r10,	r15	
    724e:	b0 12 16 6a 	call	#0x6a16	
    7252:	2f 3c       	jmp	$+96     	;abs 0x72b2
    7254:	b0 12 04 6b 	call	#0x6b04	
    7258:	c2 93 34 2a 	tst.b	&0x2a34	
    725c:	03 24       	jz	$+8      	;abs 0x7264
    725e:	7f 40 05 00 	mov.b	#5,	r15	;#0x0005
    7262:	01 3c       	jmp	$+4      	;abs 0x7266
    7264:	6f 42       	mov.b	#4,	r15	;r2 As==10
    7266:	b0 12 b4 6a 	call	#0x6ab4	
    726a:	4e 4f       	mov.b	r15,	r14	
    726c:	3e f2       	and	#8,	r14	;r2 As==11
    726e:	05 20       	jnz	$+12     	;abs 0x727a
    7270:	4f 43       	clr.b	r15		
    7272:	b0 12 b4 6a 	call	#0x6ab4	
    7276:	3f f2       	and	#8,	r15	;r2 As==11
    7278:	04 20       	jnz	$+10     	;abs 0x7282
    727a:	5b 43       	mov.b	#1,	r11	;r3 As==01
    727c:	3f 40 03 00 	mov	#3,	r15	;#0x0003
    7280:	03 3c       	jmp	$+8      	;abs 0x7288
    7282:	4b 43       	clr.b	r11		
    7284:	3f 40 05 00 	mov	#5,	r15	;#0x0005
    7288:	82 4f c2 11 	mov	r15,	&0x11c2	
    728c:	b0 12 42 6f 	call	#0x6f42	
    7290:	4f 4a       	mov.b	r10,	r15	
    7292:	b0 12 16 6a 	call	#0x6a16	
    7296:	4b 93       	tst.b	r11		
    7298:	07 24       	jz	$+16     	;abs 0x72a8
    729a:	c2 43 14 12 	mov.b	#0,	&0x1214	;r3 As==00
    729e:	b0 12 06 70 	call	#0x7006	
    72a2:	b0 12 ee 71 	call	#0x71ee	
    72a6:	05 3c       	jmp	$+12     	;abs 0x72b2
    72a8:	3e 40 40 01 	mov	#320,	r14	;#0x0140
    72ac:	0f 43       	clr	r15		
    72ae:	b0 12 aa 71 	call	#0x71aa	
    72b2:	3a 41       	pop	r10		
    72b4:	3b 41       	pop	r11		
    72b6:	30 41       	ret			

000072b8 <CC2420SpiP__Reg__write>:
    72b8:	0b 12       	push	r11		
    72ba:	0a 12       	push	r10		
    72bc:	09 12       	push	r9		
    72be:	49 4f       	mov.b	r15,	r9	
    72c0:	0a 4e       	mov	r14,	r10	
    72c2:	b0 12 04 6a 	call	#0x6a04	
    72c6:	4b 4f       	mov.b	r15,	r11	
    72c8:	b0 12 9a 6a 	call	#0x6a9a	
    72cc:	4f 93       	tst.b	r15		
    72ce:	05 24       	jz	$+12     	;abs 0x72da
    72d0:	4f 4b       	mov.b	r11,	r15	
    72d2:	b0 12 16 6a 	call	#0x6a16	
    72d6:	4f 43       	clr.b	r15		
    72d8:	0d 3c       	jmp	$+28     	;abs 0x72f4
    72da:	4f 4b       	mov.b	r11,	r15	
    72dc:	b0 12 16 6a 	call	#0x6a16	
    72e0:	4f 49       	mov.b	r9,	r15	
    72e2:	b0 12 88 49 	call	#0x4988	
    72e6:	0f 4a       	mov	r10,	r15	
    72e8:	8f 10       	swpb	r15		
    72ea:	b0 12 88 49 	call	#0x4988	
    72ee:	4f 4a       	mov.b	r10,	r15	
    72f0:	b0 12 88 49 	call	#0x4988	
    72f4:	39 41       	pop	r9		
    72f6:	3a 41       	pop	r10		
    72f8:	3b 41       	pop	r11		
    72fa:	30 41       	ret			

000072fc <CC2420SpiP__Ram__write>:
    72fc:	0b 12       	push	r11		
    72fe:	0a 12       	push	r10		
    7300:	09 12       	push	r9		
    7302:	08 12       	push	r8		
    7304:	07 12       	push	r7		
    7306:	08 4f       	mov	r15,	r8	
    7308:	4a 4e       	mov.b	r14,	r10	
    730a:	07 4d       	mov	r13,	r7	
    730c:	4b 4c       	mov.b	r12,	r11	
    730e:	b0 12 04 6a 	call	#0x6a04	
    7312:	49 4f       	mov.b	r15,	r9	
    7314:	b0 12 9a 6a 	call	#0x6a9a	
    7318:	4f 93       	tst.b	r15		
    731a:	05 24       	jz	$+12     	;abs 0x7326
    731c:	4f 49       	mov.b	r9,	r15	
    731e:	b0 12 16 6a 	call	#0x6a16	
    7322:	4f 43       	clr.b	r15		
    7324:	21 3c       	jmp	$+68     	;abs 0x7368
    7326:	4f 49       	mov.b	r9,	r15	
    7328:	b0 12 16 6a 	call	#0x6a16	
    732c:	4a 4a       	mov.b	r10,	r10	
    732e:	0a 58       	add	r8,	r10	
    7330:	4f 4a       	mov.b	r10,	r15	
    7332:	7f d0 80 ff 	bis.b	#-128,	r15	;#0xff80
    7336:	b0 12 88 49 	call	#0x4988	
    733a:	49 4f       	mov.b	r15,	r9	
    733c:	0e 4a       	mov	r10,	r14	
    733e:	12 c3       	clrc			
    7340:	0e 10       	rrc	r14		
    7342:	4f 4e       	mov.b	r14,	r15	
    7344:	7f f0 c0 ff 	and.b	#-64,	r15	;#0xffc0
    7348:	b0 12 88 49 	call	#0x4988	
    734c:	4a 4b       	mov.b	r11,	r10	
    734e:	09 3c       	jmp	$+20     	;abs 0x7362
    7350:	4e 4b       	mov.b	r11,	r14	
    7352:	0f 4a       	mov	r10,	r15	
    7354:	0f 8e       	sub	r14,	r15	
    7356:	0e 4f       	mov	r15,	r14	
    7358:	0e 57       	add	r7,	r14	
    735a:	6f 4e       	mov.b	@r14,	r15	
    735c:	b0 12 88 49 	call	#0x4988	
    7360:	7b 53       	add.b	#-1,	r11	;r3 As==11
    7362:	4b 93       	tst.b	r11		
    7364:	f5 23       	jnz	$-20     	;abs 0x7350
    7366:	4f 49       	mov.b	r9,	r15	
    7368:	37 41       	pop	r7		
    736a:	38 41       	pop	r8		
    736c:	39 41       	pop	r9		
    736e:	3a 41       	pop	r10		
    7370:	3b 41       	pop	r11		
    7372:	30 41       	ret			

00007374 <CC2420ControlP__writeId>:
    7374:	0b 12       	push	r11		
    7376:	31 50 f4 ff 	add	#-12,	r1	;#0xfff4
    737a:	b0 12 04 6a 	call	#0x6a04	
    737e:	4b 4f       	mov.b	r15,	r11	
    7380:	3d 42       	mov	#8,	r13	;r2 As==11
    7382:	3e 40 ba 1c 	mov	#7354,	r14	;#0x1cba
    7386:	0f 41       	mov	r1,	r15	
    7388:	b0 12 a0 ef 	call	#0xefa0	
    738c:	1e 42 ca 14 	mov	&0x14ca,r14	
    7390:	c1 4e 08 00 	mov.b	r14,	8(r1)	;0x0008(r1)
    7394:	8e 10       	swpb	r14		
    7396:	c1 4e 09 00 	mov.b	r14,	9(r1)	;0x0009(r1)
    739a:	1e 42 92 15 	mov	&0x1592,r14	
    739e:	c1 4e 0a 00 	mov.b	r14,	10(r1)	;0x000a(r1)
    73a2:	8e 10       	swpb	r14		
    73a4:	c1 4e 0b 00 	mov.b	r14,	11(r1)	;0x000b(r1)
    73a8:	4f 4b       	mov.b	r11,	r15	
    73aa:	b0 12 16 6a 	call	#0x6a16	
    73ae:	7c 40 0c 00 	mov.b	#12,	r12	;#0x000c
    73b2:	0d 41       	mov	r1,	r13	
    73b4:	4e 43       	clr.b	r14		
    73b6:	3f 40 60 01 	mov	#352,	r15	;#0x0160
    73ba:	b0 12 fc 72 	call	#0x72fc	
    73be:	31 50 0c 00 	add	#12,	r1	;#0x000c
    73c2:	3b 41       	pop	r11		
    73c4:	30 41       	ret			

000073c6 <FragmentPoolImplP__0__FragmentPool__request>:
    73c6:	0b 12       	push	r11		
    73c8:	0a 12       	push	r10		
    73ca:	09 12       	push	r9		
    73cc:	08 12       	push	r8		
    73ce:	07 12       	push	r7		
    73d0:	21 83       	decd	r1		
    73d2:	0b 4f       	mov	r15,	r11	
    73d4:	07 4e       	mov	r14,	r7	
    73d6:	08 4d       	mov	r13,	r8	
    73d8:	09 4c       	mov	r12,	r9	
    73da:	b0 12 04 6a 	call	#0x6a04	
    73de:	c2 93 ae 12 	tst.b	&0x12ae	
    73e2:	05 20       	jnz	$+12     	;abs 0x73ee
    73e4:	81 4f 00 00 	mov	r15,	0(r1)	;0x0000(r1)
    73e8:	b0 12 1a 5a 	call	#0x5a1a	
    73ec:	2f 41       	mov	@r1,	r15	
    73ee:	0b 5b       	rla	r11		
    73f0:	0b 5b       	rla	r11		
    73f2:	1a 4b ea 17 	mov	6122(r11),r10	;0x17ea(r11)
    73f6:	1b 4b ec 17 	mov	6124(r11),r11	;0x17ec(r11)
    73fa:	0b 5b       	rla	r11		
    73fc:	0b 5b       	rla	r11		
    73fe:	0e 4a       	mov	r10,	r14	
    7400:	0e 5b       	add	r11,	r14	
    7402:	0c 49       	mov	r9,	r12	
    7404:	0b 43       	clr	r11		
    7406:	09 3c       	jmp	$+20     	;abs 0x741a
    7408:	19 4a 02 00 	mov	2(r10),	r9	;0x0002(r10)
    740c:	19 93       	cmp	#1,	r9	;r3 As==01
    740e:	04 38       	jl	$+10     	;abs 0x7418
    7410:	09 9c       	cmp	r12,	r9	
    7412:	02 28       	jnc	$+6      	;abs 0x7418
    7414:	0c 49       	mov	r9,	r12	
    7416:	0b 4a       	mov	r10,	r11	
    7418:	2a 52       	add	#4,	r10	;r2 As==10
    741a:	0a 9e       	cmp	r14,	r10	
    741c:	f5 2b       	jnc	$-20     	;abs 0x7408
    741e:	0b 93       	tst	r11		
    7420:	05 20       	jnz	$+12     	;abs 0x742c
    7422:	b0 12 16 6a 	call	#0x6a16	
    7426:	7f 40 0a 00 	mov.b	#10,	r15	;#0x000a
    742a:	10 3c       	jmp	$+34     	;abs 0x744c
    742c:	a7 4b 00 00 	mov	@r11,	0(r7)	;0x0000(r7)
    7430:	1e 4b 02 00 	mov	2(r11),	r14	;0x0002(r11)
    7434:	2d 4b       	mov	@r11,	r13	
    7436:	0d 5e       	add	r14,	r13	
    7438:	88 4d 00 00 	mov	r13,	0(r8)	;0x0000(r8)
    743c:	3e e3       	inv	r14		
    743e:	8b 4e 02 00 	mov	r14,	2(r11)	;0x0002(r11)
    7442:	9b 53 02 00 	inc	2(r11)		;0x0002(r11)
    7446:	b0 12 16 6a 	call	#0x6a16	
    744a:	4f 43       	clr.b	r15		
    744c:	21 53       	incd	r1		
    744e:	37 41       	pop	r7		
    7450:	38 41       	pop	r8		
    7452:	39 41       	pop	r9		
    7454:	3a 41       	pop	r10		
    7456:	3b 41       	pop	r11		
    7458:	30 41       	ret			

0000745a <HdlcFramingP__0__startNewFrame_async__>:
    745a:	0b 12       	push	r11		
    745c:	0a 12       	push	r10		
    745e:	09 12       	push	r9		
    7460:	c2 93 d6 14 	tst.b	&0x14d6	
    7464:	1e 20       	jnz	$+62     	;abs 0x74a2
    7466:	23 3c       	jmp	$+72     	;abs 0x74ae
    7468:	19 42 d2 14 	mov	&0x14d2,r9	
    746c:	82 49 0a 12 	mov	r9,	&0x120a	
    7470:	1c 42 d4 14 	mov	&0x14d4,r12	
    7474:	0e 4c       	mov	r12,	r14	
    7476:	8e 10       	swpb	r14		
    7478:	8e 11       	sxt	r14		
    747a:	8e 10       	swpb	r14		
    747c:	8e 11       	sxt	r14		
    747e:	0d 4e       	mov	r14,	r13	
    7480:	0a 49       	mov	r9,	r10	
    7482:	0e 49       	mov	r9,	r14	
    7484:	8e 10       	swpb	r14		
    7486:	8e 11       	sxt	r14		
    7488:	8e 10       	swpb	r14		
    748a:	8e 11       	sxt	r14		
    748c:	0b 4e       	mov	r14,	r11	
    748e:	0c 8a       	sub	r10,	r12	
    7490:	0d 7b       	subc	r11,	r13	
    7492:	82 4c 16 2a 	mov	r12,	&0x2a16	
    7496:	b2 40 d2 14 7a 1b 	mov	#5330,	&0x1b7a	;#0x14d2
    749c:	d2 43 d6 14 	mov.b	#1,	&0x14d6	;r3 As==01
    74a0:	02 3c       	jmp	$+6      	;abs 0x74a6
    74a2:	7f 40 0a 00 	mov.b	#10,	r15	;#0x000a
    74a6:	39 41       	pop	r9		
    74a8:	3a 41       	pop	r10		
    74aa:	3b 41       	pop	r11		
    74ac:	30 41       	ret			
    74ae:	3c 40 12 00 	mov	#18,	r12	;#0x0012
    74b2:	3d 40 d4 14 	mov	#5332,	r13	;#0x14d4
    74b6:	3e 40 d2 14 	mov	#5330,	r14	;#0x14d2
    74ba:	1f 43       	mov	#1,	r15	;r3 As==01
    74bc:	b0 12 c6 73 	call	#0x73c6	
    74c0:	4f 93       	tst.b	r15		
    74c2:	d2 27       	jz	$-90     	;abs 0x7468
    74c4:	f0 3f       	jmp	$-30     	;abs 0x74a6

000074c6 <PppP__Ppp__getOutputFrame>:
    74c6:	0b 12       	push	r11		
    74c8:	0a 12       	push	r10		
    74ca:	09 12       	push	r9		
    74cc:	08 12       	push	r8		
    74ce:	07 12       	push	r7		
    74d0:	0a 4f       	mov	r15,	r10	
    74d2:	09 4e       	mov	r14,	r9	
    74d4:	47 4d       	mov.b	r13,	r7	
    74d6:	08 4c       	mov	r12,	r8	
    74d8:	3b 40 46 1b 	mov	#6982,	r11	;#0x1b46
    74dc:	cb 93 04 00 	tst.b	4(r11)		;0x0004(r11)
    74e0:	06 24       	jz	$+14     	;abs 0x74ee
    74e2:	3b 50 06 00 	add	#6,	r11	;#0x0006
    74e6:	3b 90 76 1b 	cmp	#7030,	r11	;#0x1b76
    74ea:	f8 2b       	jnc	$-14     	;abs 0x74dc
    74ec:	35 3c       	jmp	$+108    	;abs 0x7558
    74ee:	3c 40 10 00 	mov	#16,	r12	;#0x0010
    74f2:	0d 4b       	mov	r11,	r13	
    74f4:	2d 53       	incd	r13		
    74f6:	0e 4b       	mov	r11,	r14	
    74f8:	0f 43       	clr	r15		
    74fa:	b0 12 c6 73 	call	#0x73c6	
    74fe:	4f 93       	tst.b	r15		
    7500:	2b 20       	jnz	$+88     	;abs 0x7558
    7502:	db 43 04 00 	mov.b	#1,	4(r11)	;r3 As==01, 0x0004(r11)
    7506:	47 93       	tst.b	r7		
    7508:	03 24       	jz	$+8      	;abs 0x7510
    750a:	fb 40 81 ff 04 00 	mov.b	#-127,	4(r11)	;#0xff81, 0x0004(r11)
    7510:	c2 93 74 11 	tst.b	&0x1174	
    7514:	03 24       	jz	$+8      	;abs 0x751c
    7516:	1f 43       	mov	#1,	r15	;r3 As==01
    7518:	47 93       	tst.b	r7		
    751a:	01 24       	jz	$+4      	;abs 0x751e
    751c:	0f 43       	clr	r15		
    751e:	08 93       	tst	r8		
    7520:	02 24       	jz	$+6      	;abs 0x7526
    7522:	a8 4b 00 00 	mov	@r11,	0(r8)	;0x0000(r8)
    7526:	2d 4b       	mov	@r11,	r13	
    7528:	09 93       	tst	r9		
    752a:	03 24       	jz	$+8      	;abs 0x7532
    752c:	99 4b 02 00 00 00 	mov	2(r11),	0(r9)	;0x0002(r11), 0x0000(r9)
    7532:	3a 90 00 01 	cmp	#256,	r10	;#0x0100
    7536:	07 2c       	jc	$+16     	;abs 0x7546
    7538:	4f 93       	tst.b	r15		
    753a:	05 24       	jz	$+12     	;abs 0x7546
    753c:	cd 4a 00 00 	mov.b	r10,	0(r13)	;0x0000(r13)
    7540:	0f 4d       	mov	r13,	r15	
    7542:	1f 53       	inc	r15		
    7544:	0a 3c       	jmp	$+22     	;abs 0x755a
    7546:	0f 4a       	mov	r10,	r15	
    7548:	8f 10       	swpb	r15		
    754a:	cd 4f 00 00 	mov.b	r15,	0(r13)	;0x0000(r13)
    754e:	cd 4a 01 00 	mov.b	r10,	1(r13)	;0x0001(r13)
    7552:	0f 4d       	mov	r13,	r15	
    7554:	2f 53       	incd	r15		
    7556:	01 3c       	jmp	$+4      	;abs 0x755a
    7558:	0f 43       	clr	r15		
    755a:	37 41       	pop	r7		
    755c:	38 41       	pop	r8		
    755e:	39 41       	pop	r9		
    7560:	3a 41       	pop	r10		
    7562:	3b 41       	pop	r11		
    7564:	30 41       	ret			

00007566 <FragmentPoolImplP__0__FragmentPool__available.isra.271.part.272>:
    7566:	0b 12       	push	r11		
    7568:	b0 12 04 6a 	call	#0x6a04	
    756c:	4b 4f       	mov.b	r15,	r11	
    756e:	82 93 7a 1b 	tst	&0x1b7a	
    7572:	02 20       	jnz	$+6      	;abs 0x7578
    7574:	b0 12 5a 74 	call	#0x745a	
    7578:	4f 4b       	mov.b	r11,	r15	
    757a:	b0 12 16 6a 	call	#0x6a16	
    757e:	3b 41       	pop	r11		
    7580:	30 41       	ret			

00007582 <FragmentPoolImplP__0__FragmentPool__release>:
    7582:	0b 12       	push	r11		
    7584:	0a 12       	push	r10		
    7586:	09 12       	push	r9		
    7588:	08 12       	push	r8		
    758a:	07 12       	push	r7		
    758c:	07 4f       	mov	r15,	r7	
    758e:	0a 4e       	mov	r14,	r10	
    7590:	0d 4f       	mov	r15,	r13	
    7592:	0d 5d       	rla	r13		
    7594:	0d 5d       	rla	r13		
    7596:	1b 4d ea 17 	mov	6122(r13),r11	;0x17ea(r13)
    759a:	1d 4d ec 17 	mov	6124(r13),r13	;0x17ec(r13)
    759e:	0d 5d       	rla	r13		
    75a0:	0d 5d       	rla	r13		
    75a2:	08 4b       	mov	r11,	r8	
    75a4:	08 5d       	add	r13,	r8	
    75a6:	b0 12 04 6a 	call	#0x6a04	
    75aa:	49 4f       	mov.b	r15,	r9	
    75ac:	01 3c       	jmp	$+4      	;abs 0x75b0
    75ae:	2b 52       	add	#4,	r11	;r2 As==10
    75b0:	0b 98       	cmp	r8,	r11	
    75b2:	02 2c       	jc	$+6      	;abs 0x75b8
    75b4:	2a 9b       	cmp	@r11,	r10	
    75b6:	fb 23       	jnz	$-8      	;abs 0x75ae
    75b8:	0b 98       	cmp	r8,	r11	
    75ba:	06 20       	jnz	$+14     	;abs 0x75c8
    75bc:	4f 49       	mov.b	r9,	r15	
    75be:	b0 12 16 6a 	call	#0x6a16	
    75c2:	7f 40 06 00 	mov.b	#6,	r15	;#0x0006
    75c6:	69 3c       	jmp	$+212    	;abs 0x769a
    75c8:	1f 4b 02 00 	mov	2(r11),	r15	;0x0002(r11)
    75cc:	0f 93       	tst	r15		
    75ce:	06 38       	jl	$+14     	;abs 0x75dc
    75d0:	4f 49       	mov.b	r9,	r15	
    75d2:	b0 12 16 6a 	call	#0x6a16	
    75d6:	7f 40 09 00 	mov.b	#9,	r15	;#0x0009
    75da:	5f 3c       	jmp	$+192    	;abs 0x769a
    75dc:	3f e3       	inv	r15		
    75de:	8b 4f 02 00 	mov	r15,	2(r11)	;0x0002(r11)
    75e2:	9b 53 02 00 	inc	2(r11)		;0x0002(r11)
    75e6:	0e 47       	mov	r7,	r14	
    75e8:	0e 5e       	rla	r14		
    75ea:	0e 5e       	rla	r14		
    75ec:	0c 4b       	mov	r11,	r12	
    75ee:	8e 9b ea 17 	cmp	r11,	6122(r14);0x17ea(r14)
    75f2:	04 2c       	jc	$+10     	;abs 0x75fc
    75f4:	9b 93 fe ff 	cmp	#1,	-2(r11)	;r3 As==01, 0xfffe(r11)
    75f8:	01 38       	jl	$+4      	;abs 0x75fc
    75fa:	2c 82       	sub	#4,	r12	;r2 As==10
    75fc:	0d 4b       	mov	r11,	r13	
    75fe:	2d 52       	add	#4,	r13	;r2 As==10
    7600:	0d 98       	cmp	r8,	r13	
    7602:	03 2c       	jc	$+8      	;abs 0x760a
    7604:	9b 93 06 00 	cmp	#1,	6(r11)	;r3 As==01, 0x0006(r11)
    7608:	01 34       	jge	$+4      	;abs 0x760c
    760a:	0d 4b       	mov	r11,	r13	
    760c:	0c 9d       	cmp	r13,	r12	
    760e:	3d 2c       	jc	$+124    	;abs 0x768a
    7610:	0e 4d       	mov	r13,	r14	
    7612:	8d 10       	swpb	r13		
    7614:	8d 11       	sxt	r13		
    7616:	8d 10       	swpb	r13		
    7618:	8d 11       	sxt	r13		
    761a:	0f 4d       	mov	r13,	r15	
    761c:	0a 4c       	mov	r12,	r10	
    761e:	0d 4c       	mov	r12,	r13	
    7620:	8d 10       	swpb	r13		
    7622:	8d 11       	sxt	r13		
    7624:	8d 10       	swpb	r13		
    7626:	8d 11       	sxt	r13		
    7628:	0b 4d       	mov	r13,	r11	
    762a:	0e 8a       	sub	r10,	r14	
    762c:	0f 7b       	subc	r11,	r15	
    762e:	0f 11       	rra	r15		
    7630:	0e 10       	rrc	r14		
    7632:	0f 11       	rra	r15		
    7634:	0e 10       	rrc	r14		
    7636:	0f 4e       	mov	r14,	r15	
    7638:	0e 5e       	rla	r14		
    763a:	0e 5e       	rla	r14		
    763c:	0b 4c       	mov	r12,	r11	
    763e:	0b 5e       	add	r14,	r11	
    7640:	0d 4c       	mov	r12,	r13	
    7642:	03 3c       	jmp	$+8      	;abs 0x764a
    7644:	9c 5d 02 00 02 00 	add	2(r13),	2(r12)	;0x0002(r13), 0x0002(r12)
    764a:	2d 52       	add	#4,	r13	;r2 As==10
    764c:	0a 4d       	mov	r13,	r10	
    764e:	2a 82       	sub	#4,	r10	;r2 As==10
    7650:	0a 9b       	cmp	r11,	r10	
    7652:	f8 2b       	jnc	$-14     	;abs 0x7644
    7654:	0c 43       	clr	r12		
    7656:	0c 8f       	sub	r15,	r12	
    7658:	0c 5c       	rla	r12		
    765a:	0c 5c       	rla	r12		
    765c:	0b 3c       	jmp	$+24     	;abs 0x7674
    765e:	0f 4d       	mov	r13,	r15	
    7660:	0f 5c       	add	r12,	r15	
    7662:	af 4d 00 00 	mov	@r13,	0(r15)	;0x0000(r15)
    7666:	9f 4d 02 00 02 00 	mov	2(r13),	2(r15)	;0x0002(r13), 0x0002(r15)
    766c:	8d 93 02 00 	tst	2(r13)		;0x0002(r13)
    7670:	03 24       	jz	$+8      	;abs 0x7678
    7672:	2d 52       	add	#4,	r13	;r2 As==10
    7674:	0d 98       	cmp	r8,	r13	
    7676:	f3 2b       	jnc	$-24     	;abs 0x765e
    7678:	0f 4d       	mov	r13,	r15	
    767a:	0f 8e       	sub	r14,	r15	
    767c:	0e 4f       	mov	r15,	r14	
    767e:	03 3c       	jmp	$+8      	;abs 0x7686
    7680:	8e 43 02 00 	mov	#0,	2(r14)	;r3 As==00, 0x0002(r14)
    7684:	2e 52       	add	#4,	r14	;r2 As==10
    7686:	0e 9d       	cmp	r13,	r14	
    7688:	fb 2b       	jnc	$-8      	;abs 0x7680
    768a:	4f 49       	mov.b	r9,	r15	
    768c:	b0 12 16 6a 	call	#0x6a16	
    7690:	17 93       	cmp	#1,	r7	;r3 As==01
    7692:	02 20       	jnz	$+6      	;abs 0x7698
    7694:	b0 12 66 75 	call	#0x7566	
    7698:	4f 43       	clr.b	r15		
    769a:	37 41       	pop	r7		
    769c:	38 41       	pop	r8		
    769e:	39 41       	pop	r9		
    76a0:	3a 41       	pop	r10		
    76a2:	3b 41       	pop	r11		
    76a4:	30 41       	ret			

000076a6 <FragmentPoolImplP__0__FragmentPool__freeze>:
    76a6:	0b 12       	push	r11		
    76a8:	0a 12       	push	r10		
    76aa:	09 12       	push	r9		
    76ac:	08 12       	push	r8		
    76ae:	07 12       	push	r7		
    76b0:	06 12       	push	r6		
    76b2:	05 12       	push	r5		
    76b4:	04 12       	push	r4		
    76b6:	31 50 fa ff 	add	#-6,	r1	;#0xfffa
    76ba:	81 4f 02 00 	mov	r15,	2(r1)	;0x0002(r1)
    76be:	81 4e 04 00 	mov	r14,	4(r1)	;0x0004(r1)
    76c2:	08 4d       	mov	r13,	r8	
    76c4:	0c 4f       	mov	r15,	r12	
    76c6:	0c 5c       	rla	r12		
    76c8:	0c 5c       	rla	r12		
    76ca:	19 4c ea 17 	mov	6122(r12),r9	;0x17ea(r12)
    76ce:	1c 4c ec 17 	mov	6124(r12),r12	;0x17ec(r12)
    76d2:	0c 5c       	rla	r12		
    76d4:	0c 5c       	rla	r12		
    76d6:	05 49       	mov	r9,	r5	
    76d8:	05 5c       	add	r12,	r5	
    76da:	b0 12 04 6a 	call	#0x6a04	
    76de:	c1 4f 00 00 	mov.b	r15,	0(r1)	;0x0000(r1)
    76e2:	01 3c       	jmp	$+4      	;abs 0x76e6
    76e4:	29 52       	add	#4,	r9	;r2 As==10
    76e6:	09 95       	cmp	r5,	r9	
    76e8:	03 2c       	jc	$+8      	;abs 0x76f0
    76ea:	a1 99 04 00 	cmp	@r9,	4(r1)	;0x0004(r1)
    76ee:	fa 23       	jnz	$-10     	;abs 0x76e4
    76f0:	09 95       	cmp	r5,	r9	
    76f2:	09 24       	jz	$+20     	;abs 0x7706
    76f4:	2d 49       	mov	@r9,	r13	
    76f6:	1f 49 02 00 	mov	2(r9),	r15	;0x0002(r9)
    76fa:	08 9d       	cmp	r13,	r8	
    76fc:	04 28       	jnc	$+10     	;abs 0x7706
    76fe:	0c 4d       	mov	r13,	r12	
    7700:	0c 8f       	sub	r15,	r12	
    7702:	0c 98       	cmp	r8,	r12	
    7704:	06 2c       	jc	$+14     	;abs 0x7712
    7706:	6f 41       	mov.b	@r1,	r15	
    7708:	b0 12 16 6a 	call	#0x6a16	
    770c:	7f 40 06 00 	mov.b	#6,	r15	;#0x0006
    7710:	71 3c       	jmp	$+228    	;abs 0x77f4
    7712:	0a 4c       	mov	r12,	r10	
    7714:	8c 10       	swpb	r12		
    7716:	8c 11       	sxt	r12		
    7718:	8c 10       	swpb	r12		
    771a:	8c 11       	sxt	r12		
    771c:	0b 4c       	mov	r12,	r11	
    771e:	06 48       	mov	r8,	r6	
    7720:	04 48       	mov	r8,	r4	
    7722:	84 10       	swpb	r4		
    7724:	84 11       	sxt	r4		
    7726:	84 10       	swpb	r4		
    7728:	84 11       	sxt	r4		
    772a:	07 44       	mov	r4,	r7	
    772c:	0a 86       	sub	r6,	r10	
    772e:	0b 77       	subc	r7,	r11	
    7730:	1a b3       	bit	#1,	r10	;r3 As==01
    7732:	01 24       	jz	$+4      	;abs 0x7736
    7734:	3a 53       	add	#-1,	r10	;r3 As==11
    7736:	0d 98       	cmp	r8,	r13	
    7738:	4a 24       	jz	$+150    	;abs 0x77ce
    773a:	0a 93       	tst	r10		
    773c:	1a 24       	jz	$+54     	;abs 0x7772
    773e:	08 49       	mov	r9,	r8	
    7740:	28 52       	add	#4,	r8	;r2 As==10
    7742:	08 95       	cmp	r5,	r8	
    7744:	16 24       	jz	$+46     	;abs 0x7772
    7746:	1d 49 06 00 	mov	6(r9),	r13	;0x0006(r9)
    774a:	1d 93       	cmp	#1,	r13	;r3 As==01
    774c:	07 38       	jl	$+16     	;abs 0x775c
    774e:	0f 5a       	add	r10,	r15	
    7750:	89 4f 02 00 	mov	r15,	2(r9)	;0x0002(r9)
    7754:	89 8a 04 00 	sub	r10,	4(r9)	;0x0004(r9)
    7758:	0a 5d       	add	r13,	r10	
    775a:	35 3c       	jmp	$+108    	;abs 0x77c6
    775c:	0d 93       	tst	r13		
    775e:	2a 24       	jz	$+86     	;abs 0x77b4
    7760:	85 93 fe ff 	tst	-2(r5)		;0xfffe(r5)
    7764:	06 20       	jnz	$+14     	;abs 0x7772
    7766:	0c 45       	mov	r5,	r12	
    7768:	0f 49       	mov	r9,	r15	
    776a:	3f 52       	add	#8,	r15	;r2 As==11
    776c:	0b 45       	mov	r5,	r11	
    776e:	2b 82       	sub	#4,	r11	;r2 As==10
    7770:	05 3c       	jmp	$+12     	;abs 0x777c
    7772:	6f 41       	mov.b	@r1,	r15	
    7774:	b0 12 16 6a 	call	#0x6a16	
    7778:	3c 3c       	jmp	$+122    	;abs 0x77f2
    777a:	2c 82       	sub	#4,	r12	;r2 As==10
    777c:	0f 9c       	cmp	r12,	r15	
    777e:	06 2c       	jc	$+14     	;abs 0x778c
    7780:	0e 4c       	mov	r12,	r14	
    7782:	0e 85       	sub	r5,	r14	
    7784:	0e 5b       	add	r11,	r14	
    7786:	8e 93 02 00 	tst	2(r14)		;0x0002(r14)
    778a:	f7 27       	jz	$-16     	;abs 0x777a
    778c:	04 4c       	mov	r12,	r4	
    778e:	8c 10       	swpb	r12		
    7790:	8c 11       	sxt	r12		
    7792:	8c 10       	swpb	r12		
    7794:	8c 11       	sxt	r12		
    7796:	05 4c       	mov	r12,	r5	
    7798:	06 48       	mov	r8,	r6	
    779a:	0c 48       	mov	r8,	r12	
    779c:	8c 10       	swpb	r12		
    779e:	8c 11       	sxt	r12		
    77a0:	8c 10       	swpb	r12		
    77a2:	8c 11       	sxt	r12		
    77a4:	07 4c       	mov	r12,	r7	
    77a6:	0d 44       	mov	r4,	r13	
    77a8:	0e 45       	mov	r5,	r14	
    77aa:	0d 86       	sub	r6,	r13	
    77ac:	0e 77       	subc	r7,	r14	
    77ae:	0e 48       	mov	r8,	r14	
    77b0:	b0 12 9a f0 	call	#0xf09a	
    77b4:	0d 4a       	mov	r10,	r13	
    77b6:	1d 59 02 00 	add	2(r9),	r13	;0x0002(r9)
    77ba:	89 4d 02 00 	mov	r13,	2(r9)	;0x0002(r9)
    77be:	2f 49       	mov	@r9,	r15	
    77c0:	0f 8d       	sub	r13,	r15	
    77c2:	89 4f 04 00 	mov	r15,	4(r9)	;0x0004(r9)
    77c6:	89 4a 06 00 	mov	r10,	6(r9)	;0x0006(r9)
    77ca:	4a 43       	clr.b	r10		
    77cc:	01 3c       	jmp	$+4      	;abs 0x77d0
    77ce:	5a 43       	mov.b	#1,	r10	;r3 As==01
    77d0:	6f 41       	mov.b	@r1,	r15	
    77d2:	b0 12 16 6a 	call	#0x6a16	
    77d6:	4a 93       	tst.b	r10		
    77d8:	07 24       	jz	$+16     	;abs 0x77e8
    77da:	1e 41 04 00 	mov	4(r1),	r14	;0x0004(r1)
    77de:	1f 41 02 00 	mov	2(r1),	r15	;0x0002(r1)
    77e2:	b0 12 82 75 	call	#0x7582	
    77e6:	06 3c       	jmp	$+14     	;abs 0x77f4
    77e8:	91 93 02 00 	cmp	#1,	2(r1)	;r3 As==01, 0x0002(r1)
    77ec:	02 20       	jnz	$+6      	;abs 0x77f2
    77ee:	b0 12 66 75 	call	#0x7566	
    77f2:	4f 43       	clr.b	r15		
    77f4:	31 50 06 00 	add	#6,	r1	;#0x0006
    77f8:	34 41       	pop	r4		
    77fa:	35 41       	pop	r5		
    77fc:	36 41       	pop	r6		
    77fe:	37 41       	pop	r7		
    7800:	38 41       	pop	r8		
    7802:	39 41       	pop	r9		
    7804:	3a 41       	pop	r10		
    7806:	3b 41       	pop	r11		
    7808:	30 41       	ret			

0000780a <HdlcFramingP__0__HdlcUart__receivedByte>:
    780a:	0b 12       	push	r11		
    780c:	0a 12       	push	r10		
    780e:	09 12       	push	r9		
    7810:	08 12       	push	r8		
    7812:	4a 4f       	mov.b	r15,	r10	
    7814:	b0 12 04 6a 	call	#0x6a04	
    7818:	49 4f       	mov.b	r15,	r9	
    781a:	7a 90 20 00 	cmp.b	#32,	r10	;#0x0020
    781e:	14 2c       	jc	$+42     	;abs 0x7848
    7820:	1e 42 70 11 	mov	&0x1170,r14	
    7824:	1f 42 72 11 	mov	&0x1172,r15	
    7828:	4d 4a       	mov.b	r10,	r13	
    782a:	7d f0 1f 00 	and.b	#31,	r13	;#0x001f
    782e:	4d 93       	tst.b	r13		
    7830:	05 24       	jz	$+12     	;abs 0x783c
    7832:	12 c3       	clrc			
    7834:	0f 10       	rrc	r15		
    7836:	0e 10       	rrc	r14		
    7838:	7d 53       	add.b	#-1,	r13	;r3 As==11
    783a:	f9 3f       	jmp	$-12     	;abs 0x782e
    783c:	1e f3       	and	#1,	r14	;r3 As==01
    783e:	04 24       	jz	$+10     	;abs 0x7848
    7840:	4f 49       	mov.b	r9,	r15	
    7842:	b0 12 16 6a 	call	#0x6a16	
    7846:	c2 3c       	jmp	$+390    	;abs 0x79cc
    7848:	e2 92 35 2a 	cmp.b	#4,	&0x2a35	;r2 As==10
    784c:	0f 20       	jnz	$+32     	;abs 0x786c
    784e:	4f 4a       	mov.b	r10,	r15	
    7850:	7f 50 83 ff 	add.b	#-125,	r15	;#0xff83
    7854:	6f 93       	cmp.b	#2,	r15	;r3 As==10
    7856:	03 2c       	jc	$+8      	;abs 0x785e
    7858:	c2 43 35 2a 	mov.b	#0,	&0x2a35	;r3 As==00
    785c:	07 3c       	jmp	$+16     	;abs 0x786c
    785e:	4b 4a       	mov.b	r10,	r11	
    7860:	7b e0 20 00 	xor.b	#32,	r11	;#0x0020
    7864:	d2 42 b2 1c 35 2a 	mov.b	&0x1cb2,&0x2a35	
    786a:	01 3c       	jmp	$+4      	;abs 0x786e
    786c:	4b 4a       	mov.b	r10,	r11	
    786e:	5d 42 35 2a 	mov.b	&0x2a35,r13	
    7872:	4d 93       	tst.b	r13		
    7874:	18 24       	jz	$+50     	;abs 0x78a6
    7876:	7a 90 7d 00 	cmp.b	#125,	r10	;#0x007d
    787a:	05 20       	jnz	$+12     	;abs 0x7886
    787c:	c2 4d b2 1c 	mov.b	r13,	&0x1cb2	
    7880:	e2 42 35 2a 	mov.b	#4,	&0x2a35	;r2 As==10
    7884:	91 3c       	jmp	$+292    	;abs 0x79a8
    7886:	7d 90 05 00 	cmp.b	#5,	r13	;#0x0005
    788a:	6c 2c       	jc	$+218    	;abs 0x7964
    788c:	4d 4d       	mov.b	r13,	r13	
    788e:	0d 5d       	rla	r13		
    7890:	10 4d 42 f2 	br	-3518(r13)	;0xf242(r13)
    7894:	2b 43       	mov	#2,	r11	;r3 As==10
    7896:	04 3c       	jmp	$+10     	;abs 0x78a0
    7898:	3b 40 03 00 	mov	#3,	r11	;#0x0003
    789c:	01 3c       	jmp	$+4      	;abs 0x78a0
    789e:	2b 42       	mov	#4,	r11	;r2 As==10
    78a0:	c2 43 35 2a 	mov.b	#0,	&0x2a35	;r3 As==00
    78a4:	01 3c       	jmp	$+4      	;abs 0x78a8
    78a6:	0b 43       	clr	r11		
    78a8:	82 43 a4 23 	mov	#0,	&0x23a4	;r3 As==00
    78ac:	b2 43 4e 2a 	mov	#-1,	&0x2a4e	;r3 As==11
    78b0:	7a 90 7e 00 	cmp.b	#126,	r10	;#0x007e
    78b4:	7a 20       	jnz	$+246    	;abs 0x79aa
    78b6:	d2 43 35 2a 	mov.b	#1,	&0x2a35	;r3 As==01
    78ba:	77 3c       	jmp	$+240    	;abs 0x79aa
    78bc:	7a 90 7e 00 	cmp.b	#126,	r10	;#0x007e
    78c0:	51 24       	jz	$+164    	;abs 0x7964
    78c2:	7b 93       	cmp.b	#-1,	r11	;r3 As==11
    78c4:	04 24       	jz	$+10     	;abs 0x78ce
    78c6:	f2 40 03 00 35 2a 	mov.b	#3,	&0x2a35	;#0x0003
    78cc:	4d 3c       	jmp	$+156    	;abs 0x7968
    78ce:	7e 43       	mov.b	#-1,	r14	;r3 As==11
    78d0:	1f 42 4e 2a 	mov	&0x2a4e,r15	
    78d4:	b0 12 b4 4c 	call	#0x4cb4	
    78d8:	82 4f 4e 2a 	mov	r15,	&0x2a4e	
    78dc:	e2 43 35 2a 	mov.b	#2,	&0x2a35	;r3 As==10
    78e0:	63 3c       	jmp	$+200    	;abs 0x79a8
    78e2:	7b 90 03 00 	cmp.b	#3,	r11	;#0x0003
    78e6:	04 24       	jz	$+10     	;abs 0x78f0
    78e8:	7a 90 7e 00 	cmp.b	#126,	r10	;#0x007e
    78ec:	d3 23       	jnz	$-88     	;abs 0x7894
    78ee:	3a 3c       	jmp	$+118    	;abs 0x7964
    78f0:	7e 40 03 00 	mov.b	#3,	r14	;#0x0003
    78f4:	1f 42 4e 2a 	mov	&0x2a4e,r15	
    78f8:	b0 12 b4 4c 	call	#0x4cb4	
    78fc:	82 4f 4e 2a 	mov	r15,	&0x2a4e	
    7900:	f2 40 03 00 35 2a 	mov.b	#3,	&0x2a35	;#0x0003
    7906:	50 3c       	jmp	$+162    	;abs 0x79a8
    7908:	7a 90 7e 00 	cmp.b	#126,	r10	;#0x007e
    790c:	2d 20       	jnz	$+92     	;abs 0x7968
    790e:	1f 42 a4 23 	mov	&0x23a4,r15	
    7912:	2f 93       	cmp	#2,	r15	;r3 As==10
    7914:	c1 3b       	jl	$-124    	;abs 0x7898
    7916:	b2 90 b8 f0 4e 2a 	cmp	#-3912,	&0x2a4e	;#0xf0b8
    791c:	c0 23       	jnz	$-126    	;abs 0x789e
    791e:	1b 42 7a 1b 	mov	&0x1b7a,r11	
    7922:	eb 43 04 00 	mov.b	#2,	4(r11)	;r3 As==10, 0x0004(r11)
    7926:	2f 83       	decd	r15		
    7928:	2f 5b       	add	@r11,	r15	
    792a:	8b 4f 02 00 	mov	r15,	2(r11)	;0x0002(r11)
    792e:	6f 42       	mov.b	#4,	r15	;r2 As==10
    7930:	b0 12 14 6b 	call	#0x6b14	
    7934:	5f 42 39 1c 	mov.b	&0x1c39,r15	
    7938:	4e 4f       	mov.b	r15,	r14	
    793a:	0e 5e       	rla	r14		
    793c:	9e 42 7a 1b 12 12 	mov	&0x1b7a,4626(r14);0x1212(r14)
    7942:	5f 53       	inc.b	r15		
    7944:	c2 4f 39 1c 	mov.b	r15,	&0x1c39	
    7948:	82 43 7a 1b 	mov	#0,	&0x1b7a	;r3 As==00
    794c:	82 43 0a 12 	mov	#0,	&0x120a	;r3 As==00
    7950:	1d 4b 02 00 	mov	2(r11),	r13	;0x0002(r11)
    7954:	2e 4b       	mov	@r11,	r14	
    7956:	0e 9d       	cmp	r13,	r14	
    7958:	02 20       	jnz	$+6      	;abs 0x795e
    795a:	0d 4e       	mov	r14,	r13	
    795c:	1d 53       	inc	r13		
    795e:	1f 43       	mov	#1,	r15	;r3 As==01
    7960:	b0 12 a6 76 	call	#0x76a6	
    7964:	0b 43       	clr	r11		
    7966:	9c 3f       	jmp	$-198    	;abs 0x78a0
    7968:	18 42 0a 12 	mov	&0x120a,r8	
    796c:	08 93       	tst	r8		
    796e:	14 24       	jz	$+42     	;abs 0x7998
    7970:	1a 42 a4 23 	mov	&0x23a4,r10	
    7974:	1a 92 16 2a 	cmp	&0x2a16,r10	
    7978:	12 34       	jge	$+38     	;abs 0x799e
    797a:	4e 4b       	mov.b	r11,	r14	
    797c:	1f 42 4e 2a 	mov	&0x2a4e,r15	
    7980:	b0 12 b4 4c 	call	#0x4cb4	
    7984:	82 4f 4e 2a 	mov	r15,	&0x2a4e	
    7988:	0f 48       	mov	r8,	r15	
    798a:	0f 5a       	add	r10,	r15	
    798c:	cf 4b 00 00 	mov.b	r11,	0(r15)	;0x0000(r15)
    7990:	1a 53       	inc	r10		
    7992:	82 4a a4 23 	mov	r10,	&0x23a4	
    7996:	08 3c       	jmp	$+18     	;abs 0x79a8
    7998:	3b 40 05 00 	mov	#5,	r11	;#0x0005
    799c:	02 3c       	jmp	$+6      	;abs 0x79a2
    799e:	3b 40 06 00 	mov	#6,	r11	;#0x0006
    79a2:	c2 43 35 2a 	mov.b	#0,	&0x2a35	;r3 As==00
    79a6:	01 3c       	jmp	$+4      	;abs 0x79aa
    79a8:	0b 43       	clr	r11		
    79aa:	4f 49       	mov.b	r9,	r15	
    79ac:	b0 12 16 6a 	call	#0x6a16	
    79b0:	0b 93       	tst	r11		
    79b2:	0c 24       	jz	$+26     	;abs 0x79cc
    79b4:	b0 12 04 6a 	call	#0x6a04	
    79b8:	82 4b b8 1c 	mov	r11,	&0x1cb8	
    79bc:	92 53 ae 23 	inc	&0x23ae	
    79c0:	b0 12 16 6a 	call	#0x6a16	
    79c4:	7f 40 03 00 	mov.b	#3,	r15	;#0x0003
    79c8:	b0 12 14 6b 	call	#0x6b14	
    79cc:	38 41       	pop	r8		
    79ce:	39 41       	pop	r9		
    79d0:	3a 41       	pop	r10		
    79d2:	3b 41       	pop	r11		
    79d4:	30 41       	ret			

000079d6 <LocalIeeeEui64P__LocalIeeeEui64__getId>:
    79d6:	0b 12       	push	r11		
    79d8:	0a 12       	push	r10		
    79da:	09 12       	push	r9		
    79dc:	08 12       	push	r8		
    79de:	07 12       	push	r7		
    79e0:	c2 93 d0 11 	tst.b	&0x11d0	
    79e4:	b9 20       	jnz	$+372    	;abs 0x7b58
    79e6:	c2 93 ce 11 	tst.b	&0x11ce	
    79ea:	8d 20       	jnz	$+284    	;abs 0x7b06
    79ec:	b0 12 04 6a 	call	#0x6a04	
    79f0:	48 4f       	mov.b	r15,	r8	
    79f2:	b0 12 b0 48 	call	#0x48b0	
    79f6:	f2 f0 ef ff 29 00 	and.b	#-17,	&0x0029	;#0xffef
    79fc:	b0 12 b8 48 	call	#0x48b8	
    7a00:	3f 40 30 02 	mov	#560,	r15	;#0x0230
    7a04:	b0 12 86 48 	call	#0x4886	
    7a08:	b0 12 b0 48 	call	#0x48b0	
    7a0c:	3f 40 3c 00 	mov	#60,	r15	;#0x003c
    7a10:	b0 12 86 48 	call	#0x4886	
    7a14:	0b 43       	clr	r11		
    7a16:	f2 b0 10 00 28 00 	bit.b	#16,	&0x0028	;#0x0010
    7a1c:	09 24       	jz	$+20     	;abs 0x7a30
    7a1e:	3b 50 05 00 	add	#5,	r11	;#0x0005
    7a22:	3f 40 05 00 	mov	#5,	r15	;#0x0005
    7a26:	b0 12 86 48 	call	#0x4886	
    7a2a:	3b 90 f0 00 	cmp	#240,	r11	;#0x00f0
    7a2e:	f3 23       	jnz	$-24     	;abs 0x7a16
    7a30:	3f 40 a4 01 	mov	#420,	r15	;#0x01a4
    7a34:	b0 12 86 48 	call	#0x4886	
    7a38:	3b 90 f0 00 	cmp	#240,	r11	;#0x00f0
    7a3c:	47 2c       	jc	$+144    	;abs 0x7acc
    7a3e:	7a 42       	mov.b	#8,	r10	;r2 As==11
    7a40:	7b 40 33 00 	mov.b	#51,	r11	;#0x0033
    7a44:	1b b3       	bit	#1,	r11	;r3 As==01
    7a46:	0b 24       	jz	$+24     	;abs 0x7a5e
    7a48:	b0 12 b8 48 	call	#0x48b8	
    7a4c:	3f 40 05 00 	mov	#5,	r15	;#0x0005
    7a50:	b0 12 86 48 	call	#0x4886	
    7a54:	b0 12 b0 48 	call	#0x48b0	
    7a58:	3f 40 41 00 	mov	#65,	r15	;#0x0041
    7a5c:	0a 3c       	jmp	$+22     	;abs 0x7a72
    7a5e:	b0 12 b8 48 	call	#0x48b8	
    7a62:	3f 40 3c 00 	mov	#60,	r15	;#0x003c
    7a66:	b0 12 86 48 	call	#0x4886	
    7a6a:	b0 12 b0 48 	call	#0x48b0	
    7a6e:	3f 40 05 00 	mov	#5,	r15	;#0x0005
    7a72:	b0 12 86 48 	call	#0x4886	
    7a76:	12 c3       	clrc			
    7a78:	4b 10       	rrc.b	r11		
    7a7a:	7a 53       	add.b	#-1,	r10	;r3 As==11
    7a7c:	e3 23       	jnz	$-56     	;abs 0x7a44
    7a7e:	3a 40 aa 1c 	mov	#7338,	r10	;#0x1caa
    7a82:	79 42       	mov.b	#8,	r9	;r2 As==11
    7a84:	4b 43       	clr.b	r11		
    7a86:	12 c3       	clrc			
    7a88:	4b 10       	rrc.b	r11		
    7a8a:	b0 12 b8 48 	call	#0x48b8	
    7a8e:	3f 40 05 00 	mov	#5,	r15	;#0x0005
    7a92:	b0 12 86 48 	call	#0x4886	
    7a96:	b0 12 b0 48 	call	#0x48b0	
    7a9a:	3f 40 05 00 	mov	#5,	r15	;#0x0005
    7a9e:	b0 12 86 48 	call	#0x4886	
    7aa2:	57 42 28 00 	mov.b	&0x0028,r7	
    7aa6:	3f 40 41 00 	mov	#65,	r15	;#0x0041
    7aaa:	b0 12 86 48 	call	#0x4886	
    7aae:	77 b0 10 00 	bit.b	#16,	r7	;#0x0010
    7ab2:	02 24       	jz	$+6      	;abs 0x7ab8
    7ab4:	7b d0 80 ff 	bis.b	#-128,	r11	;#0xff80
    7ab8:	79 53       	add.b	#-1,	r9	;r3 As==11
    7aba:	e5 23       	jnz	$-52     	;abs 0x7a86
    7abc:	ca 4b 00 00 	mov.b	r11,	0(r10)	;0x0000(r10)
    7ac0:	1a 53       	inc	r10		
    7ac2:	3a 90 b2 1c 	cmp	#7346,	r10	;#0x1cb2
    7ac6:	dd 23       	jnz	$-68     	;abs 0x7a82
    7ac8:	4b 43       	clr.b	r11		
    7aca:	01 3c       	jmp	$+4      	;abs 0x7ace
    7acc:	6b 42       	mov.b	#4,	r11	;r2 As==10
    7ace:	4f 48       	mov.b	r8,	r15	
    7ad0:	b0 12 16 6a 	call	#0x6a16	
    7ad4:	4b 93       	tst.b	r11		
    7ad6:	1b 20       	jnz	$+56     	;abs 0x7b0e
    7ad8:	0e 43       	clr	r14		
    7ada:	4f 43       	clr.b	r15		
    7adc:	5f ee aa 1c 	xor.b	7338(r14),r15	;0x1caa(r14)
    7ae0:	7d 42       	mov.b	#8,	r13	;r2 As==11
    7ae2:	0c 4f       	mov	r15,	r12	
    7ae4:	1c f3       	and	#1,	r12	;r3 As==01
    7ae6:	12 c3       	clrc			
    7ae8:	4f 10       	rrc.b	r15		
    7aea:	0c 93       	tst	r12		
    7aec:	02 24       	jz	$+6      	;abs 0x7af2
    7aee:	7f e0 8c ff 	xor.b	#-116,	r15	;#0xff8c
    7af2:	7d 53       	add.b	#-1,	r13	;r3 As==11
    7af4:	f6 23       	jnz	$-18     	;abs 0x7ae2
    7af6:	1e 53       	inc	r14		
    7af8:	3e 92       	cmp	#8,	r14	;r2 As==11
    7afa:	f0 23       	jnz	$-30     	;abs 0x7adc
    7afc:	4f 93       	tst.b	r15		
    7afe:	05 20       	jnz	$+12     	;abs 0x7b0a
    7b00:	d2 43 ce 11 	mov.b	#1,	&0x11ce	;r3 As==01
    7b04:	04 3c       	jmp	$+10     	;abs 0x7b0e
    7b06:	4b 43       	clr.b	r11		
    7b08:	02 3c       	jmp	$+6      	;abs 0x7b0e
    7b0a:	7b 40 06 00 	mov.b	#6,	r11	;#0x0006
    7b0e:	c2 93 ce 11 	tst.b	&0x11ce	
    7b12:	07 24       	jz	$+16     	;abs 0x7b22
    7b14:	5f 42 ab 1c 	mov.b	&0x1cab,r15	
    7b18:	5e 42 ac 1c 	mov.b	&0x1cac,r14	
    7b1c:	5d 42 ad 1c 	mov.b	&0x1cad,r13	
    7b20:	03 3c       	jmp	$+8      	;abs 0x7b28
    7b22:	4d 43       	clr.b	r13		
    7b24:	4e 43       	clr.b	r14		
    7b26:	4f 43       	clr.b	r15		
    7b28:	4b 93       	tst.b	r11		
    7b2a:	16 20       	jnz	$+46     	;abs 0x7b58
    7b2c:	c2 43 d2 11 	mov.b	#0,	&0x11d2	;r3 As==00
    7b30:	f2 40 12 00 d3 11 	mov.b	#18,	&0x11d3	;#0x0012
    7b36:	f2 40 6d 00 d4 11 	mov.b	#109,	&0x11d4	;#0x006d
    7b3c:	f2 40 45 00 d5 11 	mov.b	#69,	&0x11d5	;#0x0045
    7b42:	f2 40 50 00 d6 11 	mov.b	#80,	&0x11d6	;#0x0050
    7b48:	c2 4d d7 11 	mov.b	r13,	&0x11d7	
    7b4c:	c2 4e d8 11 	mov.b	r14,	&0x11d8	
    7b50:	c2 4f d9 11 	mov.b	r15,	&0x11d9	
    7b54:	d2 43 d0 11 	mov.b	#1,	&0x11d0	;r3 As==01
    7b58:	1c 42 d2 11 	mov	&0x11d2,r12	
    7b5c:	1d 42 d4 11 	mov	&0x11d4,r13	
    7b60:	1e 42 d6 11 	mov	&0x11d6,r14	
    7b64:	1f 42 d8 11 	mov	&0x11d8,r15	
    7b68:	37 41       	pop	r7		
    7b6a:	38 41       	pop	r8		
    7b6c:	39 41       	pop	r9		
    7b6e:	3a 41       	pop	r10		
    7b70:	3b 41       	pop	r11		
    7b72:	30 41       	ret			

00007b74 <Ieee154AddressP__Ieee154Address__getExtAddr>:
    7b74:	31 82       	sub	#8,	r1	;r2 As==11
    7b76:	b0 12 d6 79 	call	#0x79d6	
    7b7a:	81 4c 00 00 	mov	r12,	0(r1)	;0x0000(r1)
    7b7e:	81 4d 02 00 	mov	r13,	2(r1)	;0x0002(r1)
    7b82:	81 4e 04 00 	mov	r14,	4(r1)	;0x0004(r1)
    7b86:	81 4f 06 00 	mov	r15,	6(r1)	;0x0006(r1)
    7b8a:	0f 41       	mov	r1,	r15	
    7b8c:	3f 50 07 00 	add	#7,	r15	;#0x0007
    7b90:	0e 43       	clr	r14		
    7b92:	0d 41       	mov	r1,	r13	
    7b94:	0d 5e       	add	r14,	r13	
    7b96:	6c 4d       	mov.b	@r13,	r12	
    7b98:	ed 4f 00 00 	mov.b	@r15,	0(r13)	;0x0000(r13)
    7b9c:	cf 4c 00 00 	mov.b	r12,	0(r15)	;0x0000(r15)
    7ba0:	1e 53       	inc	r14		
    7ba2:	3f 53       	add	#-1,	r15	;r3 As==11
    7ba4:	2e 92       	cmp	#4,	r14	;r2 As==10
    7ba6:	f5 23       	jnz	$-20     	;abs 0x7b92
    7ba8:	2c 41       	mov	@r1,	r12	
    7baa:	1d 41 02 00 	mov	2(r1),	r13	;0x0002(r1)
    7bae:	1e 41 04 00 	mov	4(r1),	r14	;0x0004(r1)
    7bb2:	1f 41 06 00 	mov	6(r1),	r15	;0x0006(r1)
    7bb6:	31 52       	add	#8,	r1	;r2 As==11
    7bb8:	30 41       	ret			

00007bba <IPAddressP__IPAddress__isLocalAddress>:
    7bba:	0b 12       	push	r11		
    7bbc:	0a 12       	push	r10		
    7bbe:	09 12       	push	r9		
    7bc0:	08 12       	push	r8		
    7bc2:	07 12       	push	r7		
    7bc4:	06 12       	push	r6		
    7bc6:	0b 4f       	mov	r15,	r11	
    7bc8:	16 42 28 1b 	mov	&0x1b28,r6	
    7bcc:	b0 12 74 7b 	call	#0x7b74	
    7bd0:	4a 4c       	mov.b	r12,	r10	
    7bd2:	8c 10       	swpb	r12		
    7bd4:	49 4d       	mov.b	r13,	r9	
    7bd6:	8d 10       	swpb	r13		
    7bd8:	48 4e       	mov.b	r14,	r8	
    7bda:	8e 10       	swpb	r14		
    7bdc:	47 4f       	mov.b	r15,	r7	
    7bde:	8f 10       	swpb	r15		
    7be0:	bb 90 fe 80 00 00 	cmp	#-32514,0(r11)	;#0x80fe, 0x0000(r11)
    7be6:	33 20       	jnz	$+104    	;abs 0x7c4e
    7be8:	c2 93 da 11 	tst.b	&0x11da	
    7bec:	13 24       	jz	$+40     	;abs 0x7c14
    7bee:	bb 90 00 ff 0a 00 	cmp	#-256,	10(r11)	;#0xff00, 0x000a(r11)
    7bf4:	0f 20       	jnz	$+32     	;abs 0x7c14
    7bf6:	bb 90 fe 00 0c 00 	cmp	#254,	12(r11)	;#0x00fe, 0x000c(r11)
    7bfc:	0b 20       	jnz	$+24     	;abs 0x7c14
    7bfe:	1e 4b 0e 00 	mov	14(r11),r14	;0x000e(r11)
    7c02:	4f 4e       	mov.b	r14,	r15	
    7c04:	8f 10       	swpb	r15		
    7c06:	8e 10       	swpb	r14		
    7c08:	4e 4e       	mov.b	r14,	r14	
    7c0a:	0f de       	bis	r14,	r15	
    7c0c:	5e 43       	mov.b	#1,	r14	;r3 As==01
    7c0e:	0f 96       	cmp	r6,	r15	
    7c10:	34 20       	jnz	$+106    	;abs 0x7c7a
    7c12:	34 3c       	jmp	$+106    	;abs 0x7c7c
    7c14:	6f e3       	xor.b	#2,	r15	;r3 As==10
    7c16:	cb 9f 08 00 	cmp.b	r15,	8(r11)	;0x0008(r11)
    7c1a:	16 20       	jnz	$+46     	;abs 0x7c48
    7c1c:	cb 97 09 00 	cmp.b	r7,	9(r11)	;0x0009(r11)
    7c20:	13 20       	jnz	$+40     	;abs 0x7c48
    7c22:	cb 9e 0a 00 	cmp.b	r14,	10(r11)	;0x000a(r11)
    7c26:	10 20       	jnz	$+34     	;abs 0x7c48
    7c28:	cb 98 0b 00 	cmp.b	r8,	11(r11)	;0x000b(r11)
    7c2c:	0d 20       	jnz	$+28     	;abs 0x7c48
    7c2e:	cb 9d 0c 00 	cmp.b	r13,	12(r11)	;0x000c(r11)
    7c32:	0a 20       	jnz	$+22     	;abs 0x7c48
    7c34:	cb 99 0d 00 	cmp.b	r9,	13(r11)	;0x000d(r11)
    7c38:	07 20       	jnz	$+16     	;abs 0x7c48
    7c3a:	cb 9c 0e 00 	cmp.b	r12,	14(r11)	;0x000e(r11)
    7c3e:	04 20       	jnz	$+10     	;abs 0x7c48
    7c40:	1e 43       	mov	#1,	r14	;r3 As==01
    7c42:	cb 9a 0f 00 	cmp.b	r10,	15(r11)	;0x000f(r11)
    7c46:	01 24       	jz	$+4      	;abs 0x7c4a
    7c48:	0e 43       	clr	r14		
    7c4a:	4e 4e       	mov.b	r14,	r14	
    7c4c:	17 3c       	jmp	$+48     	;abs 0x7c7c
    7c4e:	fb 93 00 00 	cmp.b	#-1,	0(r11)	;r3 As==11, 0x0000(r11)
    7c52:	09 20       	jnz	$+20     	;abs 0x7c66
    7c54:	5f 4b 01 00 	mov.b	1(r11),	r15	;0x0001(r11)
    7c58:	3f f0 0f 00 	and	#15,	r15	;#0x000f
    7c5c:	5e 43       	mov.b	#1,	r14	;r3 As==01
    7c5e:	3f 90 03 00 	cmp	#3,	r15	;#0x0003
    7c62:	0c 38       	jl	$+26     	;abs 0x7c7c
    7c64:	0a 3c       	jmp	$+22     	;abs 0x7c7a
    7c66:	3d 40 10 00 	mov	#16,	r13	;#0x0010
    7c6a:	3e 40 2a 1b 	mov	#6954,	r14	;#0x1b2a
    7c6e:	0f 4b       	mov	r11,	r15	
    7c70:	b0 12 80 ef 	call	#0xef80	
    7c74:	5e 43       	mov.b	#1,	r14	;r3 As==01
    7c76:	0f 93       	tst	r15		
    7c78:	01 24       	jz	$+4      	;abs 0x7c7c
    7c7a:	4e 43       	clr.b	r14		
    7c7c:	4f 4e       	mov.b	r14,	r15	
    7c7e:	36 41       	pop	r6		
    7c80:	37 41       	pop	r7		
    7c82:	38 41       	pop	r8		
    7c84:	39 41       	pop	r9		
    7c86:	3a 41       	pop	r10		
    7c88:	3b 41       	pop	r11		
    7c8a:	30 41       	ret			

00007c8c <IPAddressP__IPAddress__getLLAddr>:
    7c8c:	0b 12       	push	r11		
    7c8e:	0a 12       	push	r10		
    7c90:	31 82       	sub	#8,	r1	;r2 As==11
    7c92:	0b 4f       	mov	r15,	r11	
    7c94:	1a 42 28 1b 	mov	&0x1b28,r10	
    7c98:	b0 12 74 7b 	call	#0x7b74	
    7c9c:	81 4c 00 00 	mov	r12,	0(r1)	;0x0000(r1)
    7ca0:	81 4d 02 00 	mov	r13,	2(r1)	;0x0002(r1)
    7ca4:	81 4e 04 00 	mov	r14,	4(r1)	;0x0004(r1)
    7ca8:	81 4f 06 00 	mov	r15,	6(r1)	;0x0006(r1)
    7cac:	3d 40 10 00 	mov	#16,	r13	;#0x0010
    7cb0:	0e 43       	clr	r14		
    7cb2:	0f 4b       	mov	r11,	r15	
    7cb4:	b0 12 94 f1 	call	#0xf194	
    7cb8:	bb 40 fe 80 00 00 	mov	#-32514,0(r11)	;#0x80fe, 0x0000(r11)
    7cbe:	c2 93 da 11 	tst.b	&0x11da	
    7cc2:	12 24       	jz	$+38     	;abs 0x7ce8
    7cc4:	bb 40 00 ff 0a 00 	mov	#-256,	10(r11)	;#0xff00, 0x000a(r11)
    7cca:	bb 40 fe 00 0c 00 	mov	#254,	12(r11)	;#0x00fe, 0x000c(r11)
    7cd0:	0f 4a       	mov	r10,	r15	
    7cd2:	8f 10       	swpb	r15		
    7cd4:	4f 4f       	mov.b	r15,	r15	
    7cd6:	4e 4a       	mov.b	r10,	r14	
    7cd8:	8e 10       	swpb	r14		
    7cda:	0e df       	bis	r15,	r14	
    7cdc:	8b 4e 0e 00 	mov	r14,	14(r11)	;0x000e(r11)
    7ce0:	fb f0 fd ff 08 00 	and.b	#-3,	8(r11)	;#0xfffd, 0x0008(r11)
    7ce6:	0d 3c       	jmp	$+28     	;abs 0x7d02
    7ce8:	0f 4b       	mov	r11,	r15	
    7cea:	3e 40 07 00 	mov	#7,	r14	;#0x0007
    7cee:	0d 41       	mov	r1,	r13	
    7cf0:	0d 5e       	add	r14,	r13	
    7cf2:	ef 4d 08 00 	mov.b	@r13,	8(r15)	;0x0008(r15)
    7cf6:	3e 53       	add	#-1,	r14	;r3 As==11
    7cf8:	1f 53       	inc	r15		
    7cfa:	3e 93       	cmp	#-1,	r14	;r3 As==11
    7cfc:	f8 23       	jnz	$-14     	;abs 0x7cee
    7cfe:	eb e3 08 00 	xor.b	#2,	8(r11)	;r3 As==10, 0x0008(r11)
    7d02:	5f 43       	mov.b	#1,	r15	;r3 As==01
    7d04:	31 52       	add	#8,	r1	;r2 As==11
    7d06:	3a 41       	pop	r10		
    7d08:	3b 41       	pop	r11		
    7d0a:	30 41       	ret			

00007d0c <IPNeighborDiscoveryP__IPForward__send>:
    7d0c:	0b 12       	push	r11		
    7d0e:	0a 12       	push	r10		
    7d10:	09 12       	push	r9		
    7d12:	08 12       	push	r8		
    7d14:	07 12       	push	r7		
    7d16:	06 12       	push	r6		
    7d18:	05 12       	push	r5		
    7d1a:	04 12       	push	r4		
    7d1c:	04 41       	mov	r1,	r4	
    7d1e:	34 50 10 00 	add	#16,	r4	;#0x0010
    7d22:	31 50 8a ff 	add	#-118,	r1	;#0xff8a
    7d26:	0b 4f       	mov	r15,	r11	
    7d28:	84 4e b6 ff 	mov	r14,	-74(r4)	;0xffb6(r4)
    7d2c:	09 4d       	mov	r13,	r9	
    7d2e:	94 42 56 2a b2 ff 	mov	&0x2a56,-78(r4)	;0xffb2(r4)
    7d34:	0f 44       	mov	r4,	r15	
    7d36:	3f 50 8e ff 	add	#-114,	r15	;#0xff8e
    7d3a:	b0 12 8c 7c 	call	#0x7c8c	
    7d3e:	0e 44       	mov	r4,	r14	
    7d40:	3e 50 9e ff 	add	#-98,	r14	;#0xff9e
    7d44:	0f 44       	mov	r4,	r15	
    7d46:	3f 50 8e ff 	add	#-114,	r15	;#0xff8e
    7d4a:	b0 12 fc 58 	call	#0x58fc	
    7d4e:	4f 93       	tst.b	r15		
    7d50:	02 24       	jz	$+6      	;abs 0x7d56
    7d52:	30 40 e6 87 	br	#0x87e6	
    7d56:	0e 44       	mov	r4,	r14	
    7d58:	3e 50 a8 ff 	add	#-88,	r14	;#0xffa8
    7d5c:	0f 4b       	mov	r11,	r15	
    7d5e:	b0 12 fc 58 	call	#0x58fc	
    7d62:	4f 93       	tst.b	r15		
    7d64:	02 24       	jz	$+6      	;abs 0x7d6a
    7d66:	30 40 e6 87 	br	#0x87e6	
    7d6a:	c2 93 36 11 	tst.b	&0x1136	
    7d6e:	02 24       	jz	$+6      	;abs 0x7d74
    7d70:	30 40 ea 87 	br	#0x87ea	
    7d74:	b4 93 aa ff 	cmp	#-1,	-86(r4)	;r3 As==11, 0xffaa(r4)
    7d78:	03 20       	jnz	$+8      	;abs 0x7d80
    7d7a:	c2 43 35 11 	mov.b	#0,	&0x1135	;r3 As==00
    7d7e:	02 3c       	jmp	$+6      	;abs 0x7d84
    7d80:	d2 43 35 11 	mov.b	#1,	&0x1135	;r3 As==01
    7d84:	1b 44 b6 ff 	mov	-74(r4),r11	;0xffb6(r4)
    7d88:	5c 4b 04 00 	mov.b	4(r11),	r12	;0x0004(r11)
    7d8c:	7c f0 0f 00 	and.b	#15,	r12	;#0x000f
    7d90:	7c d0 60 00 	bis.b	#96,	r12	;#0x0060
    7d94:	cb 4c 04 00 	mov.b	r12,	4(r11)	;0x0004(r11)
    7d98:	5c 42 c6 11 	mov.b	&0x11c6,r12	
    7d9c:	4b 4c       	mov.b	r12,	r11	
    7d9e:	84 4b d4 ff 	mov	r11,	-44(r4)	;0xffd4(r4)
    7da2:	5c 53       	inc.b	r12		
    7da4:	c2 4c c6 11 	mov.b	r12,	&0x11c6	
    7da8:	5b 42 b8 12 	mov.b	&0x12b8,r11	
    7dac:	4b 93       	tst.b	r11		
    7dae:	02 20       	jnz	$+6      	;abs 0x7db4
    7db0:	30 40 ee 87 	br	#0x87ee	
    7db4:	5a 42 64 12 	mov.b	&0x1264,r10	
    7db8:	4c 4a       	mov.b	r10,	r12	
    7dba:	0c 5c       	rla	r12		
    7dbc:	3c 50 7c 24 	add	#9340,	r12	;#0x247c
    7dc0:	a4 4c ba ff 	mov	@r12,	-70(r4)	;0xffba(r4)
    7dc4:	8c 43 00 00 	mov	#0,	0(r12)	;r3 As==00, 0x0000(r12)
    7dc8:	7b 53       	add.b	#-1,	r11	;r3 As==11
    7dca:	c2 4b b8 12 	mov.b	r11,	&0x12b8	
    7dce:	4c 4a       	mov.b	r10,	r12	
    7dd0:	5c 53       	inc.b	r12		
    7dd2:	c2 4c 64 12 	mov.b	r12,	&0x1264	
    7dd6:	7c 90 03 00 	cmp.b	#3,	r12	;#0x0003
    7dda:	02 20       	jnz	$+6      	;abs 0x7de0
    7ddc:	c2 43 64 12 	mov.b	#0,	&0x1264	;r3 As==00
    7de0:	84 93 ba ff 	tst	-70(r4)	;0xffba(r4)
    7de4:	02 20       	jnz	$+6      	;abs 0x7dea
    7de6:	30 40 ee 87 	br	#0x87ee	
    7dea:	1b 44 ba ff 	mov	-70(r4),r11	;0xffba(r4)
    7dee:	db 43 06 00 	mov.b	#1,	6(r11)	;r3 As==01, 0x0006(r11)
    7df2:	cb 43 05 00 	mov.b	#0,	5(r11)	;r3 As==00, 0x0005(r11)
    7df6:	cb 43 03 00 	mov.b	#0,	3(r11)	;r3 As==00, 0x0003(r11)
    7dfa:	cb 43 02 00 	mov.b	#0,	2(r11)	;r3 As==00, 0x0002(r11)
    7dfe:	cb 43 04 00 	mov.b	#0,	4(r11)	;r3 As==00, 0x0004(r11)
    7e02:	8b 49 00 00 	mov	r9,	0(r11)	;0x0000(r11)
    7e06:	84 43 be ff 	mov	#0,	-66(r4)	;r3 As==00, 0xffbe(r4)
    7e0a:	19 44 b6 ff 	mov	-74(r4),r9	;0xffb6(r4)
    7e0e:	39 50 0c 00 	add	#12,	r9	;#0x000c
    7e12:	84 49 ee ff 	mov	r9,	-18(r4)	;0xffee(r4)
    7e16:	1b 44 b6 ff 	mov	-74(r4),r11	;0xffb6(r4)
    7e1a:	3b 50 1c 00 	add	#28,	r11	;#0x001c
    7e1e:	84 4b c0 ff 	mov	r11,	-64(r4)	;0xffc0(r4)
    7e22:	5c 42 f3 17 	mov.b	&0x17f3,r12	
    7e26:	4c 93       	tst.b	r12		
    7e28:	17 24       	jz	$+48     	;abs 0x7e58
    7e2a:	5d 42 08 25 	mov.b	&0x2508,r13	
    7e2e:	0d 5d       	rla	r13		
    7e30:	3d 50 36 2a 	add	#10806,	r13	;#0x2a36
    7e34:	a4 4d bc ff 	mov	@r13,	-68(r4)	;0xffbc(r4)
    7e38:	8d 43 00 00 	mov	#0,	0(r13)	;r3 As==00, 0x0000(r13)
    7e3c:	7c 53       	add.b	#-1,	r12	;r3 As==11
    7e3e:	c2 4c f3 17 	mov.b	r12,	&0x17f3	
    7e42:	5d 42 08 25 	mov.b	&0x2508,r13	
    7e46:	5d 53       	inc.b	r13		
    7e48:	c2 4d 08 25 	mov.b	r13,	&0x2508	
    7e4c:	7d 90 0c 00 	cmp.b	#12,	r13	;#0x000c
    7e50:	05 20       	jnz	$+12     	;abs 0x7e5c
    7e52:	c2 43 08 25 	mov.b	#0,	&0x2508	;r3 As==00
    7e56:	02 3c       	jmp	$+6      	;abs 0x7e5c
    7e58:	84 43 bc ff 	mov	#0,	-68(r4)	;r3 As==00, 0xffbc(r4)
    7e5c:	5c 42 f5 17 	mov.b	&0x17f5,r12	
    7e60:	4c 93       	tst.b	r12		
    7e62:	17 24       	jz	$+48     	;abs 0x7e92
    7e64:	5b 42 2e 15 	mov.b	&0x152e,r11	
    7e68:	4d 4b       	mov.b	r11,	r13	
    7e6a:	0d 5d       	rla	r13		
    7e6c:	3d 50 60 1c 	add	#7264,	r13	;#0x1c60
    7e70:	a4 4d b8 ff 	mov	@r13,	-72(r4)	;0xffb8(r4)
    7e74:	8d 43 00 00 	mov	#0,	0(r13)	;r3 As==00, 0x0000(r13)
    7e78:	7c 53       	add.b	#-1,	r12	;r3 As==11
    7e7a:	c2 4c f5 17 	mov.b	r12,	&0x17f5	
    7e7e:	4d 4b       	mov.b	r11,	r13	
    7e80:	5d 53       	inc.b	r13		
    7e82:	c2 4d 2e 15 	mov.b	r13,	&0x152e	
    7e86:	7d 90 0c 00 	cmp.b	#12,	r13	;#0x000c
    7e8a:	05 20       	jnz	$+12     	;abs 0x7e96
    7e8c:	c2 43 2e 15 	mov.b	#0,	&0x152e	;r3 As==00
    7e90:	02 3c       	jmp	$+6      	;abs 0x7e96
    7e92:	84 43 b8 ff 	mov	#0,	-72(r4)	;r3 As==00, 0xffb8(r4)
    7e96:	84 93 bc ff 	tst	-68(r4)	;0xffbc(r4)
    7e9a:	05 24       	jz	$+12     	;abs 0x7ea6
    7e9c:	84 93 b8 ff 	tst	-72(r4)	;0xffb8(r4)
    7ea0:	11 20       	jnz	$+36     	;abs 0x7ec4
    7ea2:	30 40 6c 88 	br	#0x886c	
    7ea6:	84 93 b8 ff 	tst	-72(r4)	;0xffb8(r4)
    7eaa:	04 24       	jz	$+10     	;abs 0x7eb4
    7eac:	1f 44 b8 ff 	mov	-72(r4),r15	;0xffb8(r4)
    7eb0:	b0 12 b4 59 	call	#0x59b4	
    7eb4:	19 44 ba ff 	mov	-70(r4),r9	;0xffba(r4)
    7eb8:	d9 43 05 00 	mov.b	#1,	5(r9)	;r3 As==01, 0x0005(r9)
    7ebc:	7b 40 07 00 	mov.b	#7,	r11	;#0x0007
    7ec0:	30 40 d4 87 	br	#0x87d4	
    7ec4:	3d 40 8c 00 	mov	#140,	r13	;#0x008c
    7ec8:	0e 43       	clr	r14		
    7eca:	1f 44 b8 ff 	mov	-72(r4),r15	;0xffb8(r4)
    7ece:	b0 12 94 f1 	call	#0xf194	
    7ed2:	0e 44       	mov	r4,	r14	
    7ed4:	3e 50 9e ff 	add	#-98,	r14	;#0xff9e
    7ed8:	1f 44 b8 ff 	mov	-72(r4),r15	;0xffb8(r4)
    7edc:	b0 12 4e 5d 	call	#0x5d4e	
    7ee0:	84 4f b4 ff 	mov	r15,	-76(r4)	;0xffb4(r4)
    7ee4:	84 93 be ff 	tst	-66(r4)	;0xffbe(r4)
    7ee8:	02 24       	jz	$+6      	;abs 0x7eee
    7eea:	30 40 92 85 	br	#0x8592	
    7eee:	1b 44 b6 ff 	mov	-74(r4),r11	;0xffb6(r4)
    7ef2:	5d 4b 04 00 	mov.b	4(r11),	r13	;0x0004(r11)
    7ef6:	3d f0 f0 00 	and	#240,	r13	;#0x00f0
    7efa:	3d 90 60 00 	cmp	#96,	r13	;#0x0060
    7efe:	02 24       	jz	$+6      	;abs 0x7f04
    7f00:	30 40 ec 86 	br	#0x86ec	
    7f04:	ff 40 60 00 00 00 	mov.b	#96,	0(r15)	;#0x0060, 0x0000(r15)
    7f0a:	cf 43 01 00 	mov.b	#0,	1(r15)	;r3 As==00, 0x0001(r15)
    7f0e:	5a 4b 04 00 	mov.b	4(r11),	r10	;0x0004(r11)
    7f12:	09 4b       	mov	r11,	r9	
    7f14:	5b 4b 05 00 	mov.b	5(r11),	r11	;0x0005(r11)
    7f18:	8b 10       	swpb	r11		
    7f1a:	5c 49 06 00 	mov.b	6(r9),	r12	;0x0006(r9)
    7f1e:	5d 49 07 00 	mov.b	7(r9),	r13	;0x0007(r9)
    7f22:	8d 10       	swpb	r13		
    7f24:	0e 4b       	mov	r11,	r14	
    7f26:	0e da       	bis	r10,	r14	
    7f28:	0f 4d       	mov	r13,	r15	
    7f2a:	0f dc       	bis	r12,	r15	
    7f2c:	b0 12 68 ed 	call	#0xed68	
    7f30:	08 4e       	mov	r14,	r8	
    7f32:	09 4f       	mov	r15,	r9	
    7f34:	38 f3       	and	#-1,	r8	;r3 As==11
    7f36:	39 f0 0f 00 	and	#15,	r9	;#0x000f
    7f3a:	1b 44 b6 ff 	mov	-74(r4),r11	;0xffb6(r4)
    7f3e:	5a 4b 04 00 	mov.b	4(r11),	r10	;0x0004(r11)
    7f42:	5b 4b 05 00 	mov.b	5(r11),	r11	;0x0005(r11)
    7f46:	8b 10       	swpb	r11		
    7f48:	1e 44 b6 ff 	mov	-74(r4),r14	;0xffb6(r4)
    7f4c:	5c 4e 06 00 	mov.b	6(r14),	r12	;0x0006(r14)
    7f50:	5d 4e 07 00 	mov.b	7(r14),	r13	;0x0007(r14)
    7f54:	8d 10       	swpb	r13		
    7f56:	0e 4b       	mov	r11,	r14	
    7f58:	0e da       	bis	r10,	r14	
    7f5a:	0f 4d       	mov	r13,	r15	
    7f5c:	0f dc       	bis	r12,	r15	
    7f5e:	b0 12 68 ed 	call	#0xed68	
    7f62:	84 4f c8 ff 	mov	r15,	-56(r4)	;0xffc8(r4)
    7f66:	84 43 ca ff 	mov	#0,	-54(r4)	;r3 As==00, 0xffca(r4)
    7f6a:	6d 42       	mov.b	#4,	r13	;r2 As==10
    7f6c:	1e 44 c8 ff 	mov	-56(r4),r14	;0xffc8(r4)
    7f70:	1f 44 ca ff 	mov	-54(r4),r15	;0xffca(r4)
    7f74:	12 c3       	clrc			
    7f76:	0f 10       	rrc	r15		
    7f78:	0e 10       	rrc	r14		
    7f7a:	7d 53       	add.b	#-1,	r13	;r3 As==11
    7f7c:	fb 23       	jnz	$-8      	;abs 0x7f74
    7f7e:	84 4e c8 ff 	mov	r14,	-56(r4)	;0xffc8(r4)
    7f82:	84 4f ca ff 	mov	r15,	-54(r4)	;0xffca(r4)
    7f86:	4d 4e       	mov.b	r14,	r13	
    7f88:	08 93       	tst	r8		
    7f8a:	23 20       	jnz	$+72     	;abs 0x7fd2
    7f8c:	09 93       	tst	r9		
    7f8e:	21 20       	jnz	$+68     	;abs 0x7fd2
    7f90:	1b 44 b4 ff 	mov	-76(r4),r11	;0xffb4(r4)
    7f94:	4e 93       	tst.b	r14		
    7f96:	07 20       	jnz	$+16     	;abs 0x7fa6
    7f98:	2b 53       	incd	r11		
    7f9a:	19 44 b4 ff 	mov	-76(r4),r9	;0xffb4(r4)
    7f9e:	f9 d0 18 00 00 00 	bis.b	#24,	0(r9)	;#0x0018, 0x0000(r9)
    7fa4:	54 3c       	jmp	$+170    	;abs 0x804e
    7fa6:	fb d0 10 00 00 00 	bis.b	#16,	0(r11)	;#0x0010, 0x0000(r11)
    7fac:	4c 4e       	mov.b	r14,	r12	
    7fae:	7b 40 06 00 	mov.b	#6,	r11	;#0x0006
    7fb2:	0c 5c       	rla	r12		
    7fb4:	7b 53       	add.b	#-1,	r11	;r3 As==11
    7fb6:	fd 23       	jnz	$-4      	;abs 0x7fb2
    7fb8:	12 c3       	clrc			
    7fba:	4d 10       	rrc.b	r13		
    7fbc:	12 c3       	clrc			
    7fbe:	4d 10       	rrc.b	r13		
    7fc0:	4d dc       	bis.b	r12,	r13	
    7fc2:	19 44 b4 ff 	mov	-76(r4),r9	;0xffb4(r4)
    7fc6:	c9 4d 02 00 	mov.b	r13,	2(r9)	;0x0002(r9)
    7fca:	0b 49       	mov	r9,	r11	
    7fcc:	3b 50 03 00 	add	#3,	r11	;#0x0003
    7fd0:	3e 3c       	jmp	$+126    	;abs 0x804e
    7fd2:	4c 4d       	mov.b	r13,	r12	
    7fd4:	0b 4c       	mov	r12,	r11	
    7fd6:	3b f0 03 00 	and	#3,	r11	;#0x0003
    7fda:	0b 9c       	cmp	r12,	r11	
    7fdc:	1c 20       	jnz	$+58     	;abs 0x8016
    7fde:	1e 44 b4 ff 	mov	-76(r4),r14	;0xffb4(r4)
    7fe2:	fe d2 00 00 	bis.b	#8,	0(r14)	;r2 As==11, 0x0000(r14)
    7fe6:	0c 4b       	mov	r11,	r12	
    7fe8:	7d 40 06 00 	mov.b	#6,	r13	;#0x0006
    7fec:	0c 5c       	rla	r12		
    7fee:	7d 53       	add.b	#-1,	r13	;r3 As==11
    7ff0:	fd 23       	jnz	$-4      	;abs 0x7fec
    7ff2:	0d 49       	mov	r9,	r13	
    7ff4:	4c d9       	bis.b	r9,	r12	
    7ff6:	1b 44 b4 ff 	mov	-76(r4),r11	;0xffb4(r4)
    7ffa:	cb 4c 02 00 	mov.b	r12,	2(r11)	;0x0002(r11)
    7ffe:	0c 48       	mov	r8,	r12	
    8000:	8c 10       	swpb	r12		
    8002:	8d 10       	swpb	r13		
    8004:	4c ed       	xor.b	r13,	r12	
    8006:	0c ed       	xor	r13,	r12	
    8008:	cb 4c 03 00 	mov.b	r12,	3(r11)	;0x0003(r11)
    800c:	cb 48 04 00 	mov.b	r8,	4(r11)	;0x0004(r11)
    8010:	3b 50 05 00 	add	#5,	r11	;#0x0005
    8014:	1c 3c       	jmp	$+58     	;abs 0x804e
    8016:	7b 40 06 00 	mov.b	#6,	r11	;#0x0006
    801a:	0c 5c       	rla	r12		
    801c:	7b 53       	add.b	#-1,	r11	;r3 As==11
    801e:	fd 23       	jnz	$-4      	;abs 0x801a
    8020:	12 c3       	clrc			
    8022:	4d 10       	rrc.b	r13		
    8024:	12 c3       	clrc			
    8026:	4d 10       	rrc.b	r13		
    8028:	4d dc       	bis.b	r12,	r13	
    802a:	1b 44 b4 ff 	mov	-76(r4),r11	;0xffb4(r4)
    802e:	cb 4d 02 00 	mov.b	r13,	2(r11)	;0x0002(r11)
    8032:	0d 49       	mov	r9,	r13	
    8034:	cb 49 03 00 	mov.b	r9,	3(r11)	;0x0003(r11)
    8038:	0c 48       	mov	r8,	r12	
    803a:	8c 10       	swpb	r12		
    803c:	8d 10       	swpb	r13		
    803e:	4c ed       	xor.b	r13,	r12	
    8040:	0c ed       	xor	r13,	r12	
    8042:	cb 4c 04 00 	mov.b	r12,	4(r11)	;0x0004(r11)
    8046:	cb 48 05 00 	mov.b	r8,	5(r11)	;0x0005(r11)
    804a:	3b 50 06 00 	add	#6,	r11	;#0x0006
    804e:	19 44 b6 ff 	mov	-74(r4),r9	;0xffb6(r4)
    8052:	5d 49 0a 00 	mov.b	10(r9),	r13	;0x000a(r9)
    8056:	4d 93       	tst.b	r13		
    8058:	12 24       	jz	$+38     	;abs 0x807e
    805a:	7d 90 2b 00 	cmp.b	#43,	r13	;#0x002b
    805e:	0f 24       	jz	$+32     	;abs 0x807e
    8060:	7d 90 2c 00 	cmp.b	#44,	r13	;#0x002c
    8064:	0c 24       	jz	$+26     	;abs 0x807e
    8066:	7d 90 3c 00 	cmp.b	#60,	r13	;#0x003c
    806a:	09 24       	jz	$+20     	;abs 0x807e
    806c:	7d 90 87 ff 	cmp.b	#-121,	r13	;#0xff87
    8070:	06 24       	jz	$+14     	;abs 0x807e
    8072:	7d 90 29 00 	cmp.b	#41,	r13	;#0x0029
    8076:	03 24       	jz	$+8      	;abs 0x807e
    8078:	7d 90 11 00 	cmp.b	#17,	r13	;#0x0011
    807c:	05 20       	jnz	$+12     	;abs 0x8088
    807e:	19 44 b4 ff 	mov	-76(r4),r9	;0xffb4(r4)
    8082:	e9 d2 00 00 	bis.b	#4,	0(r9)	;r2 As==10, 0x0000(r9)
    8086:	03 3c       	jmp	$+8      	;abs 0x808e
    8088:	cb 4d 00 00 	mov.b	r13,	0(r11)	;0x0000(r11)
    808c:	1b 53       	inc	r11		
    808e:	19 44 b6 ff 	mov	-74(r4),r9	;0xffb6(r4)
    8092:	5d 49 0b 00 	mov.b	11(r9),	r13	;0x000b(r9)
    8096:	5d 93       	cmp.b	#1,	r13	;r3 As==01
    8098:	05 20       	jnz	$+12     	;abs 0x80a4
    809a:	19 44 b4 ff 	mov	-76(r4),r9	;0xffb4(r4)
    809e:	d9 d3 00 00 	bis.b	#1,	0(r9)	;r3 As==01, 0x0000(r9)
    80a2:	13 3c       	jmp	$+40     	;abs 0x80ca
    80a4:	7d 90 40 00 	cmp.b	#64,	r13	;#0x0040
    80a8:	05 20       	jnz	$+12     	;abs 0x80b4
    80aa:	19 44 b4 ff 	mov	-76(r4),r9	;0xffb4(r4)
    80ae:	e9 d3 00 00 	bis.b	#2,	0(r9)	;r3 As==10, 0x0000(r9)
    80b2:	0b 3c       	jmp	$+24     	;abs 0x80ca
    80b4:	7d 93       	cmp.b	#-1,	r13	;r3 As==11
    80b6:	06 20       	jnz	$+14     	;abs 0x80c4
    80b8:	19 44 b4 ff 	mov	-76(r4),r9	;0xffb4(r4)
    80bc:	f9 d0 03 00 00 00 	bis.b	#3,	0(r9)	;#0x0003, 0x0000(r9)
    80c2:	03 3c       	jmp	$+8      	;abs 0x80ca
    80c4:	cb 4d 00 00 	mov.b	r13,	0(r11)	;0x0000(r11)
    80c8:	1b 53       	inc	r11		
    80ca:	0e 44       	mov	r4,	r14	
    80cc:	3e 50 7a ff 	add	#-134,	r14	;#0xff7a
    80d0:	1f 44 ee ff 	mov	-18(r4),r15	;0xffee(r4)
    80d4:	b0 12 0a 55 	call	#0x550a	
    80d8:	c4 43 7a ff 	mov.b	#0,	-134(r4);r3 As==00, 0xff7a(r4)
    80dc:	3e 40 7a ff 	mov	#-134,	r14	;#0xff7a
    80e0:	0e 54       	add	r4,	r14	
    80e2:	0e 12       	push	r14		
    80e4:	0c 44       	mov	r4,	r12	
    80e6:	3c 50 9e ff 	add	#-98,	r12	;#0xff9e
    80ea:	4d 4f       	mov.b	r15,	r13	
    80ec:	1e 44 ee ff 	mov	-18(r4),r14	;0xffee(r4)
    80f0:	0f 4b       	mov	r11,	r15	
    80f2:	b0 12 9e 5b 	call	#0x5b9e	
    80f6:	21 53       	incd	r1		
    80f8:	08 4f       	mov	r15,	r8	
    80fa:	5d 44 7a ff 	mov.b	-134(r4),r13	;0xff7a(r4)
    80fe:	0d 5d       	rla	r13		
    8100:	0d 5d       	rla	r13		
    8102:	0d 5d       	rla	r13		
    8104:	0d 5d       	rla	r13		
    8106:	19 44 b4 ff 	mov	-76(r4),r9	;0xffb4(r4)
    810a:	c9 dd 01 00 	bis.b	r13,	1(r9)	;0x0001(r9)
    810e:	1b 44 b6 ff 	mov	-74(r4),r11	;0xffb6(r4)
    8112:	fb 93 1c 00 	cmp.b	#-1,	28(r11)	;r3 As==11, 0x001c(r11)
    8116:	1c 24       	jz	$+58     	;abs 0x8150
    8118:	0e 44       	mov	r4,	r14	
    811a:	3e 50 7a ff 	add	#-134,	r14	;#0xff7a
    811e:	1f 44 c0 ff 	mov	-64(r4),r15	;0xffc0(r4)
    8122:	b0 12 0a 55 	call	#0x550a	
    8126:	c4 43 7a ff 	mov.b	#0,	-134(r4);r3 As==00, 0xff7a(r4)
    812a:	3e 40 7a ff 	mov	#-134,	r14	;#0xff7a
    812e:	0e 54       	add	r4,	r14	
    8130:	0e 12       	push	r14		
    8132:	0c 44       	mov	r4,	r12	
    8134:	3c 50 a8 ff 	add	#-88,	r12	;#0xffa8
    8138:	4d 4f       	mov.b	r15,	r13	
    813a:	1e 44 c0 ff 	mov	-64(r4),r14	;0xffc0(r4)
    813e:	0f 48       	mov	r8,	r15	
    8140:	b0 12 9e 5b 	call	#0x5b9e	
    8144:	21 53       	incd	r1		
    8146:	05 4f       	mov	r15,	r5	
    8148:	d9 d4 7a ff 01 00 	bis.b	-134(r4),1(r9)	;0xff7a(r4), 0x0001(r9)
    814e:	67 3c       	jmp	$+208    	;abs 0x821e
    8150:	c4 43 7a ff 	mov.b	#0,	-134(r4);r3 As==00, 0xff7a(r4)
    8154:	19 44 b6 ff 	mov	-74(r4),r9	;0xffb6(r4)
    8158:	b9 90 ff 02 1c 00 	cmp	#767,	28(r9)	;#0x02ff, 0x001c(r9)
    815e:	13 20       	jnz	$+40     	;abs 0x8186
    8160:	3d 40 78 00 	mov	#120,	r13	;#0x0078
    8164:	3e 40 10 00 	mov	#16,	r14	;#0x0010
    8168:	1f 44 c0 ff 	mov	-64(r4),r15	;0xffc0(r4)
    816c:	b0 12 94 4b 	call	#0x4b94	
    8170:	0f 93       	tst	r15		
    8172:	09 20       	jnz	$+20     	;abs 0x8186
    8174:	f4 40 03 00 7a ff 	mov.b	#3,	-134(r4);#0x0003, 0xff7a(r4)
    817a:	d8 49 2b 00 00 00 	mov.b	43(r9),	0(r8)	;0x002b(r9), 0x0000(r8)
    8180:	05 48       	mov	r8,	r5	
    8182:	15 53       	inc	r5		
    8184:	45 3c       	jmp	$+140    	;abs 0x8210
    8186:	3d 40 68 00 	mov	#104,	r13	;#0x0068
    818a:	3e 40 10 00 	mov	#16,	r14	;#0x0010
    818e:	1f 44 c0 ff 	mov	-64(r4),r15	;0xffc0(r4)
    8192:	b0 12 94 4b 	call	#0x4b94	
    8196:	0f 93       	tst	r15		
    8198:	13 20       	jnz	$+40     	;abs 0x81c0
    819a:	e4 43 7a ff 	mov.b	#2,	-134(r4);r3 As==10, 0xff7a(r4)
    819e:	1b 44 b6 ff 	mov	-74(r4),r11	;0xffb6(r4)
    81a2:	d8 4b 1d 00 00 00 	mov.b	29(r11),0(r8)	;0x001d(r11), 0x0000(r8)
    81a8:	3d 40 03 00 	mov	#3,	r13	;#0x0003
    81ac:	0e 4b       	mov	r11,	r14	
    81ae:	3e 50 29 00 	add	#41,	r14	;#0x0029
    81b2:	0f 48       	mov	r8,	r15	
    81b4:	1f 53       	inc	r15		
    81b6:	b0 12 a0 ef 	call	#0xefa0	
    81ba:	05 48       	mov	r8,	r5	
    81bc:	25 52       	add	#4,	r5	;r2 As==10
    81be:	28 3c       	jmp	$+82     	;abs 0x8210
    81c0:	3d 40 58 00 	mov	#88,	r13	;#0x0058
    81c4:	3e 40 10 00 	mov	#16,	r14	;#0x0010
    81c8:	1f 44 c0 ff 	mov	-64(r4),r15	;0xffc0(r4)
    81cc:	b0 12 94 4b 	call	#0x4b94	
    81d0:	0f 93       	tst	r15		
    81d2:	14 20       	jnz	$+42     	;abs 0x81fc
    81d4:	d4 43 7a ff 	mov.b	#1,	-134(r4);r3 As==01, 0xff7a(r4)
    81d8:	19 44 b6 ff 	mov	-74(r4),r9	;0xffb6(r4)
    81dc:	d8 49 1d 00 00 00 	mov.b	29(r9),	0(r8)	;0x001d(r9), 0x0000(r8)
    81e2:	3d 40 05 00 	mov	#5,	r13	;#0x0005
    81e6:	0e 49       	mov	r9,	r14	
    81e8:	3e 50 27 00 	add	#39,	r14	;#0x0027
    81ec:	0f 48       	mov	r8,	r15	
    81ee:	1f 53       	inc	r15		
    81f0:	b0 12 a0 ef 	call	#0xefa0	
    81f4:	05 48       	mov	r8,	r5	
    81f6:	35 50 06 00 	add	#6,	r5	;#0x0006
    81fa:	0a 3c       	jmp	$+22     	;abs 0x8210
    81fc:	3d 40 10 00 	mov	#16,	r13	;#0x0010
    8200:	1e 44 c0 ff 	mov	-64(r4),r14	;0xffc0(r4)
    8204:	0f 48       	mov	r8,	r15	
    8206:	b0 12 a0 ef 	call	#0xefa0	
    820a:	05 48       	mov	r8,	r5	
    820c:	35 50 10 00 	add	#16,	r5	;#0x0010
    8210:	5d 44 7a ff 	mov.b	-134(r4),r13	;0xff7a(r4)
    8214:	7d d2       	bis.b	#8,	r13	;r2 As==11
    8216:	1b 44 b4 ff 	mov	-76(r4),r11	;0xffb4(r4)
    821a:	cb dd 01 00 	bis.b	r13,	1(r11)	;0x0001(r11)
    821e:	05 93       	tst	r5		
    8220:	02 20       	jnz	$+6      	;abs 0x8226
    8222:	30 40 ec 86 	br	#0x86ec	
    8226:	94 44 b8 ff c4 ff 	mov	-72(r4),-60(r4)	;0xffb8(r4), 0xffc4(r4)
    822c:	1d 44 b8 ff 	mov	-72(r4),r13	;0xffb8(r4)
    8230:	8d 10       	swpb	r13		
    8232:	8d 11       	sxt	r13		
    8234:	8d 10       	swpb	r13		
    8236:	8d 11       	sxt	r13		
    8238:	84 4d c6 ff 	mov	r13,	-58(r4)	;0xffc6(r4)
    823c:	84 45 d6 ff 	mov	r5,	-42(r4)	;0xffd6(r4)
    8240:	0d 45       	mov	r5,	r13	
    8242:	8d 10       	swpb	r13		
    8244:	8d 11       	sxt	r13		
    8246:	8d 10       	swpb	r13		
    8248:	8d 11       	sxt	r13		
    824a:	84 4d d8 ff 	mov	r13,	-40(r4)	;0xffd8(r4)
    824e:	1a 44 c4 ff 	mov	-60(r4),r10	;0xffc4(r4)
    8252:	1b 44 c6 ff 	mov	-58(r4),r11	;0xffc6(r4)
    8256:	1a 84 d6 ff 	sub	-42(r4),r10	;0xffd6(r4)
    825a:	1b 74 d8 ff 	subc	-40(r4),r11	;0xffd8(r4)
    825e:	3a 50 7c 00 	add	#124,	r10	;#0x007c
    8262:	19 44 b6 ff 	mov	-74(r4),r9	;0xffb6(r4)
    8266:	56 49 0a 00 	mov.b	10(r9),	r6	;0x000a(r9)
    826a:	07 43       	clr	r7		
    826c:	84 4a c2 ff 	mov	r10,	-62(r4)	;0xffc2(r4)
    8270:	c6 3c       	jmp	$+398    	;abs 0x83fe
    8272:	0c 44       	mov	r4,	r12	
    8274:	3c 50 80 ff 	add	#-128,	r12	;#0xff80
    8278:	2d 43       	mov	#2,	r13	;r3 As==10
    827a:	0e 47       	mov	r7,	r14	
    827c:	1b 44 b6 ff 	mov	-74(r4),r11	;0xffb6(r4)
    8280:	1f 4b 02 00 	mov	2(r11),	r15	;0x0002(r11)
    8284:	b0 12 ec e6 	call	#0xe6ec	
    8288:	2f 93       	cmp	#2,	r15	;r3 As==10
    828a:	02 24       	jz	$+6      	;abs 0x8290
    828c:	30 40 8a 84 	br	#0x848a	
    8290:	5d 44 81 ff 	mov.b	-127(r4),r13	;0xff81(r4)
    8294:	84 9d c2 ff 	cmp	r13,	-62(r4)	;0xffc2(r4)
    8298:	02 2c       	jc	$+6      	;abs 0x829e
    829a:	30 40 8a 84 	br	#0x848a	
    829e:	f5 40 e0 ff 00 00 	mov.b	#-32,	0(r5)	;#0xffe0, 0x0000(r5)
    82a4:	76 90 2c 00 	cmp.b	#44,	r6	;#0x002c
    82a8:	18 24       	jz	$+50     	;abs 0x82da
    82aa:	76 90 2d 00 	cmp.b	#45,	r6	;#0x002d
    82ae:	08 2c       	jc	$+18     	;abs 0x82c0
    82b0:	46 93       	tst.b	r6		
    82b2:	1e 24       	jz	$+62     	;abs 0x82f0
    82b4:	76 90 2b 00 	cmp.b	#43,	r6	;#0x002b
    82b8:	02 24       	jz	$+6      	;abs 0x82be
    82ba:	30 40 8a 84 	br	#0x848a	
    82be:	09 3c       	jmp	$+20     	;abs 0x82d2
    82c0:	76 90 3c 00 	cmp.b	#60,	r6	;#0x003c
    82c4:	0e 24       	jz	$+30     	;abs 0x82e2
    82c6:	76 90 87 ff 	cmp.b	#-121,	r6	;#0xff87
    82ca:	02 24       	jz	$+6      	;abs 0x82d0
    82cc:	30 40 8a 84 	br	#0x848a	
    82d0:	0c 3c       	jmp	$+26     	;abs 0x82ea
    82d2:	f5 40 e2 ff 00 00 	mov.b	#-30,	0(r5)	;#0xffe2, 0x0000(r5)
    82d8:	0b 3c       	jmp	$+24     	;abs 0x82f0
    82da:	f5 40 e4 ff 00 00 	mov.b	#-28,	0(r5)	;#0xffe4, 0x0000(r5)
    82e0:	07 3c       	jmp	$+16     	;abs 0x82f0
    82e2:	f5 40 e6 ff 00 00 	mov.b	#-26,	0(r5)	;#0xffe6, 0x0000(r5)
    82e8:	03 3c       	jmp	$+8      	;abs 0x82f0
    82ea:	f5 40 e8 ff 00 00 	mov.b	#-24,	0(r5)	;#0xffe8, 0x0000(r5)
    82f0:	19 44 b6 ff 	mov	-74(r4),r9	;0xffb6(r4)
    82f4:	1b 49 02 00 	mov	2(r9),	r11	;0x0002(r9)
    82f8:	0c 44       	mov	r4,	r12	
    82fa:	3c 50 7e ff 	add	#-130,	r12	;#0xff7e
    82fe:	2d 43       	mov	#2,	r13	;r3 As==10
    8300:	0e 47       	mov	r7,	r14	
    8302:	0f 4b       	mov	r11,	r15	
    8304:	b0 12 ec e6 	call	#0xe6ec	
    8308:	2f 93       	cmp	#2,	r15	;r3 As==10
    830a:	bf 20       	jnz	$+384    	;abs 0x848a
    830c:	08 47       	mov	r7,	r8	
    830e:	28 53       	incd	r8		
    8310:	46 93       	tst.b	r6		
    8312:	03 24       	jz	$+8      	;abs 0x831a
    8314:	76 90 3c 00 	cmp.b	#60,	r6	;#0x003c
    8318:	04 20       	jnz	$+10     	;abs 0x8322
    831a:	09 48       	mov	r8,	r9	
    831c:	0a 48       	mov	r8,	r10	
    831e:	06 4b       	mov	r11,	r6	
    8320:	08 3c       	jmp	$+18     	;abs 0x8332
    8322:	5d 44 7f ff 	mov.b	-129(r4),r13	;0xff7f(r4)
    8326:	5d 53       	inc.b	r13		
    8328:	4d 5d       	rla.b	r13		
    832a:	4d 5d       	rla.b	r13		
    832c:	4d 5d       	rla.b	r13		
    832e:	28 3c       	jmp	$+82     	;abs 0x8380
    8330:	09 4a       	mov	r10,	r9	
    8332:	5b 44 7f ff 	mov.b	-129(r4),r11	;0xff7f(r4)
    8336:	1b 53       	inc	r11		
    8338:	0b 5b       	rla	r11		
    833a:	0b 5b       	rla	r11		
    833c:	0b 5b       	rla	r11		
    833e:	0d 4b       	mov	r11,	r13	
    8340:	0d 57       	add	r7,	r13	
    8342:	0a 9d       	cmp	r13,	r10	
    8344:	17 34       	jge	$+48     	;abs 0x8374
    8346:	0c 44       	mov	r4,	r12	
    8348:	3c 50 7c ff 	add	#-132,	r12	;#0xff7c
    834c:	2d 43       	mov	#2,	r13	;r3 As==10
    834e:	0e 4a       	mov	r10,	r14	
    8350:	0f 46       	mov	r6,	r15	
    8352:	b0 12 ec e6 	call	#0xe6ec	
    8356:	2f 93       	cmp	#2,	r15	;r3 As==10
    8358:	16 20       	jnz	$+46     	;abs 0x8386
    835a:	5c 44 7c ff 	mov.b	-132(r4),r12	;0xff7c(r4)
    835e:	4c 93       	tst.b	r12		
    8360:	02 20       	jnz	$+6      	;abs 0x8366
    8362:	1a 53       	inc	r10		
    8364:	e6 3f       	jmp	$-50     	;abs 0x8332
    8366:	5d 44 7d ff 	mov.b	-131(r4),r13	;0xff7d(r4)
    836a:	2d 53       	incd	r13		
    836c:	0a 5d       	add	r13,	r10	
    836e:	5c 93       	cmp.b	#1,	r12	;r3 As==01
    8370:	df 23       	jnz	$-64     	;abs 0x8330
    8372:	df 3f       	jmp	$-64     	;abs 0x8332
    8374:	0d 4a       	mov	r10,	r13	
    8376:	0d 87       	sub	r7,	r13	
    8378:	0d 9b       	cmp	r11,	r13	
    837a:	87 20       	jnz	$+272    	;abs 0x848a
    837c:	4d 49       	mov.b	r9,	r13	
    837e:	4d 87       	sub.b	r7,	r13	
    8380:	4d 93       	tst.b	r13		
    8382:	02 20       	jnz	$+6      	;abs 0x8388
    8384:	82 3c       	jmp	$+262    	;abs 0x848a
    8386:	7d 43       	mov.b	#-1,	r13	;r3 As==11
    8388:	56 44 80 ff 	mov.b	-128(r4),r6	;0xff80(r4)
    838c:	46 93       	tst.b	r6		
    838e:	12 24       	jz	$+38     	;abs 0x83b4
    8390:	76 90 2b 00 	cmp.b	#43,	r6	;#0x002b
    8394:	0f 24       	jz	$+32     	;abs 0x83b4
    8396:	76 90 2c 00 	cmp.b	#44,	r6	;#0x002c
    839a:	0c 24       	jz	$+26     	;abs 0x83b4
    839c:	76 90 3c 00 	cmp.b	#60,	r6	;#0x003c
    83a0:	09 24       	jz	$+20     	;abs 0x83b4
    83a2:	76 90 87 ff 	cmp.b	#-121,	r6	;#0xff87
    83a6:	06 24       	jz	$+14     	;abs 0x83b4
    83a8:	76 90 29 00 	cmp.b	#41,	r6	;#0x0029
    83ac:	03 24       	jz	$+8      	;abs 0x83b4
    83ae:	76 90 11 00 	cmp.b	#17,	r6	;#0x0011
    83b2:	03 20       	jnz	$+8      	;abs 0x83ba
    83b4:	d5 d3 00 00 	bis.b	#1,	0(r5)	;r3 As==01, 0x0000(r5)
    83b8:	05 3c       	jmp	$+12     	;abs 0x83c4
    83ba:	b4 53 c2 ff 	add	#-1,	-62(r4)	;r3 As==11, 0xffc2(r4)
    83be:	c5 46 01 00 	mov.b	r6,	1(r5)	;0x0001(r5)
    83c2:	15 53       	inc	r5		
    83c4:	4b 4d       	mov.b	r13,	r11	
    83c6:	6b 83       	decd.b	r11		
    83c8:	c5 4b 01 00 	mov.b	r11,	1(r5)	;0x0001(r5)
    83cc:	25 53       	incd	r5		
    83ce:	4a 4d       	mov.b	r13,	r10	
    83d0:	0b 4a       	mov	r10,	r11	
    83d2:	2b 83       	decd	r11		
    83d4:	0c 45       	mov	r5,	r12	
    83d6:	0d 4b       	mov	r11,	r13	
    83d8:	0e 48       	mov	r8,	r14	
    83da:	19 44 b6 ff 	mov	-74(r4),r9	;0xffb6(r4)
    83de:	1f 49 02 00 	mov	2(r9),	r15	;0x0002(r9)
    83e2:	b0 12 ec e6 	call	#0xe6ec	
    83e6:	0f 9b       	cmp	r11,	r15	
    83e8:	50 20       	jnz	$+162    	;abs 0x848a
    83ea:	05 5f       	add	r15,	r5	
    83ec:	84 8a c2 ff 	sub	r10,	-62(r4)	;0xffc2(r4)
    83f0:	5d 44 81 ff 	mov.b	-127(r4),r13	;0xff81(r4)
    83f4:	1d 53       	inc	r13		
    83f6:	0d 5d       	rla	r13		
    83f8:	0d 5d       	rla	r13		
    83fa:	0d 5d       	rla	r13		
    83fc:	07 5d       	add	r13,	r7	
    83fe:	46 93       	tst.b	r6		
    8400:	38 27       	jz	$-398    	;abs 0x8272
    8402:	76 90 2b 00 	cmp.b	#43,	r6	;#0x002b
    8406:	35 27       	jz	$-404    	;abs 0x8272
    8408:	76 90 2c 00 	cmp.b	#44,	r6	;#0x002c
    840c:	32 27       	jz	$-410    	;abs 0x8272
    840e:	76 90 3c 00 	cmp.b	#60,	r6	;#0x003c
    8412:	2f 27       	jz	$-416    	;abs 0x8272
    8414:	76 90 87 ff 	cmp.b	#-121,	r6	;#0xff87
    8418:	02 20       	jnz	$+6      	;abs 0x841e
    841a:	30 40 72 82 	br	#0x8272	
    841e:	76 90 29 00 	cmp.b	#41,	r6	;#0x0029
    8422:	02 20       	jnz	$+6      	;abs 0x8428
    8424:	30 40 72 82 	br	#0x8272	
    8428:	08 47       	mov	r7,	r8	
    842a:	1a 44 c2 ff 	mov	-62(r4),r10	;0xffc2(r4)
    842e:	76 90 11 00 	cmp.b	#17,	r6	;#0x0011
    8432:	02 24       	jz	$+6      	;abs 0x8438
    8434:	30 40 0a 88 	br	#0x880a	
    8438:	3a 90 07 00 	cmp	#7,	r10	;#0x0007
    843c:	26 28       	jnc	$+78     	;abs 0x848a
    843e:	0c 44       	mov	r4,	r12	
    8440:	3c 50 86 ff 	add	#-122,	r12	;#0xff86
    8444:	3d 42       	mov	#8,	r13	;r2 As==11
    8446:	0e 47       	mov	r7,	r14	
    8448:	1b 44 b6 ff 	mov	-74(r4),r11	;0xffb6(r4)
    844c:	1f 4b 02 00 	mov	2(r11),	r15	;0x0002(r11)
    8450:	b0 12 ec e6 	call	#0xe6ec	
    8454:	3f 92       	cmp	#8,	r15	;r2 As==11
    8456:	19 20       	jnz	$+52     	;abs 0x848a
    8458:	f5 40 f0 ff 00 00 	mov.b	#-16,	0(r5)	;#0xfff0, 0x0000(r5)
    845e:	2d 42       	mov	#4,	r13	;r2 As==10
    8460:	0e 44       	mov	r4,	r14	
    8462:	3e 50 86 ff 	add	#-122,	r14	;#0xff86
    8466:	0f 45       	mov	r5,	r15	
    8468:	1f 53       	inc	r15		
    846a:	b0 12 a0 ef 	call	#0xefa0	
    846e:	0d 45       	mov	r5,	r13	
    8470:	3d 50 05 00 	add	#5,	r13	;#0x0005
    8474:	dd 44 8c ff 00 00 	mov.b	-116(r4),0(r13)	;0xff8c(r4), 0x0000(r13)
    847a:	dd 44 8d ff 01 00 	mov.b	-115(r4),1(r13)	;0xff8d(r4), 0x0001(r13)
    8480:	35 50 07 00 	add	#7,	r5	;#0x0007
    8484:	38 52       	add	#8,	r8	;r2 As==11
    8486:	30 40 0a 88 	br	#0x880a	
    848a:	3a 40 fe ff 	mov	#-2,	r10	;#0xfffe
    848e:	30 40 10 87 	br	#0x8710	
    8492:	94 44 b4 ff da ff 	mov	-76(r4),-38(r4)	;0xffb4(r4), 0xffda(r4)
    8498:	1d 44 b4 ff 	mov	-76(r4),r13	;0xffb4(r4)
    849c:	8d 10       	swpb	r13		
    849e:	8d 11       	sxt	r13		
    84a0:	8d 10       	swpb	r13		
    84a2:	8d 11       	sxt	r13		
    84a4:	84 4d dc ff 	mov	r13,	-36(r4)	;0xffdc(r4)
    84a8:	1d 44 cc ff 	mov	-52(r4),r13	;0xffcc(r4)
    84ac:	1e 44 ce ff 	mov	-50(r4),r14	;0xffce(r4)
    84b0:	1d 84 da ff 	sub	-38(r4),r13	;0xffda(r4)
    84b4:	1e 74 dc ff 	subc	-36(r4),r14	;0xffdc(r4)
    84b8:	1e 44 b4 ff 	mov	-76(r4),r14	;0xffb4(r4)
    84bc:	0f 4e       	mov	r14,	r15	
    84be:	2f 52       	add	#4,	r15	;r2 As==10
    84c0:	b0 12 9a f0 	call	#0xf09a	
    84c4:	94 44 b4 ff 84 ff 	mov	-76(r4),-124(r4);0xffb4(r4), 0xff84(r4)
    84ca:	e4 42 83 ff 	mov.b	#4,	-125(r4);r2 As==10, 0xff83(r4)
    84ce:	c4 43 82 ff 	mov.b	#0,	-126(r4);r3 As==00, 0xff82(r4)
    84d2:	2e 42       	mov	#4,	r14	;r2 As==10
    84d4:	0f 44       	mov	r4,	r15	
    84d6:	3f 50 82 ff 	add	#-126,	r15	;#0xff82
    84da:	b0 12 40 49 	call	#0x4940	
    84de:	19 44 b6 ff 	mov	-74(r4),r9	;0xffb6(r4)
    84e2:	1d 49 08 00 	mov	8(r9),	r13	;0x0008(r9)
    84e6:	0a 4d       	mov	r13,	r10	
    84e8:	8a 10       	swpb	r10		
    84ea:	4a 4a       	mov.b	r10,	r10	
    84ec:	4d 4d       	mov.b	r13,	r13	
    84ee:	8d 10       	swpb	r13		
    84f0:	0a dd       	bis	r13,	r10	
    84f2:	0e 4a       	mov	r10,	r14	
    84f4:	3e 50 28 00 	add	#40,	r14	;#0x0028
    84f8:	0f 44       	mov	r4,	r15	
    84fa:	3f 50 82 ff 	add	#-126,	r15	;#0xff82
    84fe:	b0 12 fa 48 	call	#0x48fa	
    8502:	1e 44 d4 ff 	mov	-44(r4),r14	;0xffd4(r4)
    8506:	0f 44       	mov	r4,	r15	
    8508:	3f 50 82 ff 	add	#-126,	r15	;#0xff82
    850c:	b0 12 c0 48 	call	#0x48c0	
    8510:	25 52       	add	#4,	r5	;r2 As==10
    8512:	84 45 de ff 	mov	r5,	-34(r4)	;0xffde(r4)
    8516:	0d 45       	mov	r5,	r13	
    8518:	8d 10       	swpb	r13		
    851a:	8d 11       	sxt	r13		
    851c:	8d 10       	swpb	r13		
    851e:	8d 11       	sxt	r13		
    8520:	84 4d e0 ff 	mov	r13,	-32(r4)	;0xffe0(r4)
    8524:	1a 44 c4 ff 	mov	-60(r4),r10	;0xffc4(r4)
    8528:	1b 44 c6 ff 	mov	-58(r4),r11	;0xffc6(r4)
    852c:	1a 84 de ff 	sub	-34(r4),r10	;0xffde(r4)
    8530:	1b 74 e0 ff 	subc	-32(r4),r11	;0xffe0(r4)
    8534:	09 4a       	mov	r10,	r9	
    8536:	39 50 7c 00 	add	#124,	r9	;#0x007c
    853a:	39 f0 f8 ff 	and	#-8,	r9	;#0xfff8
    853e:	84 49 c2 ff 	mov	r9,	-62(r4)	;0xffc2(r4)
    8542:	0c 45       	mov	r5,	r12	
    8544:	1d 44 c2 ff 	mov	-62(r4),r13	;0xffc2(r4)
    8548:	0e 48       	mov	r8,	r14	
    854a:	1b 44 b6 ff 	mov	-74(r4),r11	;0xffb6(r4)
    854e:	1f 4b 02 00 	mov	2(r11),	r15	;0x0002(r11)
    8552:	b0 12 ec e6 	call	#0xe6ec	
    8556:	1f 94 c2 ff 	cmp	-62(r4),r15	;0xffc2(r4)
    855a:	ca 20       	jnz	$+406    	;abs 0x86f0
    855c:	38 50 28 00 	add	#40,	r8	;#0x0028
    8560:	84 48 be ff 	mov	r8,	-66(r4)	;0xffbe(r4)
    8564:	94 54 c2 ff be ff 	add	-62(r4),-66(r4)	;0xffc2(r4), 0xffbe(r4)
    856a:	84 45 e2 ff 	mov	r5,	-30(r4)	;0xffe2(r4)
    856e:	08 45       	mov	r5,	r8	
    8570:	88 10       	swpb	r8		
    8572:	88 11       	sxt	r8		
    8574:	88 10       	swpb	r8		
    8576:	88 11       	sxt	r8		
    8578:	84 48 e4 ff 	mov	r8,	-28(r4)	;0xffe4(r4)
    857c:	1a 44 e2 ff 	mov	-30(r4),r10	;0xffe2(r4)
    8580:	1b 44 e4 ff 	mov	-28(r4),r11	;0xffe4(r4)
    8584:	1a 84 c4 ff 	sub	-60(r4),r10	;0xffc4(r4)
    8588:	1b 74 c6 ff 	subc	-58(r4),r11	;0xffc6(r4)
    858c:	1a 54 c2 ff 	add	-62(r4),r10	;0xffc2(r4)
    8590:	bf 3c       	jmp	$+384    	;abs 0x8710
    8592:	0e 44       	mov	r4,	r14	
    8594:	3e 50 9e ff 	add	#-98,	r14	;#0xff9e
    8598:	1f 44 b8 ff 	mov	-72(r4),r15	;0xffb8(r4)
    859c:	b0 12 4e 5d 	call	#0x5d4e	
    85a0:	05 4f       	mov	r15,	r5	
    85a2:	84 4f 84 ff 	mov	r15,	-124(r4);0xff84(r4)
    85a6:	f4 40 05 00 83 ff 	mov.b	#5,	-125(r4);#0x0005, 0xff83(r4)
    85ac:	c4 43 82 ff 	mov.b	#0,	-126(r4);r3 As==00, 0xff82(r4)
    85b0:	3e 42       	mov	#8,	r14	;r2 As==11
    85b2:	0f 44       	mov	r4,	r15	
    85b4:	3f 50 82 ff 	add	#-126,	r15	;#0xff82
    85b8:	b0 12 40 49 	call	#0x4940	
    85bc:	19 44 b6 ff 	mov	-74(r4),r9	;0xffb6(r4)
    85c0:	1d 49 08 00 	mov	8(r9),	r13	;0x0008(r9)
    85c4:	0b 4d       	mov	r13,	r11	
    85c6:	8b 10       	swpb	r11		
    85c8:	4b 4b       	mov.b	r11,	r11	
    85ca:	4d 4d       	mov.b	r13,	r13	
    85cc:	8d 10       	swpb	r13		
    85ce:	0b dd       	bis	r13,	r11	
    85d0:	0e 4b       	mov	r11,	r14	
    85d2:	3e 50 28 00 	add	#40,	r14	;#0x0028
    85d6:	0f 44       	mov	r4,	r15	
    85d8:	3f 50 82 ff 	add	#-126,	r15	;#0xff82
    85dc:	b0 12 fa 48 	call	#0x48fa	
    85e0:	4f 93       	tst.b	r15		
    85e2:	89 20       	jnz	$+276    	;abs 0x86f6
    85e4:	1e 44 d4 ff 	mov	-44(r4),r14	;0xffd4(r4)
    85e8:	0f 44       	mov	r4,	r15	
    85ea:	3f 50 82 ff 	add	#-126,	r15	;#0xff82
    85ee:	b0 12 c0 48 	call	#0x48c0	
    85f2:	4f 93       	tst.b	r15		
    85f4:	83 20       	jnz	$+264    	;abs 0x86fc
    85f6:	1b 44 84 ff 	mov	-124(r4),r11	;0xff84(r4)
    85fa:	0b 93       	tst	r11		
    85fc:	82 24       	jz	$+262    	;abs 0x8702
    85fe:	6d 4b       	mov.b	@r11,	r13	
    8600:	12 c3       	clrc			
    8602:	4d 10       	rrc.b	r13		
    8604:	12 c3       	clrc			
    8606:	4d 10       	rrc.b	r13		
    8608:	12 c3       	clrc			
    860a:	4d 10       	rrc.b	r13		
    860c:	7d 90 1c 00 	cmp.b	#28,	r13	;#0x001c
    8610:	78 20       	jnz	$+242    	;abs 0x8702
    8612:	1d 44 be ff 	mov	-66(r4),r13	;0xffbe(r4)
    8616:	12 c3       	clrc			
    8618:	0d 10       	rrc	r13		
    861a:	12 c3       	clrc			
    861c:	0d 10       	rrc	r13		
    861e:	12 c3       	clrc			
    8620:	0d 10       	rrc	r13		
    8622:	cb 4d 04 00 	mov.b	r13,	4(r11)	;0x0004(r11)
    8626:	0c 45       	mov	r5,	r12	
    8628:	3c 50 05 00 	add	#5,	r12	;#0x0005
    862c:	1b 49 08 00 	mov	8(r9),	r11	;0x0008(r9)
    8630:	0d 4b       	mov	r11,	r13	
    8632:	8d 10       	swpb	r13		
    8634:	48 4d       	mov.b	r13,	r8	
    8636:	4b 4b       	mov.b	r11,	r11	
    8638:	8b 10       	swpb	r11		
    863a:	08 db       	bis	r11,	r8	
    863c:	38 50 28 00 	add	#40,	r8	;#0x0028
    8640:	18 84 be ff 	sub	-66(r4),r8	;0xffbe(r4)
    8644:	94 44 b8 ff d0 ff 	mov	-72(r4),-48(r4)	;0xffb8(r4), 0xffd0(r4)
    864a:	1b 44 b8 ff 	mov	-72(r4),r11	;0xffb8(r4)
    864e:	8b 10       	swpb	r11		
    8650:	8b 11       	sxt	r11		
    8652:	8b 10       	swpb	r11		
    8654:	8b 11       	sxt	r11		
    8656:	84 4b d2 ff 	mov	r11,	-46(r4)	;0xffd2(r4)
    865a:	84 4c e6 ff 	mov	r12,	-26(r4)	;0xffe6(r4)
    865e:	0b 4c       	mov	r12,	r11	
    8660:	8b 10       	swpb	r11		
    8662:	8b 11       	sxt	r11		
    8664:	8b 10       	swpb	r11		
    8666:	8b 11       	sxt	r11		
    8668:	84 4b e8 ff 	mov	r11,	-24(r4)	;0xffe8(r4)
    866c:	16 44 d0 ff 	mov	-48(r4),r6	;0xffd0(r4)
    8670:	17 44 d2 ff 	mov	-46(r4),r7	;0xffd2(r4)
    8674:	16 84 e6 ff 	sub	-26(r4),r6	;0xffe6(r4)
    8678:	17 74 e8 ff 	subc	-24(r4),r7	;0xffe8(r4)
    867c:	0a 46       	mov	r6,	r10	
    867e:	0b 47       	mov	r7,	r11	
    8680:	3a 50 7c 00 	add	#124,	r10	;#0x007c
    8684:	0b 63       	adc	r11		
    8686:	0b 93       	tst	r11		
    8688:	05 38       	jl	$+12     	;abs 0x8694
    868a:	09 43       	clr	r9		
    868c:	09 9b       	cmp	r11,	r9	
    868e:	07 38       	jl	$+16     	;abs 0x869e
    8690:	0a 98       	cmp	r8,	r10	
    8692:	05 2c       	jc	$+12     	;abs 0x869e
    8694:	08 46       	mov	r6,	r8	
    8696:	38 50 7c 00 	add	#124,	r8	;#0x007c
    869a:	38 f0 f8 ff 	and	#-8,	r8	;#0xfff8
    869e:	0d 48       	mov	r8,	r13	
    86a0:	1e 44 be ff 	mov	-66(r4),r14	;0xffbe(r4)
    86a4:	3e 50 d8 ff 	add	#-40,	r14	;#0xffd8
    86a8:	1b 44 b6 ff 	mov	-74(r4),r11	;0xffb6(r4)
    86ac:	1f 4b 02 00 	mov	2(r11),	r15	;0x0002(r11)
    86b0:	b0 12 ec e6 	call	#0xe6ec	
    86b4:	0f 98       	cmp	r8,	r15	
    86b6:	28 20       	jnz	$+82     	;abs 0x8708
    86b8:	84 58 be ff 	add	r8,	-66(r4)	;0xffbe(r4)
    86bc:	08 93       	tst	r8		
    86be:	27 24       	jz	$+80     	;abs 0x870e
    86c0:	84 45 ea ff 	mov	r5,	-22(r4)	;0xffea(r4)
    86c4:	0c 45       	mov	r5,	r12	
    86c6:	8c 10       	swpb	r12		
    86c8:	8c 11       	sxt	r12		
    86ca:	8c 10       	swpb	r12		
    86cc:	8c 11       	sxt	r12		
    86ce:	84 4c ec ff 	mov	r12,	-20(r4)	;0xffec(r4)
    86d2:	1c 44 ea ff 	mov	-22(r4),r12	;0xffea(r4)
    86d6:	1d 44 ec ff 	mov	-20(r4),r13	;0xffec(r4)
    86da:	1c 84 d0 ff 	sub	-48(r4),r12	;0xffd0(r4)
    86de:	1d 74 d2 ff 	subc	-46(r4),r13	;0xffd2(r4)
    86e2:	0a 4c       	mov	r12,	r10	
    86e4:	3a 50 05 00 	add	#5,	r10	;#0x0005
    86e8:	0a 58       	add	r8,	r10	
    86ea:	12 3c       	jmp	$+38     	;abs 0x8710
    86ec:	3a 43       	mov	#-1,	r10	;r3 As==11
    86ee:	10 3c       	jmp	$+34     	;abs 0x8710
    86f0:	3a 40 fd ff 	mov	#-3,	r10	;#0xfffd
    86f4:	0d 3c       	jmp	$+28     	;abs 0x8710
    86f6:	3a 40 fb ff 	mov	#-5,	r10	;#0xfffb
    86fa:	0a 3c       	jmp	$+22     	;abs 0x8710
    86fc:	3a 40 fa ff 	mov	#-6,	r10	;#0xfffa
    8700:	07 3c       	jmp	$+16     	;abs 0x8710
    8702:	3a 40 f9 ff 	mov	#-7,	r10	;#0xfff9
    8706:	04 3c       	jmp	$+10     	;abs 0x8710
    8708:	3a 40 fc ff 	mov	#-4,	r10	;#0xfffc
    870c:	01 3c       	jmp	$+4      	;abs 0x8710
    870e:	0a 43       	clr	r10		
    8710:	4e 4a       	mov.b	r10,	r14	
    8712:	5e 53       	inc.b	r14		
    8714:	19 44 b8 ff 	mov	-72(r4),r9	;0xffb8(r4)
    8718:	c9 4e 00 00 	mov.b	r14,	0(r9)	;0x0000(r9)
    871c:	1a 93       	cmp	#1,	r10	;r3 As==01
    871e:	02 34       	jge	$+6      	;abs 0x8724
    8720:	0f 49       	mov	r9,	r15	
    8722:	30 3c       	jmp	$+98     	;abs 0x8784
    8724:	5b 42 b8 11 	mov.b	&0x11b8,r11	
    8728:	7b 90 0c 00 	cmp.b	#12,	r11	;#0x000c
    872c:	25 2c       	jc	$+76     	;abs 0x8778
    872e:	5c 42 ba 11 	mov.b	&0x11ba,r12	
    8732:	4d 4c       	mov.b	r12,	r13	
    8734:	0d 5d       	rla	r13		
    8736:	9d 44 bc ff 84 23 	mov	-68(r4),9092(r13);0xffbc(r4), 0x2384(r13)
    873c:	4d 4c       	mov.b	r12,	r13	
    873e:	5d 53       	inc.b	r13		
    8740:	c2 4d ba 11 	mov.b	r13,	&0x11ba	
    8744:	7d 90 0c 00 	cmp.b	#12,	r13	;#0x000c
    8748:	02 20       	jnz	$+6      	;abs 0x874e
    874a:	c2 43 ba 11 	mov.b	#0,	&0x11ba	;r3 As==00
    874e:	5b 53       	inc.b	r11		
    8750:	c2 4b b8 11 	mov.b	r11,	&0x11b8	
    8754:	1b 44 ba ff 	mov	-70(r4),r11	;0xffba(r4)
    8758:	db 53 02 00 	inc.b	2(r11)		;0x0002(r11)
    875c:	19 44 bc ff 	mov	-68(r4),r9	;0xffbc(r4)
    8760:	99 44 b8 ff 02 00 	mov	-72(r4),2(r9)	;0xffb8(r4), 0x0002(r9)
    8766:	89 4b 00 00 	mov	r11,	0(r9)	;0x0000(r9)
    876a:	5d 44 a8 ff 	mov.b	-88(r4),r13	;0xffa8(r4)
    876e:	7d f0 03 00 	and.b	#3,	r13	;#0x0003
    8772:	6d 93       	cmp.b	#2,	r13	;r3 As==10
    8774:	19 20       	jnz	$+52     	;abs 0x87a8
    8776:	0e 3c       	jmp	$+30     	;abs 0x8794
    8778:	1b 44 ba ff 	mov	-70(r4),r11	;0xffba(r4)
    877c:	db 43 05 00 	mov.b	#1,	5(r11)	;r3 As==01, 0x0005(r11)
    8780:	1f 44 b8 ff 	mov	-72(r4),r15	;0xffb8(r4)
    8784:	b0 12 b4 59 	call	#0x59b4	
    8788:	1f 44 bc ff 	mov	-68(r4),r15	;0xffbc(r4)
    878c:	b0 12 84 59 	call	#0x5984	
    8790:	4b 43       	clr.b	r11		
    8792:	20 3c       	jmp	$+66     	;abs 0x87d4
    8794:	b4 93 aa ff 	cmp	#-1,	-86(r4)	;r3 As==11, 0xffaa(r4)
    8798:	07 20       	jnz	$+16     	;abs 0x87a8
    879a:	19 44 b8 ff 	mov	-72(r4),r9	;0xffb8(r4)
    879e:	c9 43 89 00 	mov.b	#0,	137(r9)	;r3 As==00, 0x0089(r9)
    87a2:	c9 43 88 00 	mov.b	#0,	136(r9)	;r3 As==00, 0x0088(r9)
    87a6:	07 3c       	jmp	$+16     	;abs 0x87b6
    87a8:	1b 44 b8 ff 	mov	-72(r4),r11	;0xffb8(r4)
    87ac:	fb 40 05 00 89 00 	mov.b	#5,	137(r11);#0x0005, 0x0089(r11)
    87b2:	cb 43 88 00 	mov.b	#0,	136(r11);r3 As==00, 0x0088(r11)
    87b6:	19 44 bc ff 	mov	-68(r4),r9	;0xffbc(r4)
    87ba:	1d 49 02 00 	mov	2(r9),	r13	;0x0002(r9)
    87be:	fd 40 67 00 8b 00 	mov.b	#103,	139(r13);#0x0067, 0x008b(r13)
    87c4:	cd 43 8a 00 	mov.b	#0,	138(r13);r3 As==00, 0x008a(r13)
    87c8:	1b 44 ba ff 	mov	-70(r4),r11	;0xffba(r4)
    87cc:	db 53 06 00 	inc.b	6(r11)		;0x0006(r11)
    87d0:	30 40 22 7e 	br	#0x7e22	
    87d4:	1f 44 ba ff 	mov	-70(r4),r15	;0xffba(r4)
    87d8:	b0 12 e4 59 	call	#0x59e4	
    87dc:	7f 40 15 00 	mov.b	#21,	r15	;#0x0015
    87e0:	b0 12 14 6b 	call	#0x6b14	
    87e4:	06 3c       	jmp	$+14     	;abs 0x87f2
    87e6:	5b 43       	mov.b	#1,	r11	;r3 As==01
    87e8:	04 3c       	jmp	$+10     	;abs 0x87f2
    87ea:	6b 42       	mov.b	#4,	r11	;r2 As==10
    87ec:	02 3c       	jmp	$+6      	;abs 0x87f2
    87ee:	7b 40 07 00 	mov.b	#7,	r11	;#0x0007
    87f2:	4f 4b       	mov.b	r11,	r15	
    87f4:	31 50 76 00 	add	#118,	r1	;#0x0076
    87f8:	34 41       	pop	r4		
    87fa:	35 41       	pop	r5		
    87fc:	36 41       	pop	r6		
    87fe:	37 41       	pop	r7		
    8800:	38 41       	pop	r8		
    8802:	39 41       	pop	r9		
    8804:	3a 41       	pop	r10		
    8806:	3b 41       	pop	r11		
    8808:	30 41       	ret			
    880a:	1b 44 b6 ff 	mov	-74(r4),r11	;0xffb6(r4)
    880e:	19 4b 08 00 	mov	8(r11),	r9	;0x0008(r11)
    8812:	0a 49       	mov	r9,	r10	
    8814:	8a 10       	swpb	r10		
    8816:	4a 4a       	mov.b	r10,	r10	
    8818:	84 4a c2 ff 	mov	r10,	-62(r4)	;0xffc2(r4)
    881c:	49 49       	mov.b	r9,	r9	
    881e:	89 10       	swpb	r9		
    8820:	84 d9 c2 ff 	bis	r9,	-62(r4)	;0xffc2(r4)
    8824:	84 88 c2 ff 	sub	r8,	-62(r4)	;0xffc2(r4)
    8828:	84 45 cc ff 	mov	r5,	-52(r4)	;0xffcc(r4)
    882c:	09 45       	mov	r5,	r9	
    882e:	89 10       	swpb	r9		
    8830:	89 11       	sxt	r9		
    8832:	89 10       	swpb	r9		
    8834:	89 11       	sxt	r9		
    8836:	84 49 ce ff 	mov	r9,	-50(r4)	;0xffce(r4)
    883a:	16 44 c4 ff 	mov	-60(r4),r6	;0xffc4(r4)
    883e:	17 44 c6 ff 	mov	-58(r4),r7	;0xffc6(r4)
    8842:	16 84 cc ff 	sub	-52(r4),r6	;0xffcc(r4)
    8846:	17 74 ce ff 	subc	-50(r4),r7	;0xffce(r4)
    884a:	36 50 7c 00 	add	#124,	r6	;#0x007c
    884e:	07 63       	adc	r7		
    8850:	07 93       	tst	r7		
    8852:	02 34       	jge	$+6      	;abs 0x8858
    8854:	30 40 92 84 	br	#0x8492	
    8858:	02 24       	jz	$+6      	;abs 0x885e
    885a:	30 40 42 85 	br	#0x8542	
    885e:	16 94 c2 ff 	cmp	-62(r4),r6	;0xffc2(r4)
    8862:	02 2c       	jc	$+6      	;abs 0x8868
    8864:	30 40 92 84 	br	#0x8492	
    8868:	30 40 42 85 	br	#0x8542	
    886c:	1f 44 bc ff 	mov	-68(r4),r15	;0xffbc(r4)
    8870:	b0 12 84 59 	call	#0x5984	
    8874:	30 40 b4 7e 	br	#0x7eb4	

00008878 <IPNeighborDiscoveryP__add_sllao>:
    8878:	0b 12       	push	r11		
    887a:	31 50 f6 ff 	add	#-10,	r1	;#0xfff6
    887e:	0b 4f       	mov	r15,	r11	
    8880:	d1 43 00 00 	mov.b	#1,	0(r1)	;r3 As==01, 0x0000(r1)
    8884:	e1 43 01 00 	mov.b	#2,	1(r1)	;r3 As==10, 0x0001(r1)
    8888:	b0 12 74 7b 	call	#0x7b74	
    888c:	81 4c 02 00 	mov	r12,	2(r1)	;0x0002(r1)
    8890:	81 4d 04 00 	mov	r13,	4(r1)	;0x0004(r1)
    8894:	81 4e 06 00 	mov	r14,	6(r1)	;0x0006(r1)
    8898:	81 4f 08 00 	mov	r15,	8(r1)	;0x0008(r1)
    889c:	3d 40 0a 00 	mov	#10,	r13	;#0x000a
    88a0:	0e 41       	mov	r1,	r14	
    88a2:	0f 4b       	mov	r11,	r15	
    88a4:	b0 12 96 ed 	call	#0xed96	
    88a8:	3d 40 06 00 	mov	#6,	r13	;#0x0006
    88ac:	0e 43       	clr	r14		
    88ae:	0f 4b       	mov	r11,	r15	
    88b0:	3f 50 0a 00 	add	#10,	r15	;#0x000a
    88b4:	b0 12 94 f1 	call	#0xf194	
    88b8:	7f 40 10 00 	mov.b	#16,	r15	;#0x0010
    88bc:	31 50 0a 00 	add	#10,	r1	;#0x000a
    88c0:	3b 41       	pop	r11		
    88c2:	30 41       	ret			

000088c4 <TransformCounterC__0__Counter__get>:
    88c4:	0b 12       	push	r11		
    88c6:	0a 12       	push	r10		
    88c8:	09 12       	push	r9		
    88ca:	08 12       	push	r8		
    88cc:	07 12       	push	r7		
    88ce:	b0 12 04 6a 	call	#0x6a04	
    88d2:	47 4f       	mov.b	r15,	r7	
    88d4:	1a 42 40 1b 	mov	&0x1b40,r10	
    88d8:	1b 42 42 1b 	mov	&0x1b42,r11	
    88dc:	b0 12 9a 4a 	call	#0x4a9a	
    88e0:	0d 4f       	mov	r15,	r13	
    88e2:	1f 42 80 01 	mov	&0x0180,r15	
    88e6:	5f f3       	and.b	#1,	r15	;r3 As==01
    88e8:	05 24       	jz	$+12     	;abs 0x88f4
    88ea:	1a 53       	inc	r10		
    88ec:	0b 63       	adc	r11		
    88ee:	b0 12 9a 4a 	call	#0x4a9a	
    88f2:	0d 4f       	mov	r15,	r13	
    88f4:	12 c3       	clrc			
    88f6:	0d 10       	rrc	r13		
    88f8:	12 c3       	clrc			
    88fa:	0d 10       	rrc	r13		
    88fc:	12 c3       	clrc			
    88fe:	0d 10       	rrc	r13		
    8900:	12 c3       	clrc			
    8902:	0d 10       	rrc	r13		
    8904:	12 c3       	clrc			
    8906:	0d 10       	rrc	r13		
    8908:	08 4d       	mov	r13,	r8	
    890a:	09 43       	clr	r9		
    890c:	0e 4a       	mov	r10,	r14	
    890e:	0f 4b       	mov	r11,	r15	
    8910:	4f ea       	xor.b	r10,	r15	
    8912:	0f ea       	xor	r10,	r15	
    8914:	8f 10       	swpb	r15		
    8916:	4e 4e       	mov.b	r14,	r14	
    8918:	8e 10       	swpb	r14		
    891a:	0e 5e       	rla	r14		
    891c:	0f 6f       	rlc	r15		
    891e:	0e 5e       	rla	r14		
    8920:	0f 6f       	rlc	r15		
    8922:	0e 5e       	rla	r14		
    8924:	0f 6f       	rlc	r15		
    8926:	08 de       	bis	r14,	r8	
    8928:	09 df       	bis	r15,	r9	
    892a:	4f 47       	mov.b	r7,	r15	
    892c:	b0 12 16 6a 	call	#0x6a16	
    8930:	0e 48       	mov	r8,	r14	
    8932:	0f 49       	mov	r9,	r15	
    8934:	37 41       	pop	r7		
    8936:	38 41       	pop	r8		
    8938:	39 41       	pop	r9		
    893a:	3a 41       	pop	r10		
    893c:	3b 41       	pop	r11		
    893e:	30 41       	ret			

00008940 <TransformAlarmC__0__set_alarm>:
    8940:	0b 12       	push	r11		
    8942:	0a 12       	push	r10		
    8944:	09 12       	push	r9		
    8946:	08 12       	push	r8		
    8948:	b0 12 c4 88 	call	#0x88c4	
    894c:	08 4e       	mov	r14,	r8	
    894e:	09 4f       	mov	r15,	r9	
    8950:	1e 42 8e 15 	mov	&0x158e,r14	
    8954:	1f 42 90 15 	mov	&0x1590,r15	
    8958:	0a 4e       	mov	r14,	r10	
    895a:	0b 4f       	mov	r15,	r11	
    895c:	1a 52 34 15 	add	&0x1534,r10	
    8960:	1b 62 36 15 	addc	&0x1536,r11	
    8964:	09 9f       	cmp	r15,	r9	
    8966:	09 28       	jnc	$+20     	;abs 0x897a
    8968:	02 20       	jnz	$+6      	;abs 0x896e
    896a:	08 9e       	cmp	r14,	r8	
    896c:	06 28       	jnc	$+14     	;abs 0x897a
    896e:	0b 9f       	cmp	r15,	r11	
    8970:	10 28       	jnc	$+34     	;abs 0x8992
    8972:	09 20       	jnz	$+20     	;abs 0x8986
    8974:	0a 9e       	cmp	r14,	r10	
    8976:	0d 28       	jnc	$+28     	;abs 0x8992
    8978:	06 3c       	jmp	$+14     	;abs 0x8986
    897a:	0b 9f       	cmp	r15,	r11	
    897c:	04 28       	jnc	$+10     	;abs 0x8986
    897e:	0f 9b       	cmp	r11,	r15	
    8980:	27 28       	jnc	$+80     	;abs 0x89d0
    8982:	0a 9e       	cmp	r14,	r10	
    8984:	25 2c       	jc	$+76     	;abs 0x89d0
    8986:	09 9b       	cmp	r11,	r9	
    8988:	04 28       	jnc	$+10     	;abs 0x8992
    898a:	0b 99       	cmp	r9,	r11	
    898c:	21 28       	jnc	$+68     	;abs 0x89d0
    898e:	08 9a       	cmp	r10,	r8	
    8990:	1f 2c       	jc	$+64     	;abs 0x89d0
    8992:	0c 4a       	mov	r10,	r12	
    8994:	0d 4b       	mov	r11,	r13	
    8996:	0c 88       	sub	r8,	r12	
    8998:	0d 79       	subc	r9,	r13	
    899a:	0d 93       	tst	r13		
    899c:	03 20       	jnz	$+8      	;abs 0x89a4
    899e:	3c 90 01 04 	cmp	#1025,	r12	;#0x0401
    89a2:	18 28       	jnc	$+50     	;abs 0x89d4
    89a4:	0e 48       	mov	r8,	r14	
    89a6:	0f 49       	mov	r9,	r15	
    89a8:	3e 50 00 04 	add	#1024,	r14	;#0x0400
    89ac:	0f 63       	adc	r15		
    89ae:	82 4e 8e 15 	mov	r14,	&0x158e	
    89b2:	82 4f 90 15 	mov	r15,	&0x1590	
    89b6:	0e 4c       	mov	r12,	r14	
    89b8:	0f 4d       	mov	r13,	r15	
    89ba:	3e 50 00 fc 	add	#-1024,	r14	;#0xfc00
    89be:	3f 63       	addc	#-1,	r15	;r3 As==11
    89c0:	82 4e 34 15 	mov	r14,	&0x1534	
    89c4:	82 4f 36 15 	mov	r15,	&0x1536	
    89c8:	3c 40 00 04 	mov	#1024,	r12	;#0x0400
    89cc:	0d 43       	clr	r13		
    89ce:	0a 3c       	jmp	$+22     	;abs 0x89e4
    89d0:	0c 43       	clr	r12		
    89d2:	0d 43       	clr	r13		
    89d4:	82 4a 8e 15 	mov	r10,	&0x158e	
    89d8:	82 4b 90 15 	mov	r11,	&0x1590	
    89dc:	82 43 34 15 	mov	#0,	&0x1534	;r3 As==00
    89e0:	82 43 36 15 	mov	#0,	&0x1536	;r3 As==00
    89e4:	0a 4c       	mov	r12,	r10	
    89e6:	0a 5a       	rla	r10		
    89e8:	0a 5a       	rla	r10		
    89ea:	0a 5a       	rla	r10		
    89ec:	0a 5a       	rla	r10		
    89ee:	0a 5a       	rla	r10		
    89f0:	b0 12 9a 4a 	call	#0x4a9a	
    89f4:	08 58       	rla	r8		
    89f6:	08 58       	rla	r8		
    89f8:	08 58       	rla	r8		
    89fa:	08 58       	rla	r8		
    89fc:	08 58       	rla	r8		
    89fe:	0e 4f       	mov	r15,	r14	
    8a00:	0e 88       	sub	r8,	r14	
    8a02:	0e 9a       	cmp	r10,	r14	
    8a04:	04 2c       	jc	$+10     	;abs 0x8a0e
    8a06:	0a 8e       	sub	r14,	r10	
    8a08:	3a 90 03 00 	cmp	#3,	r10	;#0x0003
    8a0c:	06 2c       	jc	$+14     	;abs 0x8a1a
    8a0e:	b0 12 9a 4a 	call	#0x4a9a	
    8a12:	2f 53       	incd	r15		
    8a14:	82 4f 92 01 	mov	r15,	&0x0192	
    8a18:	03 3c       	jmp	$+8      	;abs 0x8a20
    8a1a:	0a 5f       	add	r15,	r10	
    8a1c:	82 4a 92 01 	mov	r10,	&0x0192	
    8a20:	b2 f0 fe ff 82 01 	and	#-2,	&0x0182	;#0xfffe
    8a26:	b2 d0 10 00 82 01 	bis	#16,	&0x0182	;#0x0010
    8a2c:	38 41       	pop	r8		
    8a2e:	39 41       	pop	r9		
    8a30:	3a 41       	pop	r10		
    8a32:	3b 41       	pop	r11		
    8a34:	30 41       	ret			

00008a36 <VirtualizeAlarmC__0__setNextAlarm.part.273>:
    8a36:	0b 12       	push	r11		
    8a38:	0a 12       	push	r10		
    8a3a:	09 12       	push	r9		
    8a3c:	08 12       	push	r8		
    8a3e:	07 12       	push	r7		
    8a40:	06 12       	push	r6		
    8a42:	05 12       	push	r5		
    8a44:	04 12       	push	r4		
    8a46:	31 50 fa ff 	add	#-6,	r1	;#0xfffa
    8a4a:	b0 12 c4 88 	call	#0x88c4	
    8a4e:	04 4e       	mov	r14,	r4	
    8a50:	05 4f       	mov	r15,	r5	
    8a52:	3e 40 98 1c 	mov	#7320,	r14	;#0x1c98
    8a56:	c1 43 04 00 	mov.b	#0,	4(r1)	;r3 As==00, 0x0004(r1)
    8a5a:	36 43       	mov	#-1,	r6	;r3 As==11
    8a5c:	37 43       	mov	#-1,	r7	;r3 As==11
    8a5e:	3f 40 94 1c 	mov	#7316,	r15	;#0x1c94
    8a62:	0d 4f       	mov	r15,	r13	
    8a64:	3d 50 10 00 	add	#16,	r13	;#0x0010
    8a68:	81 44 00 00 	mov	r4,	0(r1)	;0x0000(r1)
    8a6c:	81 45 02 00 	mov	r5,	2(r1)	;0x0002(r1)
    8a70:	05 4f       	mov	r15,	r5	
    8a72:	04 4d       	mov	r13,	r4	
    8a74:	c4 93 00 00 	tst.b	0(r4)		;0x0000(r4)
    8a78:	36 24       	jz	$+110    	;abs 0x8ae6
    8a7a:	28 45       	mov	@r5,	r8	
    8a7c:	19 45 02 00 	mov	2(r5),	r9	;0x0002(r5)
    8a80:	2a 41       	mov	@r1,	r10	
    8a82:	1b 41 02 00 	mov	2(r1),	r11	;0x0002(r1)
    8a86:	0a 88       	sub	r8,	r10	
    8a88:	0b 79       	subc	r9,	r11	
    8a8a:	2c 4e       	mov	@r14,	r12	
    8a8c:	1d 4e 02 00 	mov	2(r14),	r13	;0x0002(r14)
    8a90:	0b 9d       	cmp	r13,	r11	
    8a92:	10 28       	jnc	$+34     	;abs 0x8ab4
    8a94:	02 20       	jnz	$+6      	;abs 0x8a9a
    8a96:	0a 9c       	cmp	r12,	r10	
    8a98:	0d 28       	jnc	$+28     	;abs 0x8ab4
    8a9a:	0a 4c       	mov	r12,	r10	
    8a9c:	0b 4d       	mov	r13,	r11	
    8a9e:	0a 58       	add	r8,	r10	
    8aa0:	0b 69       	addc	r9,	r11	
    8aa2:	85 4a 00 00 	mov	r10,	0(r5)	;0x0000(r5)
    8aa6:	85 4b 02 00 	mov	r11,	2(r5)	;0x0002(r5)
    8aaa:	8e 43 00 00 	mov	#0,	0(r14)	;r3 As==00, 0x0000(r14)
    8aae:	8e 43 02 00 	mov	#0,	2(r14)	;r3 As==00, 0x0002(r14)
    8ab2:	0d 3c       	jmp	$+28     	;abs 0x8ace
    8ab4:	a5 41 00 00 	mov	@r1,	0(r5)	;0x0000(r5)
    8ab8:	95 41 02 00 02 00 	mov	2(r1),	2(r5)	;0x0002(r1), 0x0002(r5)
    8abe:	08 4c       	mov	r12,	r8	
    8ac0:	09 4d       	mov	r13,	r9	
    8ac2:	08 8a       	sub	r10,	r8	
    8ac4:	09 7b       	subc	r11,	r9	
    8ac6:	8e 48 00 00 	mov	r8,	0(r14)	;0x0000(r14)
    8aca:	8e 49 02 00 	mov	r9,	2(r14)	;0x0002(r14)
    8ace:	2d 4e       	mov	@r14,	r13	
    8ad0:	1f 4e 02 00 	mov	2(r14),	r15	;0x0002(r14)
    8ad4:	07 9f       	cmp	r15,	r7	
    8ad6:	07 28       	jnc	$+16     	;abs 0x8ae6
    8ad8:	02 20       	jnz	$+6      	;abs 0x8ade
    8ada:	06 9d       	cmp	r13,	r6	
    8adc:	04 28       	jnc	$+10     	;abs 0x8ae6
    8ade:	06 4d       	mov	r13,	r6	
    8ae0:	07 4f       	mov	r15,	r7	
    8ae2:	d1 43 04 00 	mov.b	#1,	4(r1)	;r3 As==01, 0x0004(r1)
    8ae6:	35 52       	add	#8,	r5	;r2 As==11
    8ae8:	14 53       	inc	r4		
    8aea:	3e 52       	add	#8,	r14	;r2 As==11
    8aec:	35 90 a4 1c 	cmp	#7332,	r5	;#0x1ca4
    8af0:	c1 23       	jnz	$-124    	;abs 0x8a74
    8af2:	24 41       	mov	@r1,	r4	
    8af4:	15 41 02 00 	mov	2(r1),	r5	;0x0002(r1)
    8af8:	c1 93 04 00 	tst.b	4(r1)		;0x0004(r1)
    8afc:	10 24       	jz	$+34     	;abs 0x8b1e
    8afe:	07 93       	tst	r7		
    8b00:	03 34       	jge	$+8      	;abs 0x8b08
    8b02:	12 c3       	clrc			
    8b04:	07 10       	rrc	r7		
    8b06:	06 10       	rrc	r6		
    8b08:	82 44 8e 15 	mov	r4,	&0x158e	
    8b0c:	82 45 90 15 	mov	r5,	&0x1590	
    8b10:	82 46 34 15 	mov	r6,	&0x1534	
    8b14:	82 47 36 15 	mov	r7,	&0x1536	
    8b18:	b0 12 40 89 	call	#0x8940	
    8b1c:	03 3c       	jmp	$+8      	;abs 0x8b24
    8b1e:	b2 f0 ef ff 82 01 	and	#-17,	&0x0182	;#0xffef
    8b24:	31 50 06 00 	add	#6,	r1	;#0x0006
    8b28:	34 41       	pop	r4		
    8b2a:	35 41       	pop	r5		
    8b2c:	36 41       	pop	r6		
    8b2e:	37 41       	pop	r7		
    8b30:	38 41       	pop	r8		
    8b32:	39 41       	pop	r9		
    8b34:	3a 41       	pop	r10		
    8b36:	3b 41       	pop	r11		
    8b38:	30 41       	ret			

00008b3a <VirtualizeTimerC__0__Timer__startOneShot>:
    8b3a:	0b 12       	push	r11		
    8b3c:	09 12       	push	r9		
    8b3e:	08 12       	push	r8		
    8b40:	4b 4f       	mov.b	r15,	r11	
    8b42:	08 4d       	mov	r13,	r8	
    8b44:	09 4e       	mov	r14,	r9	
    8b46:	b0 12 c4 88 	call	#0x88c4	
    8b4a:	4b 4b       	mov.b	r11,	r11	
    8b4c:	0b 5b       	rla	r11		
    8b4e:	0c 4b       	mov	r11,	r12	
    8b50:	0c 5c       	rla	r12		
    8b52:	0c 5c       	rla	r12		
    8b54:	0c 5b       	add	r11,	r12	
    8b56:	3c 50 7c 1b 	add	#7036,	r12	;#0x1b7c
    8b5a:	8c 4e 00 00 	mov	r14,	0(r12)	;0x0000(r12)
    8b5e:	8c 4f 02 00 	mov	r15,	2(r12)	;0x0002(r12)
    8b62:	8c 48 04 00 	mov	r8,	4(r12)	;0x0004(r12)
    8b66:	8c 49 06 00 	mov	r9,	6(r12)	;0x0006(r12)
    8b6a:	fc d0 03 00 08 00 	bis.b	#3,	8(r12)	;#0x0003, 0x0008(r12)
    8b70:	7f 40 14 00 	mov.b	#20,	r15	;#0x0014
    8b74:	b0 12 14 6b 	call	#0x6b14	
    8b78:	38 41       	pop	r8		
    8b7a:	39 41       	pop	r9		
    8b7c:	3b 41       	pop	r11		
    8b7e:	30 41       	ret			

00008b80 <RPLRoutingEngineP__0__chooseAdvertiseTime.part.274>:
    8b80:	0b 12       	push	r11		
    8b82:	0a 12       	push	r10		
    8b84:	f2 f0 fd ff ac 1b 	and.b	#-3,	&0x1bac	;#0xfffd
    8b8a:	92 42 6c 12 64 24 	mov	&0x126c,&0x2464	
    8b90:	92 42 6e 12 66 24 	mov	&0x126e,&0x2466	
    8b96:	12 c3       	clrc			
    8b98:	12 10 66 24 	rrc	&0x2466	
    8b9c:	12 10 64 24 	rrc	&0x2464	
    8ba0:	b0 12 12 70 	call	#0x7012	
    8ba4:	1a 42 64 24 	mov	&0x2464,r10	
    8ba8:	1b 42 66 24 	mov	&0x2466,r11	
    8bac:	0c 4a       	mov	r10,	r12	
    8bae:	0d 4b       	mov	r11,	r13	
    8bb0:	b0 12 76 ef 	call	#0xef76	
    8bb4:	0d 4e       	mov	r14,	r13	
    8bb6:	0e 4f       	mov	r15,	r14	
    8bb8:	0d 5a       	add	r10,	r13	
    8bba:	0e 6b       	addc	r11,	r14	
    8bbc:	82 4d 64 24 	mov	r13,	&0x2464	
    8bc0:	82 4e 66 24 	mov	r14,	&0x2466	
    8bc4:	6f 42       	mov.b	#4,	r15	;r2 As==10
    8bc6:	b0 12 3a 8b 	call	#0x8b3a	
    8bca:	3a 41       	pop	r10		
    8bcc:	3b 41       	pop	r11		
    8bce:	30 41       	ret			

00008bd0 <RPLRoutingEngineP__0__RPLRouteInfo__resetTrickle>:
    8bd0:	f2 f0 fd ff ac 1b 	and.b	#-3,	&0x1bac	;#0xfffd
    8bd6:	2f 43       	mov	#2,	r15	;r3 As==10
    8bd8:	5e 42 1f 11 	mov.b	&0x111f,r14	
    8bdc:	7e 53       	add.b	#-1,	r14	;r3 As==11
    8bde:	7e f0 0f 00 	and.b	#15,	r14	;#0x000f
    8be2:	4e 93       	tst.b	r14		
    8be4:	03 24       	jz	$+8      	;abs 0x8bec
    8be6:	0f 5f       	rla	r15		
    8be8:	7e 53       	add.b	#-1,	r14	;r3 As==11
    8bea:	fb 3f       	jmp	$-8      	;abs 0x8be2
    8bec:	82 4f 6c 12 	mov	r15,	&0x126c	
    8bf0:	8f 10       	swpb	r15		
    8bf2:	8f 11       	sxt	r15		
    8bf4:	8f 10       	swpb	r15		
    8bf6:	8f 11       	sxt	r15		
    8bf8:	82 4f 6e 12 	mov	r15,	&0x126e	
    8bfc:	c2 43 21 11 	mov.b	#0,	&0x1121	;r3 As==00
    8c00:	c2 43 9a 11 	mov.b	#0,	&0x119a	;r3 As==00
    8c04:	c2 93 a2 11 	tst.b	&0x11a2	
    8c08:	02 24       	jz	$+6      	;abs 0x8c0e
    8c0a:	b0 12 80 8b 	call	#0x8b80	
    8c0e:	30 41       	ret			

00008c10 <RPLRoutingEngineP__0__inconsistencyDetected>:
    8c10:	92 53 96 11 	inc	&0x1196	
    8c14:	c2 43 b2 11 	mov.b	#0,	&0x11b2	;r3 As==00
    8c18:	b2 43 0a 11 	mov	#-1,	&0x110a	;r3 As==11
    8c1c:	b2 43 08 11 	mov	#-1,	&0x1108	;r3 As==11
    8c20:	b2 43 30 11 	mov	#-1,	&0x1130	;r3 As==11
    8c24:	b0 12 52 4c 	call	#0x4c52	
    8c28:	b0 12 d0 8b 	call	#0x8bd0	
    8c2c:	30 41       	ret			

00008c2e <RPLOF0P__RPLOF__recomputeRoutes>:
    8c2e:	0b 12       	push	r11		
    8c30:	0a 12       	push	r10		
    8c32:	09 12       	push	r9		
    8c34:	08 12       	push	r8		
    8c36:	07 12       	push	r7		
    8c38:	06 12       	push	r6		
    8c3a:	05 12       	push	r5		
    8c3c:	3f 40 e8 12 	mov	#4840,	r15	;#0x12e8
    8c40:	0d 43       	clr	r13		
    8c42:	0d 3c       	jmp	$+28     	;abs 0x8c5e
    8c44:	02 12       	push	r2		
    8c46:	32 c2       	dint			
    8c48:	03 43       	nop			
    8c4a:	82 4d 32 01 	mov	r13,	&0x0132	
    8c4e:	b2 40 18 00 38 01 	mov	#24,	&0x0138	;#0x0018
    8c54:	1f 42 3a 01 	mov	&0x013a,r15	
    8c58:	32 41       	pop	r2		
    8c5a:	3f 50 e8 12 	add	#4840,	r15	;#0x12e8
    8c5e:	4e 4d       	mov.b	r13,	r14	
    8c60:	cf 93 16 00 	tst.b	22(r15)	;0x0016(r15)
    8c64:	0a 20       	jnz	$+22     	;abs 0x8c7a
    8c66:	3d 90 14 00 	cmp	#20,	r13	;#0x0014
    8c6a:	05 24       	jz	$+12     	;abs 0x8c76
    8c6c:	1d 53       	inc	r13		
    8c6e:	bf 93 10 00 	cmp	#-1,	16(r15)	;r3 As==11, 0x0010(r15)
    8c72:	e8 23       	jnz	$-46     	;abs 0x8c44
    8c74:	02 3c       	jmp	$+6      	;abs 0x8c7a
    8c76:	7e 40 14 00 	mov.b	#20,	r14	;#0x0014
    8c7a:	19 4f 14 00 	mov	20(r15),r9	;0x0014(r15)
    8c7e:	1f 4f 10 00 	mov	16(r15),r15	;0x0010(r15)
    8c82:	7e 90 14 00 	cmp.b	#20,	r14	;#0x0014
    8c86:	07 20       	jnz	$+16     	;abs 0x8c96
    8c88:	b2 43 0a 11 	mov	#-1,	&0x110a	;r3 As==11
    8c8c:	b2 43 08 11 	mov	#-1,	&0x1108	;r3 As==11
    8c90:	b0 12 10 8c 	call	#0x8c10	
    8c94:	7d 3c       	jmp	$+252    	;abs 0x8d90
    8c96:	1a 42 06 11 	mov	&0x1106,r10	
    8c9a:	4d 4a       	mov.b	r10,	r13	
    8c9c:	02 12       	push	r2		
    8c9e:	32 c2       	dint			
    8ca0:	03 43       	nop			
    8ca2:	82 4d 32 01 	mov	r13,	&0x0132	
    8ca6:	b2 40 18 00 38 01 	mov	#24,	&0x0138	;#0x0018
    8cac:	1c 42 3a 01 	mov	&0x013a,r12	
    8cb0:	32 41       	pop	r2		
    8cb2:	3c 50 e8 12 	add	#4840,	r12	;#0x12e8
    8cb6:	1b 4c 0e 00 	mov	14(r12),r11	;0x000e(r12)
    8cba:	4d 4b       	mov.b	r11,	r13	
    8cbc:	8d 10       	swpb	r13		
    8cbe:	8b 10       	swpb	r11		
    8cc0:	4b 4b       	mov.b	r11,	r11	
    8cc2:	0d db       	bis	r11,	r13	
    8cc4:	0d 93       	tst	r13		
    8cc6:	0b 24       	jz	$+24     	;abs 0x8cde
    8cc8:	1b 4c 10 00 	mov	16(r12),r11	;0x0010(r12)
    8ccc:	0b 5b       	rla	r11		
    8cce:	0d 4b       	mov	r11,	r13	
    8cd0:	0d 5d       	rla	r13		
    8cd2:	0d 5d       	rla	r13		
    8cd4:	0d 5b       	add	r11,	r13	
    8cd6:	1d 5c 14 00 	add	20(r12),r13	;0x0014(r12)
    8cda:	82 4d 08 11 	mov	r13,	&0x1108	
    8cde:	0f 5f       	rla	r15		
    8ce0:	0d 4f       	mov	r15,	r13	
    8ce2:	0d 5d       	rla	r13		
    8ce4:	0d 5d       	rla	r13		
    8ce6:	0f 5d       	add	r13,	r15	
    8ce8:	0f 59       	add	r9,	r15	
    8cea:	4d 4e       	mov.b	r14,	r13	
    8cec:	0d 9a       	cmp	r10,	r13	
    8cee:	02 20       	jnz	$+6      	;abs 0x8cf4
    8cf0:	82 4f 08 11 	mov	r15,	&0x1108	
    8cf4:	49 4e       	mov.b	r14,	r9	
    8cf6:	59 53       	inc.b	r9		
    8cf8:	15 42 0a 11 	mov	&0x110a,r5	
    8cfc:	16 42 06 11 	mov	&0x1106,r6	
    8d00:	1c 42 08 11 	mov	&0x1108,r12	
    8d04:	2e 3c       	jmp	$+94     	;abs 0x8d62
    8d06:	47 49       	mov.b	r9,	r7	
    8d08:	02 12       	push	r2		
    8d0a:	32 c2       	dint			
    8d0c:	03 43       	nop			
    8d0e:	82 47 32 01 	mov	r7,	&0x0132	
    8d12:	b2 40 18 00 38 01 	mov	#24,	&0x0138	;#0x0018
    8d18:	1b 42 3a 01 	mov	&0x013a,r11	
    8d1c:	32 41       	pop	r2		
    8d1e:	3b 50 e8 12 	add	#4840,	r11	;#0x12e8
    8d22:	cb 93 16 00 	tst.b	22(r11)	;0x0016(r11)
    8d26:	15 24       	jz	$+44     	;abs 0x8d52
    8d28:	18 4b 10 00 	mov	16(r11),r8	;0x0010(r11)
    8d2c:	0a 48       	mov	r8,	r10	
    8d2e:	0a 5a       	rla	r10		
    8d30:	0d 4a       	mov	r10,	r13	
    8d32:	0d 5d       	rla	r13		
    8d34:	0d 5d       	rla	r13		
    8d36:	0d 5a       	add	r10,	r13	
    8d38:	1d 5b 14 00 	add	20(r11),r13	;0x0014(r11)
    8d3c:	0d 9f       	cmp	r15,	r13	
    8d3e:	09 2c       	jc	$+20     	;abs 0x8d52
    8d40:	08 95       	cmp	r5,	r8	
    8d42:	07 2c       	jc	$+16     	;abs 0x8d52
    8d44:	38 93       	cmp	#-1,	r8	;r3 As==11
    8d46:	05 24       	jz	$+12     	;abs 0x8d52
    8d48:	07 96       	cmp	r6,	r7	
    8d4a:	08 20       	jnz	$+18     	;abs 0x8d5c
    8d4c:	0c 4d       	mov	r13,	r12	
    8d4e:	0f 4d       	mov	r13,	r15	
    8d50:	06 3c       	jmp	$+14     	;abs 0x8d5e
    8d52:	4d 4e       	mov.b	r14,	r13	
    8d54:	0d 96       	cmp	r6,	r13	
    8d56:	04 20       	jnz	$+10     	;abs 0x8d60
    8d58:	0c 4f       	mov	r15,	r12	
    8d5a:	02 3c       	jmp	$+6      	;abs 0x8d60
    8d5c:	0f 4d       	mov	r13,	r15	
    8d5e:	4e 49       	mov.b	r9,	r14	
    8d60:	59 53       	inc.b	r9		
    8d62:	79 90 14 00 	cmp.b	#20,	r9	;#0x0014
    8d66:	cf 2b       	jnc	$-96     	;abs 0x8d06
    8d68:	82 4c 08 11 	mov	r12,	&0x1108	
    8d6c:	4d 4e       	mov.b	r14,	r13	
    8d6e:	02 12       	push	r2		
    8d70:	32 c2       	dint			
    8d72:	03 43       	nop			
    8d74:	82 4d 32 01 	mov	r13,	&0x0132	
    8d78:	b2 40 18 00 38 01 	mov	#24,	&0x0138	;#0x0018
    8d7e:	1d 42 3a 01 	mov	&0x013a,r13	
    8d82:	32 41       	pop	r2		
    8d84:	bd 93 f8 12 	cmp	#-1,	4856(r13);r3 As==11, 0x12f8(r13)
    8d88:	0b 20       	jnz	$+24     	;abs 0x8da0
    8d8a:	b2 40 14 00 06 11 	mov	#20,	&0x1106	;#0x0014
    8d90:	1f 42 00 11 	mov	&0x1100,r15	
    8d94:	b0 12 48 54 	call	#0x5448	
    8d98:	b2 43 00 11 	mov	#-1,	&0x1100	;r3 As==11
    8d9c:	4f 43       	clr.b	r15		
    8d9e:	4e 3c       	jmp	$+158    	;abs 0x8e3c
    8da0:	19 42 06 11 	mov	&0x1106,r9	
    8da4:	0b 4f       	mov	r15,	r11	
    8da6:	0b 5b       	rla	r11		
    8da8:	0d 4b       	mov	r11,	r13	
    8daa:	0d 5d       	rla	r13		
    8dac:	0d 5d       	rla	r13		
    8dae:	0a 4b       	mov	r11,	r10	
    8db0:	0a 5d       	add	r13,	r10	
    8db2:	3a 50 05 00 	add	#5,	r10	;#0x0005
    8db6:	0b 4c       	mov	r12,	r11	
    8db8:	0b 5b       	rla	r11		
    8dba:	0d 4b       	mov	r11,	r13	
    8dbc:	0d 5d       	rla	r13		
    8dbe:	0d 5d       	rla	r13		
    8dc0:	0d 5b       	add	r11,	r13	
    8dc2:	0a 9d       	cmp	r13,	r10	
    8dc4:	13 28       	jnc	$+40     	;abs 0x8dec
    8dc6:	0c 93       	tst	r12		
    8dc8:	11 24       	jz	$+36     	;abs 0x8dec
    8dca:	4d 49       	mov.b	r9,	r13	
    8dcc:	02 12       	push	r2		
    8dce:	32 c2       	dint			
    8dd0:	03 43       	nop			
    8dd2:	82 4d 32 01 	mov	r13,	&0x0132	
    8dd6:	b2 40 18 00 38 01 	mov	#24,	&0x0138	;#0x0018
    8ddc:	1d 42 3a 01 	mov	&0x013a,r13	
    8de0:	32 41       	pop	r2		
    8de2:	cd 93 fe 12 	tst.b	4862(r13)	;0x12fe(r13)
    8de6:	02 24       	jz	$+6      	;abs 0x8dec
    8de8:	0f 4c       	mov	r12,	r15	
    8dea:	4e 49       	mov.b	r9,	r14	
    8dec:	82 4f 08 11 	mov	r15,	&0x1108	
    8df0:	4e 4e       	mov.b	r14,	r14	
    8df2:	82 4e 06 11 	mov	r14,	&0x1106	
    8df6:	02 12       	push	r2		
    8df8:	32 c2       	dint			
    8dfa:	03 43       	nop			
    8dfc:	82 4e 32 01 	mov	r14,	&0x0132	
    8e00:	b2 40 18 00 38 01 	mov	#24,	&0x0138	;#0x0018
    8e06:	1b 42 3a 01 	mov	&0x013a,r11	
    8e0a:	32 41       	pop	r2		
    8e0c:	3b 50 e8 12 	add	#4840,	r11	;#0x12e8
    8e10:	5c 43       	mov.b	#1,	r12	;r3 As==01
    8e12:	0d 4b       	mov	r11,	r13	
    8e14:	0e 43       	clr	r14		
    8e16:	0f 43       	clr	r15		
    8e18:	b0 12 58 6c 	call	#0x6c58	
    8e1c:	82 4f 00 11 	mov	r15,	&0x1100	
    8e20:	92 9b 0e 00 2c 15 	cmp	14(r11),&0x152c	;0x000e(r11)
    8e26:	06 24       	jz	$+14     	;abs 0x8e34
    8e28:	d2 43 84 11 	mov.b	#1,	&0x1184	;r3 As==01
    8e2c:	7f 40 22 00 	mov.b	#34,	r15	;#0x0022
    8e30:	b0 12 14 6b 	call	#0x6b14	
    8e34:	92 4b 0e 00 2c 15 	mov	14(r11),&0x152c	;0x000e(r11)
    8e3a:	5f 43       	mov.b	#1,	r15	;r3 As==01
    8e3c:	35 41       	pop	r5		
    8e3e:	36 41       	pop	r6		
    8e40:	37 41       	pop	r7		
    8e42:	38 41       	pop	r8		
    8e44:	39 41       	pop	r9		
    8e46:	3a 41       	pop	r10		
    8e48:	3b 41       	pop	r11		
    8e4a:	30 41       	ret			

00008e4c <RPLRankP__getNewRank>:
    8e4c:	0b 12       	push	r11		
    8e4e:	1d 42 30 11 	mov	&0x1130,r13	
    8e52:	1f 42 06 11 	mov	&0x1106,r15	
    8e56:	3f 90 14 00 	cmp	#20,	r15	;#0x0014
    8e5a:	03 20       	jnz	$+8      	;abs 0x8e62
    8e5c:	b2 43 0a 11 	mov	#-1,	&0x110a	;r3 As==11
    8e60:	23 3c       	jmp	$+72     	;abs 0x8ea8
    8e62:	4f 4f       	mov.b	r15,	r15	
    8e64:	02 12       	push	r2		
    8e66:	32 c2       	dint			
    8e68:	03 43       	nop			
    8e6a:	82 4f 32 01 	mov	r15,	&0x0132	
    8e6e:	b2 40 18 00 38 01 	mov	#24,	&0x0138	;#0x0018
    8e74:	1f 42 3a 01 	mov	&0x013a,r15	
    8e78:	32 41       	pop	r2		
    8e7a:	3f 50 e8 12 	add	#4840,	r15	;#0x12e8
    8e7e:	92 4f 14 00 04 11 	mov	20(r15),&0x1104	;0x0014(r15)
    8e84:	1e 42 02 11 	mov	&0x1102,r14	
    8e88:	1f 4f 10 00 	mov	16(r15),r15	;0x0010(r15)
    8e8c:	0f 5e       	add	r14,	r15	
    8e8e:	82 4f 0a 11 	mov	r15,	&0x110a	
    8e92:	0f 9e       	cmp	r14,	r15	
    8e94:	02 2c       	jc	$+6      	;abs 0x8e9a
    8e96:	b2 43 0a 11 	mov	#-1,	&0x110a	;r3 As==11
    8e9a:	c2 93 84 11 	tst.b	&0x1184	
    8e9e:	04 24       	jz	$+10     	;abs 0x8ea8
    8ea0:	c2 43 84 11 	mov.b	#0,	&0x1184	;r3 As==00
    8ea4:	5f 43       	mov.b	#1,	r15	;r3 As==01
    8ea6:	01 3c       	jmp	$+4      	;abs 0x8eaa
    8ea8:	4f 43       	clr.b	r15		
    8eaa:	1b 42 0a 11 	mov	&0x110a,r11	
    8eae:	82 4b 30 11 	mov	r11,	&0x1130	
    8eb2:	4f 93       	tst.b	r15		
    8eb4:	04 20       	jnz	$+10     	;abs 0x8ebe
    8eb6:	1e 42 2e 11 	mov	&0x112e,r14	
    8eba:	0b 9e       	cmp	r14,	r11	
    8ebc:	03 2c       	jc	$+8      	;abs 0x8ec4
    8ebe:	82 4b 2e 11 	mov	r11,	&0x112e	
    8ec2:	41 3c       	jmp	$+132    	;abs 0x8f46
    8ec4:	0d 9b       	cmp	r11,	r13	
    8ec6:	0f 2c       	jc	$+32     	;abs 0x8ee6
    8ec8:	1f 42 2c 11 	mov	&0x112c,r15	
    8ecc:	0d 4b       	mov	r11,	r13	
    8ece:	0d 8e       	sub	r14,	r13	
    8ed0:	0f 9d       	cmp	r13,	r15	
    8ed2:	09 2c       	jc	$+20     	;abs 0x8ee6
    8ed4:	0f 93       	tst	r15		
    8ed6:	07 24       	jz	$+16     	;abs 0x8ee6
    8ed8:	b2 43 30 11 	mov	#-1,	&0x1130	;r3 As==11
    8edc:	b2 43 2e 11 	mov	#-1,	&0x112e	;r3 As==11
    8ee0:	b0 12 10 8c 	call	#0x8c10	
    8ee4:	30 3c       	jmp	$+98     	;abs 0x8f46
    8ee6:	5f 42 06 11 	mov.b	&0x1106,r15	
    8eea:	02 12       	push	r2		
    8eec:	32 c2       	dint			
    8eee:	03 43       	nop			
    8ef0:	82 4f 32 01 	mov	r15,	&0x0132	
    8ef4:	b2 40 18 00 38 01 	mov	#24,	&0x0138	;#0x0018
    8efa:	1f 42 3a 01 	mov	&0x013a,r15	
    8efe:	32 41       	pop	r2		
    8f00:	3f 50 e8 12 	add	#4840,	r15	;#0x12e8
    8f04:	b0 12 50 69 	call	#0x6950	
    8f08:	5d 42 b2 11 	mov.b	&0x11b2,r13	
    8f0c:	3e 40 fe 12 	mov	#4862,	r14	;#0x12fe
    8f10:	4c 43       	clr.b	r12		
    8f12:	ce 93 00 00 	tst.b	0(r14)		;0x0000(r14)
    8f16:	0f 24       	jz	$+32     	;abs 0x8f36
    8f18:	8e 9b fa ff 	cmp	r11,	-6(r14)	;0xfffa(r14)
    8f1c:	0c 28       	jnc	$+26     	;abs 0x8f36
    8f1e:	ce 43 00 00 	mov.b	#0,	0(r14)	;r3 As==00, 0x0000(r14)
    8f22:	7d 53       	add.b	#-1,	r13	;r3 As==11
    8f24:	4c 9f       	cmp.b	r15,	r12	
    8f26:	07 20       	jnz	$+16     	;abs 0x8f36
    8f28:	c2 4d b2 11 	mov.b	r13,	&0x11b2	
    8f2c:	7f 40 1c 00 	mov.b	#28,	r15	;#0x001c
    8f30:	b0 12 14 6b 	call	#0x6b14	
    8f34:	08 3c       	jmp	$+18     	;abs 0x8f46
    8f36:	5c 53       	inc.b	r12		
    8f38:	3e 50 18 00 	add	#24,	r14	;#0x0018
    8f3c:	7c 90 14 00 	cmp.b	#20,	r12	;#0x0014
    8f40:	e8 23       	jnz	$-46     	;abs 0x8f12
    8f42:	c2 4d b2 11 	mov.b	r13,	&0x11b2	
    8f46:	3b 41       	pop	r11		
    8f48:	30 41       	ret			

00008f4a <RPLRankP__evictParent>:
    8f4a:	4f 4f       	mov.b	r15,	r15	
    8f4c:	02 12       	push	r2		
    8f4e:	32 c2       	dint			
    8f50:	03 43       	nop			
    8f52:	82 4f 32 01 	mov	r15,	&0x0132	
    8f56:	b2 40 18 00 38 01 	mov	#24,	&0x0138	;#0x0018
    8f5c:	1f 42 3a 01 	mov	&0x013a,r15	
    8f60:	32 41       	pop	r2		
    8f62:	cf 43 fe 12 	mov.b	#0,	4862(r15);r3 As==00, 0x12fe(r15)
    8f66:	5f 42 b2 11 	mov.b	&0x11b2,r15	
    8f6a:	7f 53       	add.b	#-1,	r15	;r3 As==11
    8f6c:	c2 4f b2 11 	mov.b	r15,	&0x11b2	
    8f70:	02 20       	jnz	$+6      	;abs 0x8f76
    8f72:	b0 12 d0 8b 	call	#0x8bd0	
    8f76:	30 41       	ret			

00008f78 <IPForwardingEngineP__IPForward__sendDone.constprop.357>:
    8f78:	0b 12       	push	r11		
    8f7a:	0a 12       	push	r10		
    8f7c:	09 12       	push	r9		
    8f7e:	08 12       	push	r8		
    8f80:	07 12       	push	r7		
    8f82:	06 12       	push	r6		
    8f84:	05 12       	push	r5		
    8f86:	04 12       	push	r4		
    8f88:	31 50 f0 ff 	add	#-16,	r1	;#0xfff0
    8f8c:	0b 4f       	mov	r15,	r11	
    8f8e:	29 4f       	mov	@r15,	r9	
    8f90:	3d 40 10 00 	mov	#16,	r13	;#0x0010
    8f94:	0e 43       	clr	r14		
    8f96:	0f 41       	mov	r1,	r15	
    8f98:	b0 12 94 f1 	call	#0xf194	
    8f9c:	b1 40 fe 80 00 00 	mov	#-32514,0(r1)	;#0x80fe, 0x0000(r1)
    8fa2:	09 93       	tst	r9		
    8fa4:	87 24       	jz	$+272    	;abs 0x90b4
    8fa6:	3d 42       	mov	#8,	r13	;r2 As==11
    8fa8:	0e 49       	mov	r9,	r14	
    8faa:	0f 41       	mov	r1,	r15	
    8fac:	3f 52       	add	#8,	r15	;r2 As==11
    8fae:	b0 12 a0 ef 	call	#0xefa0	
    8fb2:	54 4b 03 00 	mov.b	3(r11),	r4	;0x0003(r11)
    8fb6:	55 4b 04 00 	mov.b	4(r11),	r5	;0x0004(r11)
    8fba:	5f 42 06 11 	mov.b	&0x1106,r15	
    8fbe:	02 12       	push	r2		
    8fc0:	32 c2       	dint			
    8fc2:	03 43       	nop			
    8fc4:	82 4f 32 01 	mov	r15,	&0x0132	
    8fc8:	b2 40 18 00 38 01 	mov	#24,	&0x0138	;#0x0018
    8fce:	1f 42 3a 01 	mov	&0x013a,r15	
    8fd2:	32 41       	pop	r2		
    8fd4:	3f 50 e8 12 	add	#4840,	r15	;#0x12e8
    8fd8:	b0 12 50 69 	call	#0x6950	
    8fdc:	47 4f       	mov.b	r15,	r7	
    8fde:	92 92 7c 11 30 11 	cmp	&0x117c,&0x1130	
    8fe4:	60 24       	jz	$+194    	;abs 0x90a6
    8fe6:	3a 40 fe 12 	mov	#4862,	r10	;#0x12fe
    8fea:	0b 43       	clr	r11		
    8fec:	46 4b       	mov.b	r11,	r6	
    8fee:	ca 93 00 00 	tst.b	0(r10)		;0x0000(r10)
    8ff2:	15 24       	jz	$+44     	;abs 0x901e
    8ff4:	02 12       	push	r2		
    8ff6:	32 c2       	dint			
    8ff8:	03 43       	nop			
    8ffa:	82 4b 32 01 	mov	r11,	&0x0132	
    8ffe:	b2 40 18 00 38 01 	mov	#24,	&0x0138	;#0x0018
    9004:	18 42 3a 01 	mov	&0x013a,r8	
    9008:	32 41       	pop	r2		
    900a:	3d 40 10 00 	mov	#16,	r13	;#0x0010
    900e:	0e 41       	mov	r1,	r14	
    9010:	0f 48       	mov	r8,	r15	
    9012:	3f 50 e8 12 	add	#4840,	r15	;#0x12e8
    9016:	b0 12 80 ef 	call	#0xef80	
    901a:	0f 93       	tst	r15		
    901c:	07 24       	jz	$+16     	;abs 0x902c
    901e:	1b 53       	inc	r11		
    9020:	3a 50 18 00 	add	#24,	r10	;#0x0018
    9024:	3b 90 14 00 	cmp	#20,	r11	;#0x0014
    9028:	e1 23       	jnz	$-60     	;abs 0x8fec
    902a:	3d 3c       	jmp	$+124    	;abs 0x90a6
    902c:	4c 44       	mov.b	r4,	r12	
    902e:	0c 5c       	rla	r12		
    9030:	0d 4c       	mov	r12,	r13	
    9032:	0d 5d       	rla	r13		
    9034:	0d 5d       	rla	r13		
    9036:	4e 45       	mov.b	r5,	r14	
    9038:	0f 4c       	mov	r12,	r15	
    903a:	0f 5d       	add	r13,	r15	
    903c:	b0 12 06 ef 	call	#0xef06	
    9040:	02 12       	push	r2		
    9042:	32 c2       	dint			
    9044:	03 43       	nop			
    9046:	82 4b 32 01 	mov	r11,	&0x0132	
    904a:	b2 40 18 00 38 01 	mov	#24,	&0x0138	;#0x0018
    9050:	1d 42 3a 01 	mov	&0x013a,r13	
    9054:	32 41       	pop	r2		
    9056:	3d 50 e8 12 	add	#4840,	r13	;#0x12e8
    905a:	1d 4d 14 00 	mov	20(r13),r13	;0x0014(r13)
    905e:	0d 5d       	rla	r13		
    9060:	0d 5d       	rla	r13		
    9062:	0f 5d       	add	r13,	r15	
    9064:	0f 5f       	rla	r15		
    9066:	3e 40 0a 00 	mov	#10,	r14	;#0x000a
    906a:	b0 12 e4 ee 	call	#0xeee4	
    906e:	02 12       	push	r2		
    9070:	32 c2       	dint			
    9072:	03 43       	nop			
    9074:	82 4b 32 01 	mov	r11,	&0x0132	
    9078:	b2 40 18 00 38 01 	mov	#24,	&0x0138	;#0x0018
    907e:	1e 42 3a 01 	mov	&0x013a,r14	
    9082:	32 41       	pop	r2		
    9084:	8e 4f fc 12 	mov	r15,	4860(r14);0x12fc(r14)
    9088:	3f 90 1f 00 	cmp	#31,	r15	;#0x001f
    908c:	0a 28       	jnc	$+22     	;abs 0x90a2
    908e:	4f 4b       	mov.b	r11,	r15	
    9090:	b0 12 4a 8f 	call	#0x8f4a	
    9094:	46 97       	cmp.b	r7,	r6	
    9096:	05 20       	jnz	$+12     	;abs 0x90a2
    9098:	c2 93 b2 11 	tst.b	&0x11b2	
    909c:	02 24       	jz	$+6      	;abs 0x90a2
    909e:	b0 12 2e 8c 	call	#0x8c2e	
    90a2:	b0 12 4c 8e 	call	#0x8e4c	
    90a6:	f2 90 03 00 ad 12 	cmp.b	#3,	&0x12ad	;#0x0003
    90ac:	03 2c       	jc	$+8      	;abs 0x90b4
    90ae:	0f 49       	mov	r9,	r15	
    90b0:	b0 12 58 5a 	call	#0x5a58	
    90b4:	31 50 10 00 	add	#16,	r1	;#0x0010
    90b8:	34 41       	pop	r4		
    90ba:	35 41       	pop	r5		
    90bc:	36 41       	pop	r6		
    90be:	37 41       	pop	r7		
    90c0:	38 41       	pop	r8		
    90c2:	39 41       	pop	r9		
    90c4:	3a 41       	pop	r10		
    90c6:	3b 41       	pop	r11		
    90c8:	30 41       	ret			

000090ca <VirtualizeTimerC__0__Timer__startPeriodic>:
    90ca:	0b 12       	push	r11		
    90cc:	09 12       	push	r9		
    90ce:	08 12       	push	r8		
    90d0:	4b 4f       	mov.b	r15,	r11	
    90d2:	08 4d       	mov	r13,	r8	
    90d4:	09 4e       	mov	r14,	r9	
    90d6:	b0 12 c4 88 	call	#0x88c4	
    90da:	4b 4b       	mov.b	r11,	r11	
    90dc:	0b 5b       	rla	r11		
    90de:	0c 4b       	mov	r11,	r12	
    90e0:	0c 5c       	rla	r12		
    90e2:	0c 5c       	rla	r12		
    90e4:	0c 5b       	add	r11,	r12	
    90e6:	3c 50 7c 1b 	add	#7036,	r12	;#0x1b7c
    90ea:	8c 4e 00 00 	mov	r14,	0(r12)	;0x0000(r12)
    90ee:	8c 4f 02 00 	mov	r15,	2(r12)	;0x0002(r12)
    90f2:	8c 48 04 00 	mov	r8,	4(r12)	;0x0004(r12)
    90f6:	8c 49 06 00 	mov	r9,	6(r12)	;0x0006(r12)
    90fa:	5f 4c 08 00 	mov.b	8(r12),	r15	;0x0008(r12)
    90fe:	7f f0 fe ff 	and.b	#-2,	r15	;#0xfffe
    9102:	6f d3       	bis.b	#2,	r15	;r3 As==10
    9104:	cc 4f 08 00 	mov.b	r15,	8(r12)	;0x0008(r12)
    9108:	7f 40 14 00 	mov.b	#20,	r15	;#0x0014
    910c:	b0 12 14 6b 	call	#0x6b14	
    9110:	38 41       	pop	r8		
    9112:	39 41       	pop	r9		
    9114:	3b 41       	pop	r11		
    9116:	30 41       	ret			

00009118 <RPLDAORoutingEngineP__0__RPLDAORouteInfo__startDAO>:
    9118:	0b 12       	push	r11		
    911a:	0a 12       	push	r10		
    911c:	09 12       	push	r9		
    911e:	1d 42 0c 11 	mov	&0x110c,r13	
    9122:	1e 42 0e 11 	mov	&0x110e,r14	
    9126:	7f 40 09 00 	mov.b	#9,	r15	;#0x0009
    912a:	b0 12 ca 90 	call	#0x90ca	
    912e:	1a 42 10 11 	mov	&0x1110,r10	
    9132:	1b 42 12 11 	mov	&0x1112,r11	
    9136:	b0 12 12 70 	call	#0x7012	
    913a:	0f 4e       	mov	r14,	r15	
    913c:	3e 40 64 00 	mov	#100,	r14	;#0x0064
    9140:	b0 12 fe ee 	call	#0xeefe	
    9144:	0c 4f       	mov	r15,	r12	
    9146:	0d 43       	clr	r13		
    9148:	0e 4d       	mov	r13,	r14	
    914a:	0d 4c       	mov	r12,	r13	
    914c:	0d 5a       	add	r10,	r13	
    914e:	0e 6b       	addc	r11,	r14	
    9150:	7f 40 07 00 	mov.b	#7,	r15	;#0x0007
    9154:	b0 12 3a 8b 	call	#0x8b3a	
    9158:	e2 b3 d4 1b 	bit.b	#2,	&0x1bd4	;r3 As==10
    915c:	0f 43       	clr	r15		
    915e:	0f 6f       	rlc	r15		
    9160:	4f 93       	tst.b	r15		
    9162:	20 20       	jnz	$+66     	;abs 0x91a4
    9164:	b0 12 f2 69 	call	#0x69f2	
    9168:	1f 92 7c 11 	cmp	&0x117c,r15	
    916c:	1b 24       	jz	$+56     	;abs 0x91a4
    916e:	b0 12 12 70 	call	#0x7012	
    9172:	09 4e       	mov	r14,	r9	
    9174:	1a 42 14 11 	mov	&0x1114,r10	
    9178:	1b 42 16 11 	mov	&0x1116,r11	
    917c:	3c 40 0a 00 	mov	#10,	r12	;#0x000a
    9180:	0d 43       	clr	r13		
    9182:	0e 4a       	mov	r10,	r14	
    9184:	0f 4b       	mov	r11,	r15	
    9186:	b0 12 40 ef 	call	#0xef40	
    918a:	0c 4e       	mov	r14,	r12	
    918c:	0d 4f       	mov	r15,	r13	
    918e:	0e 49       	mov	r9,	r14	
    9190:	0f 43       	clr	r15		
    9192:	b0 12 76 ef 	call	#0xef76	
    9196:	0d 4e       	mov	r14,	r13	
    9198:	0e 4f       	mov	r15,	r14	
    919a:	0d 5a       	add	r10,	r13	
    919c:	0e 6b       	addc	r11,	r14	
    919e:	7f 42       	mov.b	#8,	r15	;r2 As==11
    91a0:	b0 12 3a 8b 	call	#0x8b3a	
    91a4:	4f 43       	clr.b	r15		
    91a6:	39 41       	pop	r9		
    91a8:	3a 41       	pop	r10		
    91aa:	3b 41       	pop	r11		
    91ac:	30 41       	ret			

000091ae <IPStackControlP__RoutingControl__start>:
    91ae:	c2 93 a2 11 	tst.b	&0x11a2	
    91b2:	1b 20       	jnz	$+56     	;abs 0x91ea
    91b4:	7f 40 1f 00 	mov.b	#31,	r15	;#0x001f
    91b8:	b0 12 14 6b 	call	#0x6b14	
    91bc:	82 43 56 1c 	mov	#0,	&0x1c56	;r3 As==00
    91c0:	3d 40 10 00 	mov	#16,	r13	;#0x0010
    91c4:	3e 40 48 1c 	mov	#7240,	r14	;#0x1c48
    91c8:	3f 40 72 23 	mov	#9074,	r15	;#0x2372
    91cc:	b0 12 96 ed 	call	#0xed96	
    91d0:	3f 40 fe 12 	mov	#4862,	r15	;#0x12fe
    91d4:	cf 43 00 00 	mov.b	#0,	0(r15)	;r3 As==00, 0x0000(r15)
    91d8:	3f 50 18 00 	add	#24,	r15	;#0x0018
    91dc:	3f 90 de 14 	cmp	#5342,	r15	;#0x14de
    91e0:	f9 23       	jnz	$-12     	;abs 0x91d4
    91e2:	d2 43 aa 11 	mov.b	#1,	&0x11aa	;r3 As==01
    91e6:	d2 43 a2 11 	mov.b	#1,	&0x11a2	;r3 As==01
    91ea:	b0 12 18 91 	call	#0x9118	
    91ee:	d2 43 8c 11 	mov.b	#1,	&0x118c	;r3 As==01
    91f2:	4f 43       	clr.b	r15		
    91f4:	30 41       	ret			

000091f6 <TransformAlarmC__2__set_alarm>:
    91f6:	0b 12       	push	r11		
    91f8:	0a 12       	push	r10		
    91fa:	09 12       	push	r9		
    91fc:	08 12       	push	r8		
    91fe:	b0 12 c4 88 	call	#0x88c4	
    9202:	08 4e       	mov	r14,	r8	
    9204:	09 4f       	mov	r15,	r9	
    9206:	1e 42 b4 1c 	mov	&0x1cb4,r14	
    920a:	1f 42 b6 1c 	mov	&0x1cb6,r15	
    920e:	0a 4e       	mov	r14,	r10	
    9210:	0b 4f       	mov	r15,	r11	
    9212:	1a 52 e4 12 	add	&0x12e4,r10	
    9216:	1b 62 e6 12 	addc	&0x12e6,r11	
    921a:	09 9f       	cmp	r15,	r9	
    921c:	09 28       	jnc	$+20     	;abs 0x9230
    921e:	02 20       	jnz	$+6      	;abs 0x9224
    9220:	08 9e       	cmp	r14,	r8	
    9222:	06 28       	jnc	$+14     	;abs 0x9230
    9224:	0b 9f       	cmp	r15,	r11	
    9226:	10 28       	jnc	$+34     	;abs 0x9248
    9228:	09 20       	jnz	$+20     	;abs 0x923c
    922a:	0a 9e       	cmp	r14,	r10	
    922c:	0d 28       	jnc	$+28     	;abs 0x9248
    922e:	06 3c       	jmp	$+14     	;abs 0x923c
    9230:	0b 9f       	cmp	r15,	r11	
    9232:	04 28       	jnc	$+10     	;abs 0x923c
    9234:	0f 9b       	cmp	r11,	r15	
    9236:	27 28       	jnc	$+80     	;abs 0x9286
    9238:	0a 9e       	cmp	r14,	r10	
    923a:	25 2c       	jc	$+76     	;abs 0x9286
    923c:	09 9b       	cmp	r11,	r9	
    923e:	04 28       	jnc	$+10     	;abs 0x9248
    9240:	0b 99       	cmp	r9,	r11	
    9242:	21 28       	jnc	$+68     	;abs 0x9286
    9244:	08 9a       	cmp	r10,	r8	
    9246:	1f 2c       	jc	$+64     	;abs 0x9286
    9248:	0c 4a       	mov	r10,	r12	
    924a:	0d 4b       	mov	r11,	r13	
    924c:	0c 88       	sub	r8,	r12	
    924e:	0d 79       	subc	r9,	r13	
    9250:	0d 93       	tst	r13		
    9252:	03 20       	jnz	$+8      	;abs 0x925a
    9254:	3c 90 01 04 	cmp	#1025,	r12	;#0x0401
    9258:	18 28       	jnc	$+50     	;abs 0x928a
    925a:	0e 48       	mov	r8,	r14	
    925c:	0f 49       	mov	r9,	r15	
    925e:	3e 50 00 04 	add	#1024,	r14	;#0x0400
    9262:	0f 63       	adc	r15		
    9264:	82 4e b4 1c 	mov	r14,	&0x1cb4	
    9268:	82 4f b6 1c 	mov	r15,	&0x1cb6	
    926c:	0e 4c       	mov	r12,	r14	
    926e:	0f 4d       	mov	r13,	r15	
    9270:	3e 50 00 fc 	add	#-1024,	r14	;#0xfc00
    9274:	3f 63       	addc	#-1,	r15	;r3 As==11
    9276:	82 4e e4 12 	mov	r14,	&0x12e4	
    927a:	82 4f e6 12 	mov	r15,	&0x12e6	
    927e:	3c 40 00 04 	mov	#1024,	r12	;#0x0400
    9282:	0d 43       	clr	r13		
    9284:	0a 3c       	jmp	$+22     	;abs 0x929a
    9286:	0c 43       	clr	r12		
    9288:	0d 43       	clr	r13		
    928a:	82 4a b4 1c 	mov	r10,	&0x1cb4	
    928e:	82 4b b6 1c 	mov	r11,	&0x1cb6	
    9292:	82 43 e4 12 	mov	#0,	&0x12e4	;r3 As==00
    9296:	82 43 e6 12 	mov	#0,	&0x12e6	;r3 As==00
    929a:	0a 4c       	mov	r12,	r10	
    929c:	0a 5a       	rla	r10		
    929e:	0a 5a       	rla	r10		
    92a0:	0a 5a       	rla	r10		
    92a2:	0a 5a       	rla	r10		
    92a4:	0a 5a       	rla	r10		
    92a6:	b0 12 9a 4a 	call	#0x4a9a	
    92aa:	08 58       	rla	r8		
    92ac:	08 58       	rla	r8		
    92ae:	08 58       	rla	r8		
    92b0:	08 58       	rla	r8		
    92b2:	08 58       	rla	r8		
    92b4:	0e 4f       	mov	r15,	r14	
    92b6:	0e 88       	sub	r8,	r14	
    92b8:	0e 9a       	cmp	r10,	r14	
    92ba:	04 2c       	jc	$+10     	;abs 0x92c4
    92bc:	0a 8e       	sub	r14,	r10	
    92be:	3a 90 03 00 	cmp	#3,	r10	;#0x0003
    92c2:	06 2c       	jc	$+14     	;abs 0x92d0
    92c4:	b0 12 9a 4a 	call	#0x4a9a	
    92c8:	2f 53       	incd	r15		
    92ca:	82 4f 9a 01 	mov	r15,	&0x019a	
    92ce:	03 3c       	jmp	$+8      	;abs 0x92d6
    92d0:	0a 5f       	add	r15,	r10	
    92d2:	82 4a 9a 01 	mov	r10,	&0x019a	
    92d6:	b2 f0 fe ff 8a 01 	and	#-2,	&0x018a	;#0xfffe
    92dc:	b2 d0 10 00 8a 01 	bis	#16,	&0x018a	;#0x0010
    92e2:	38 41       	pop	r8		
    92e4:	39 41       	pop	r9		
    92e6:	3a 41       	pop	r10		
    92e8:	3b 41       	pop	r11		
    92ea:	30 41       	ret			

000092ec <VirtualizeAlarmC__0__Alarm__start>:
    92ec:	0b 12       	push	r11		
    92ee:	0a 12       	push	r10		
    92f0:	09 12       	push	r9		
    92f2:	08 12       	push	r8		
    92f4:	07 12       	push	r7		
    92f6:	06 12       	push	r6		
    92f8:	46 4f       	mov.b	r15,	r6	
    92fa:	0a 4d       	mov	r13,	r10	
    92fc:	0b 4e       	mov	r14,	r11	
    92fe:	b0 12 c4 88 	call	#0x88c4	
    9302:	08 4e       	mov	r14,	r8	
    9304:	09 4f       	mov	r15,	r9	
    9306:	b0 12 04 6a 	call	#0x6a04	
    930a:	47 4f       	mov.b	r15,	r7	
    930c:	4e 46       	mov.b	r6,	r14	
    930e:	0c 4e       	mov	r14,	r12	
    9310:	0c 5c       	rla	r12		
    9312:	0c 5c       	rla	r12		
    9314:	0c 5c       	rla	r12		
    9316:	3c 50 94 1c 	add	#7316,	r12	;#0x1c94
    931a:	8c 48 00 00 	mov	r8,	0(r12)	;0x0000(r12)
    931e:	8c 49 02 00 	mov	r9,	2(r12)	;0x0002(r12)
    9322:	8c 4a 04 00 	mov	r10,	4(r12)	;0x0004(r12)
    9326:	8c 4b 06 00 	mov	r11,	6(r12)	;0x0006(r12)
    932a:	de 43 a4 1c 	mov.b	#1,	7332(r14);r3 As==01, 0x1ca4(r14)
    932e:	c2 93 a6 1c 	tst.b	&0x1ca6	
    9332:	02 20       	jnz	$+6      	;abs 0x9338
    9334:	b0 12 36 8a 	call	#0x8a36	
    9338:	4f 47       	mov.b	r7,	r15	
    933a:	b0 12 16 6a 	call	#0x6a16	
    933e:	36 41       	pop	r6		
    9340:	37 41       	pop	r7		
    9342:	38 41       	pop	r8		
    9344:	39 41       	pop	r9		
    9346:	3a 41       	pop	r10		
    9348:	3b 41       	pop	r11		
    934a:	30 41       	ret			

0000934c <LcpAutomatonP__1__restartTimer_>:
    934c:	1d 42 4c 11 	mov	&0x114c,r13	
    9350:	1e 42 4e 11 	mov	&0x114e,r14	
    9354:	5f 43       	mov.b	#1,	r15	;r3 As==01
    9356:	b0 12 ec 92 	call	#0x92ec	
    935a:	30 41       	ret			

0000935c <LcpAutomatonP__0__restartTimer_>:
    935c:	1d 42 5a 11 	mov	&0x115a,r13	
    9360:	1e 42 5c 11 	mov	&0x115c,r14	
    9364:	4f 43       	clr.b	r15		
    9366:	b0 12 ec 92 	call	#0x92ec	
    936a:	30 41       	ret			

0000936c <PppP__releaseTxFrame_>:
    936c:	0b 12       	push	r11		
    936e:	0a 12       	push	r10		
    9370:	09 12       	push	r9		
    9372:	0b 4f       	mov	r15,	r11	
    9374:	49 4e       	mov.b	r14,	r9	
    9376:	4d 93       	tst.b	r13		
    9378:	24 24       	jz	$+74     	;abs 0x93c2
    937a:	2a 4f       	mov	@r15,	r10	
    937c:	82 9a 6a 12 	cmp	r10,	&0x126a	
    9380:	04 20       	jnz	$+10     	;abs 0x938a
    9382:	82 43 6a 12 	mov	#0,	&0x126a	;r3 As==00
    9386:	b0 12 4c 93 	call	#0x934c	
    938a:	82 9a d0 14 	cmp	r10,	&0x14d0	
    938e:	07 20       	jnz	$+16     	;abs 0x939e
    9390:	c2 49 c8 14 	mov.b	r9,	&0x14c8	
    9394:	82 43 d0 14 	mov	#0,	&0x14d0	;r3 As==00
    9398:	7f 42       	mov.b	#8,	r15	;r2 As==11
    939a:	b0 12 14 6b 	call	#0x6b14	
    939e:	82 9a 00 18 	cmp	r10,	&0x1800	
    93a2:	04 20       	jnz	$+10     	;abs 0x93ac
    93a4:	82 43 00 18 	mov	#0,	&0x1800	;r3 As==00
    93a8:	b0 12 5c 93 	call	#0x935c	
    93ac:	82 9a e0 1b 	cmp	r10,	&0x1be0	
    93b0:	08 20       	jnz	$+18     	;abs 0x93c2
    93b2:	c2 49 65 12 	mov.b	r9,	&0x1265	
    93b6:	82 43 e0 1b 	mov	#0,	&0x1be0	;r3 As==00
    93ba:	7f 40 06 00 	mov.b	#6,	r15	;#0x0006
    93be:	b0 12 14 6b 	call	#0x6b14	
    93c2:	2e 4b       	mov	@r11,	r14	
    93c4:	0f 43       	clr	r15		
    93c6:	b0 12 82 75 	call	#0x7582	
    93ca:	cb 43 04 00 	mov.b	#0,	4(r11)	;r3 As==00, 0x0004(r11)
    93ce:	8b 43 02 00 	mov	#0,	2(r11)	;r3 As==00, 0x0002(r11)
    93d2:	8b 43 00 00 	mov	#0,	0(r11)	;r3 As==00, 0x0000(r11)
    93d6:	39 41       	pop	r9		
    93d8:	3a 41       	pop	r10		
    93da:	3b 41       	pop	r11		
    93dc:	30 41       	ret			

000093de <PppP__Ppp__fixOutputFrameLength>:
    93de:	0b 12       	push	r11		
    93e0:	0a 12       	push	r10		
    93e2:	09 12       	push	r9		
    93e4:	09 4e       	mov	r14,	r9	
    93e6:	b0 12 3a 4c 	call	#0x4c3a	
    93ea:	0b 4f       	mov	r15,	r11	
    93ec:	0f 93       	tst	r15		
    93ee:	18 24       	jz	$+50     	;abs 0x9420
    93f0:	0d 49       	mov	r9,	r13	
    93f2:	2e 4f       	mov	@r15,	r14	
    93f4:	0f 43       	clr	r15		
    93f6:	b0 12 a6 76 	call	#0x76a6	
    93fa:	4a 4f       	mov.b	r15,	r10	
    93fc:	4f 93       	tst.b	r15		
    93fe:	0a 20       	jnz	$+22     	;abs 0x9414
    9400:	8b 49 02 00 	mov	r9,	2(r11)	;0x0002(r11)
    9404:	5f 4b 04 00 	mov.b	4(r11),	r15	;0x0004(r11)
    9408:	7f f0 f0 ff 	and.b	#-16,	r15	;#0xfff0
    940c:	6f d3       	bis.b	#2,	r15	;r3 As==10
    940e:	cb 4f 04 00 	mov.b	r15,	4(r11)	;0x0004(r11)
    9412:	08 3c       	jmp	$+18     	;abs 0x9424
    9414:	4d 43       	clr.b	r13		
    9416:	4e 4f       	mov.b	r15,	r14	
    9418:	0f 4b       	mov	r11,	r15	
    941a:	b0 12 6c 93 	call	#0x936c	
    941e:	02 3c       	jmp	$+6      	;abs 0x9424
    9420:	7a 40 06 00 	mov.b	#6,	r10	;#0x0006
    9424:	4f 4a       	mov.b	r10,	r15	
    9426:	39 41       	pop	r9		
    9428:	3a 41       	pop	r10		
    942a:	3b 41       	pop	r11		
    942c:	30 41       	ret			

0000942e <PppProtocolCodeCoordinatorP__0__PppProtocolCodeCoordinator__rejectPacket.constprop.358>:
    942e:	0b 12       	push	r11		
    9430:	0a 12       	push	r10		
    9432:	09 12       	push	r9		
    9434:	08 12       	push	r8		
    9436:	21 82       	sub	#4,	r1	;r2 As==10
    9438:	0b 4f       	mov	r15,	r11	
    943a:	0a 4e       	mov	r14,	r10	
    943c:	08 4d       	mov	r13,	r8	
    943e:	81 43 02 00 	mov	#0,	2(r1)	;r3 As==00, 0x0002(r1)
    9442:	0c 41       	mov	r1,	r12	
    9444:	5d 43       	mov.b	#1,	r13	;r3 As==01
    9446:	0e 41       	mov	r1,	r14	
    9448:	2e 53       	incd	r14		
    944a:	3f 40 21 c0 	mov	#-16351,r15	;#0xc021
    944e:	b0 12 c6 74 	call	#0x74c6	
    9452:	0f 93       	tst	r15		
    9454:	4a 24       	jz	$+150    	;abs 0x94ea
    9456:	09 4f       	mov	r15,	r9	
    9458:	29 53       	incd	r9		
    945a:	0b 93       	tst	r11		
    945c:	13 24       	jz	$+40     	;abs 0x9484
    945e:	ff 42 00 00 	mov.b	#8,	0(r15)	;r2 As==11, 0x0000(r15)
    9462:	5e 42 50 12 	mov.b	&0x1250,r14	
    9466:	cf 4e 01 00 	mov.b	r14,	1(r15)	;0x0001(r15)
    946a:	5e 53       	inc.b	r14		
    946c:	c2 4e 50 12 	mov.b	r14,	&0x1250	
    9470:	0e 4b       	mov	r11,	r14	
    9472:	8e 10       	swpb	r14		
    9474:	cf 4e 04 00 	mov.b	r14,	4(r15)	;0x0004(r15)
    9478:	cf 4b 05 00 	mov.b	r11,	5(r15)	;0x0005(r15)
    947c:	0e 4f       	mov	r15,	r14	
    947e:	3e 50 06 00 	add	#6,	r14	;#0x0006
    9482:	10 3c       	jmp	$+34     	;abs 0x94a4
    9484:	ff 40 07 00 00 00 	mov.b	#7,	0(r15)	;#0x0007, 0x0000(r15)
    948a:	5e 42 55 12 	mov.b	&0x1255,r14	
    948e:	cf 4e 01 00 	mov.b	r14,	1(r15)	;0x0001(r15)
    9492:	5e 53       	inc.b	r14		
    9494:	c2 4e 55 12 	mov.b	r14,	&0x1255	
    9498:	0e 4f       	mov	r15,	r14	
    949a:	2e 52       	add	#4,	r14	;r2 As==10
    949c:	03 3c       	jmp	$+8      	;abs 0x94a4
    949e:	fe 4a 00 00 	mov.b	@r10+,	0(r14)	;0x0000(r14)
    94a2:	1e 53       	inc	r14		
    94a4:	1e 91 02 00 	cmp	2(r1),	r14	;0x0002(r1)
    94a8:	02 2c       	jc	$+6      	;abs 0x94ae
    94aa:	0a 98       	cmp	r8,	r10	
    94ac:	f8 2b       	jnc	$-14     	;abs 0x949e
    94ae:	0a 4e       	mov	r14,	r10	
    94b0:	0d 4e       	mov	r14,	r13	
    94b2:	8d 10       	swpb	r13		
    94b4:	8d 11       	sxt	r13		
    94b6:	8d 10       	swpb	r13		
    94b8:	8d 11       	sxt	r13		
    94ba:	0b 4d       	mov	r13,	r11	
    94bc:	0c 4f       	mov	r15,	r12	
    94be:	8f 10       	swpb	r15		
    94c0:	8f 11       	sxt	r15		
    94c2:	8f 10       	swpb	r15		
    94c4:	8f 11       	sxt	r15		
    94c6:	0d 4f       	mov	r15,	r13	
    94c8:	0a 8c       	sub	r12,	r10	
    94ca:	0b 7d       	subc	r13,	r11	
    94cc:	0f 4a       	mov	r10,	r15	
    94ce:	8f 10       	swpb	r15		
    94d0:	c9 4f 00 00 	mov.b	r15,	0(r9)	;0x0000(r9)
    94d4:	c9 4a 01 00 	mov.b	r10,	1(r9)	;0x0001(r9)
    94d8:	2f 41       	mov	@r1,	r15	
    94da:	b0 12 de 93 	call	#0x93de	
    94de:	4f 93       	tst.b	r15		
    94e0:	06 20       	jnz	$+14     	;abs 0x94ee
    94e2:	2f 41       	mov	@r1,	r15	
    94e4:	b0 12 1e 6c 	call	#0x6c1e	
    94e8:	02 3c       	jmp	$+6      	;abs 0x94ee
    94ea:	7f 40 05 00 	mov.b	#5,	r15	;#0x0005
    94ee:	21 52       	add	#4,	r1	;r2 As==10
    94f0:	38 41       	pop	r8		
    94f2:	39 41       	pop	r9		
    94f4:	3a 41       	pop	r10		
    94f6:	3b 41       	pop	r11		
    94f8:	30 41       	ret			

000094fa <PppP__Ppp__releaseOutputFrame>:
    94fa:	b0 12 3a 4c 	call	#0x4c3a	
    94fe:	0f 93       	tst	r15		
    9500:	06 24       	jz	$+14     	;abs 0x950e
    9502:	4d 43       	clr.b	r13		
    9504:	4e 43       	clr.b	r14		
    9506:	b0 12 6c 93 	call	#0x936c	
    950a:	4f 43       	clr.b	r15		
    950c:	30 41       	ret			
    950e:	7f 40 06 00 	mov.b	#6,	r15	;#0x0006
    9512:	30 41       	ret			

00009514 <PppConfigureEngineP__1__completeInvoke_>:
    9514:	0b 12       	push	r11		
    9516:	0a 12       	push	r10		
    9518:	09 12       	push	r9		
    951a:	0a 4f       	mov	r15,	r10	
    951c:	09 4d       	mov	r13,	r9	
    951e:	b0 12 de 93 	call	#0x93de	
    9522:	4b 4f       	mov.b	r15,	r11	
    9524:	4f 93       	tst.b	r15		
    9526:	06 20       	jnz	$+14     	;abs 0x9534
    9528:	0f 4a       	mov	r10,	r15	
    952a:	b0 12 1e 6c 	call	#0x6c1e	
    952e:	4b 4f       	mov.b	r15,	r11	
    9530:	4f 93       	tst.b	r15		
    9532:	04 24       	jz	$+10     	;abs 0x953c
    9534:	0f 4a       	mov	r10,	r15	
    9536:	b0 12 fa 94 	call	#0x94fa	
    953a:	04 3c       	jmp	$+10     	;abs 0x9544
    953c:	09 93       	tst	r9		
    953e:	02 24       	jz	$+6      	;abs 0x9544
    9540:	89 4a 00 00 	mov	r10,	0(r9)	;0x0000(r9)
    9544:	4f 4b       	mov.b	r11,	r15	
    9546:	39 41       	pop	r9		
    9548:	3a 41       	pop	r10		
    954a:	3b 41       	pop	r11		
    954c:	30 41       	ret			

0000954e <PppConfigureEngineP__0__completeInvoke_>:
    954e:	0b 12       	push	r11		
    9550:	0a 12       	push	r10		
    9552:	09 12       	push	r9		
    9554:	0a 4f       	mov	r15,	r10	
    9556:	09 4d       	mov	r13,	r9	
    9558:	b0 12 de 93 	call	#0x93de	
    955c:	4b 4f       	mov.b	r15,	r11	
    955e:	4f 93       	tst.b	r15		
    9560:	06 20       	jnz	$+14     	;abs 0x956e
    9562:	0f 4a       	mov	r10,	r15	
    9564:	b0 12 1e 6c 	call	#0x6c1e	
    9568:	4b 4f       	mov.b	r15,	r11	
    956a:	4f 93       	tst.b	r15		
    956c:	04 24       	jz	$+10     	;abs 0x9576
    956e:	0f 4a       	mov	r10,	r15	
    9570:	b0 12 fa 94 	call	#0x94fa	
    9574:	04 3c       	jmp	$+10     	;abs 0x957e
    9576:	09 93       	tst	r9		
    9578:	02 24       	jz	$+6      	;abs 0x957e
    957a:	89 4a 00 00 	mov	r10,	0(r9)	;0x0000(r9)
    957e:	4f 4b       	mov.b	r11,	r15	
    9580:	39 41       	pop	r9		
    9582:	3a 41       	pop	r10		
    9584:	3b 41       	pop	r11		
    9586:	30 41       	ret			

00009588 <LcpAutomatonP__1__initializeRestartCounter>:
    9588:	82 4e 3c 1b 	mov	r14,	&0x1b3c	
    958c:	82 4f 3e 1b 	mov	r15,	&0x1b3e	
    9590:	3e 90 00 01 	cmp	#256,	r14	;#0x0100
    9594:	06 20       	jnz	$+14     	;abs 0x95a2
    9596:	0f 93       	tst	r15		
    9598:	15 20       	jnz	$+44     	;abs 0x95c4
    959a:	92 42 52 11 62 12 	mov	&0x1152,&0x1262	
    95a0:	15 3c       	jmp	$+44     	;abs 0x95cc
    95a2:	3e 90 00 10 	cmp	#4096,	r14	;#0x1000
    95a6:	06 20       	jnz	$+14     	;abs 0x95b4
    95a8:	0f 93       	tst	r15		
    95aa:	0c 20       	jnz	$+26     	;abs 0x95c4
    95ac:	92 42 50 11 62 12 	mov	&0x1150,&0x1262	
    95b2:	0c 3c       	jmp	$+26     	;abs 0x95cc
    95b4:	3e 90 00 40 	cmp	#16384,	r14	;#0x4000
    95b8:	05 20       	jnz	$+12     	;abs 0x95c4
    95ba:	0f 93       	tst	r15		
    95bc:	03 20       	jnz	$+8      	;abs 0x95c4
    95be:	82 43 62 12 	mov	#0,	&0x1262	;r3 As==00
    95c2:	04 3c       	jmp	$+10     	;abs 0x95cc
    95c4:	82 43 3c 1b 	mov	#0,	&0x1b3c	;r3 As==00
    95c8:	82 43 3e 1b 	mov	#0,	&0x1b3e	;r3 As==00
    95cc:	b0 12 04 6a 	call	#0x6a04	
    95d0:	c2 43 a5 1c 	mov.b	#0,	&0x1ca5	;r3 As==00
    95d4:	b0 12 16 6a 	call	#0x6a16	
    95d8:	30 41       	ret			

000095da <LcpAutomatonP__1__processEventActions_>:
    95da:	0b 12       	push	r11		
    95dc:	0a 12       	push	r10		
    95de:	09 12       	push	r9		
    95e0:	08 12       	push	r8		
    95e2:	07 12       	push	r7		
    95e4:	06 12       	push	r6		
    95e6:	05 12       	push	r5		
    95e8:	04 12       	push	r4		
    95ea:	31 50 f2 ff 	add	#-14,	r1	;#0xfff2
    95ee:	81 43 04 00 	mov	#0,	4(r1)	;r3 As==00, 0x0004(r1)
    95f2:	58 42 c8 14 	mov.b	&0x14c8,r8	
    95f6:	c2 43 c8 14 	mov.b	#0,	&0x14c8	;r3 As==00
    95fa:	1a 42 82 24 	mov	&0x2482,r10	
    95fe:	1b 42 84 24 	mov	&0x2484,r11	
    9602:	0a 93       	tst	r10		
    9604:	08 20       	jnz	$+18     	;abs 0x9616
    9606:	0b 93       	tst	r11		
    9608:	06 20       	jnz	$+14     	;abs 0x9616
    960a:	12 3c       	jmp	$+38     	;abs 0x9630
    960c:	0c 5c       	rla	r12		
    960e:	0d 6d       	rlc	r13		
    9610:	39 53       	add	#-1,	r9	;r3 As==11
    9612:	05 20       	jnz	$+12     	;abs 0x961e
    9614:	0d 3c       	jmp	$+28     	;abs 0x9630
    9616:	39 40 20 00 	mov	#32,	r9	;#0x0020
    961a:	1c 43       	mov	#1,	r12	;r3 As==01
    961c:	0d 43       	clr	r13		
    961e:	0e 4c       	mov	r12,	r14	
    9620:	0f 4d       	mov	r13,	r15	
    9622:	0e fa       	and	r10,	r14	
    9624:	0f fb       	and	r11,	r15	
    9626:	0e 93       	tst	r14		
    9628:	05 20       	jnz	$+12     	;abs 0x9634
    962a:	0f 93       	tst	r15		
    962c:	ef 27       	jz	$-32     	;abs 0x960c
    962e:	02 3c       	jmp	$+6      	;abs 0x9634
    9630:	0c 43       	clr	r12		
    9632:	0d 43       	clr	r13		
    9634:	0e 4a       	mov	r10,	r14	
    9636:	0f 4b       	mov	r11,	r15	
    9638:	0e cc       	bic	r12,	r14	
    963a:	0f cd       	bic	r13,	r15	
    963c:	82 4e 82 24 	mov	r14,	&0x2482	
    9640:	82 4f 84 24 	mov	r15,	&0x2484	
    9644:	82 4c 9e 23 	mov	r12,	&0x239e	
    9648:	82 4d a0 23 	mov	r13,	&0x23a0	
    964c:	82 9c 3c 1b 	cmp	r12,	&0x1b3c	
    9650:	05 20       	jnz	$+12     	;abs 0x965c
    9652:	82 9d 3e 1b 	cmp	r13,	&0x1b3e	
    9656:	02 20       	jnz	$+6      	;abs 0x965c
    9658:	b2 53 62 12 	add	#-1,	&0x1262	;r3 As==11
    965c:	3c 90 00 01 	cmp	#256,	r12	;#0x0100
    9660:	02 20       	jnz	$+6      	;abs 0x9666
    9662:	0d 93       	tst	r13		
    9664:	86 24       	jz	$+270    	;abs 0x9772
    9666:	1d 93       	cmp	#1,	r13	;r3 As==01
    9668:	2b 2c       	jc	$+88     	;abs 0x96c0
    966a:	3c 90 01 01 	cmp	#257,	r12	;#0x0101
    966e:	28 2c       	jc	$+82     	;abs 0x96c0
    9670:	2c 92       	cmp	#4,	r12	;r2 As==10
    9672:	02 20       	jnz	$+6      	;abs 0x9678
    9674:	0d 93       	tst	r13		
    9676:	63 24       	jz	$+200    	;abs 0x973e
    9678:	1d 93       	cmp	#1,	r13	;r3 As==01
    967a:	0f 2c       	jc	$+32     	;abs 0x969a
    967c:	3c 90 05 00 	cmp	#5,	r12	;#0x0005
    9680:	0c 2c       	jc	$+26     	;abs 0x969a
    9682:	1c 93       	cmp	#1,	r12	;r3 As==01
    9684:	02 20       	jnz	$+6      	;abs 0x968a
    9686:	0d 93       	tst	r13		
    9688:	52 24       	jz	$+166    	;abs 0x972e
    968a:	2c 93       	cmp	#2,	r12	;r3 As==10
    968c:	02 24       	jz	$+6      	;abs 0x9692
    968e:	30 40 38 99 	br	#0x9938	
    9692:	0d 93       	tst	r13		
    9694:	50 24       	jz	$+162    	;abs 0x9736
    9696:	30 40 38 99 	br	#0x9938	
    969a:	3c 90 20 00 	cmp	#32,	r12	;#0x0020
    969e:	02 20       	jnz	$+6      	;abs 0x96a4
    96a0:	0d 93       	tst	r13		
    96a2:	5b 24       	jz	$+184    	;abs 0x975a
    96a4:	3c 90 80 00 	cmp	#128,	r12	;#0x0080
    96a8:	02 20       	jnz	$+6      	;abs 0x96ae
    96aa:	0d 93       	tst	r13		
    96ac:	5d 24       	jz	$+188    	;abs 0x9768
    96ae:	3c 90 10 00 	cmp	#16,	r12	;#0x0010
    96b2:	02 24       	jz	$+6      	;abs 0x96b8
    96b4:	30 40 38 99 	br	#0x9938	
    96b8:	0d 93       	tst	r13		
    96ba:	4b 24       	jz	$+152    	;abs 0x9752
    96bc:	30 40 38 99 	br	#0x9938	
    96c0:	3c 90 00 40 	cmp	#16384,	r12	;#0x4000
    96c4:	04 20       	jnz	$+10     	;abs 0x96ce
    96c6:	0d 93       	tst	r13		
    96c8:	02 20       	jnz	$+6      	;abs 0x96ce
    96ca:	30 40 d8 98 	br	#0x98d8	
    96ce:	1d 93       	cmp	#1,	r13	;r3 As==01
    96d0:	16 2c       	jc	$+46     	;abs 0x96fe
    96d2:	3c 90 01 40 	cmp	#16385,	r12	;#0x4001
    96d6:	13 2c       	jc	$+40     	;abs 0x96fe
    96d8:	3c 90 00 04 	cmp	#1024,	r12	;#0x0400
    96dc:	02 20       	jnz	$+6      	;abs 0x96e2
    96de:	0d 93       	tst	r13		
    96e0:	fb 24       	jz	$+504    	;abs 0x98d8
    96e2:	3c 90 00 20 	cmp	#8192,	r12	;#0x2000
    96e6:	02 20       	jnz	$+6      	;abs 0x96ec
    96e8:	0d 93       	tst	r13		
    96ea:	c8 24       	jz	$+402    	;abs 0x987c
    96ec:	3c 90 00 02 	cmp	#512,	r12	;#0x0200
    96f0:	02 24       	jz	$+6      	;abs 0x96f6
    96f2:	30 40 38 99 	br	#0x9938	
    96f6:	0d 93       	tst	r13		
    96f8:	ef 24       	jz	$+480    	;abs 0x98d8
    96fa:	30 40 38 99 	br	#0x9938	
    96fe:	0c 93       	tst	r12		
    9700:	05 20       	jnz	$+12     	;abs 0x970c
    9702:	3d 90 20 00 	cmp	#32,	r13	;#0x0020
    9706:	02 20       	jnz	$+6      	;abs 0x970c
    9708:	30 40 0c 99 	br	#0x990c	
    970c:	0c 93       	tst	r12		
    970e:	05 20       	jnz	$+12     	;abs 0x971a
    9710:	3d 90 00 01 	cmp	#256,	r13	;#0x0100
    9714:	02 20       	jnz	$+6      	;abs 0x971a
    9716:	30 40 32 99 	br	#0x9932	
    971a:	0c 93       	tst	r12		
    971c:	02 24       	jz	$+6      	;abs 0x9722
    971e:	30 40 38 99 	br	#0x9938	
    9722:	3d 90 10 00 	cmp	#16,	r13	;#0x0010
    9726:	02 24       	jz	$+6      	;abs 0x972c
    9728:	30 40 38 99 	br	#0x9938	
    972c:	ef 3c       	jmp	$+480    	;abs 0x990c
    972e:	b0 12 e2 54 	call	#0x54e2	
    9732:	30 40 40 99 	br	#0x9940	
    9736:	c2 43 ac 12 	mov.b	#0,	&0x12ac	;r3 As==00
    973a:	30 40 40 99 	br	#0x9940	
    973e:	3e 40 00 40 	mov	#16384,	r14	;#0x4000
    9742:	0f 43       	clr	r15		
    9744:	b0 12 88 95 	call	#0x9588	
    9748:	92 42 f8 11 6a 12 	mov	&0x11f8,&0x126a	
    974e:	30 40 40 99 	br	#0x9940	
    9752:	3e 40 00 01 	mov	#256,	r14	;#0x0100
    9756:	0f 43       	clr	r15		
    9758:	03 3c       	jmp	$+8      	;abs 0x9760
    975a:	3e 40 00 10 	mov	#4096,	r14	;#0x1000
    975e:	0f 43       	clr	r15		
    9760:	b0 12 88 95 	call	#0x9588	
    9764:	30 40 40 99 	br	#0x9940	
    9768:	4c 43       	clr.b	r12		
    976a:	6d 43       	mov.b	#2,	r13	;r3 As==10
    976c:	0e 43       	clr	r14		
    976e:	0f 43       	clr	r15		
    9770:	dd 3c       	jmp	$+444    	;abs 0x992c
    9772:	48 93       	tst.b	r8		
    9774:	80 20       	jnz	$+258    	;abs 0x9876
    9776:	5c 43       	mov.b	#1,	r12	;r3 As==01
    9778:	6d 43       	mov.b	#2,	r13	;r3 As==10
    977a:	0e 43       	clr	r14		
    977c:	0f 43       	clr	r15		
    977e:	b0 12 fa 5a 	call	#0x5afa	
    9782:	0c 41       	mov	r1,	r12	
    9784:	4d 43       	clr.b	r13		
    9786:	0e 41       	mov	r1,	r14	
    9788:	2e 53       	incd	r14		
    978a:	3f 40 57 80 	mov	#-32681,r15	;#0x8057
    978e:	b0 12 c6 74 	call	#0x74c6	
    9792:	09 4f       	mov	r15,	r9	
    9794:	0f 93       	tst	r15		
    9796:	02 20       	jnz	$+6      	;abs 0x979c
    9798:	30 40 d4 99 	br	#0x99d4	
    979c:	df 43 00 00 	mov.b	#1,	0(r15)	;r3 As==01, 0x0000(r15)
    97a0:	5e 42 9c 23 	mov.b	&0x239c,r14	
    97a4:	5e 53       	inc.b	r14		
    97a6:	c2 4e 9c 23 	mov.b	r14,	&0x239c	
    97aa:	cf 4e 01 00 	mov.b	r14,	1(r15)	;0x0001(r15)
    97ae:	0a 4f       	mov	r15,	r10	
    97b0:	2a 52       	add	#4,	r10	;r2 As==10
    97b2:	38 40 ac 23 	mov	#9132,	r8	;#0x23ac
    97b6:	2c 3c       	jmp	$+90     	;abs 0x9810
    97b8:	18 53       	inc	r8		
    97ba:	5f 93       	cmp.b	#1,	r15	;r3 As==01
    97bc:	29 20       	jnz	$+84     	;abs 0x9810
    97be:	c2 93 58 11 	tst.b	&0x1158	
    97c2:	26 24       	jz	$+78     	;abs 0x9810
    97c4:	da 43 00 00 	mov.b	#1,	0(r10)	;r3 As==01, 0x0000(r10)
    97c8:	0b 4a       	mov	r10,	r11	
    97ca:	3b 50 0a 00 	add	#10,	r11	;#0x000a
    97ce:	81 9b 02 00 	cmp	r11,	2(r1)	;0x0002(r1)
    97d2:	1e 28       	jnc	$+62     	;abs 0x9810
    97d4:	3d 42       	mov	#8,	r13	;r2 As==11
    97d6:	3e 40 da 12 	mov	#4826,	r14	;#0x12da
    97da:	0f 4a       	mov	r10,	r15	
    97dc:	2f 53       	incd	r15		
    97de:	b0 12 a0 ef 	call	#0xefa0	
    97e2:	0b 93       	tst	r11		
    97e4:	15 24       	jz	$+44     	;abs 0x9810
    97e6:	06 4b       	mov	r11,	r6	
    97e8:	0f 4b       	mov	r11,	r15	
    97ea:	8f 10       	swpb	r15		
    97ec:	8f 11       	sxt	r15		
    97ee:	8f 10       	swpb	r15		
    97f0:	8f 11       	sxt	r15		
    97f2:	07 4f       	mov	r15,	r7	
    97f4:	04 4a       	mov	r10,	r4	
    97f6:	0f 4a       	mov	r10,	r15	
    97f8:	8f 10       	swpb	r15		
    97fa:	8f 11       	sxt	r15		
    97fc:	8f 10       	swpb	r15		
    97fe:	8f 11       	sxt	r15		
    9800:	05 4f       	mov	r15,	r5	
    9802:	0e 46       	mov	r6,	r14	
    9804:	0f 47       	mov	r7,	r15	
    9806:	0e 84       	sub	r4,	r14	
    9808:	0f 75       	subc	r5,	r15	
    980a:	ca 4e 01 00 	mov.b	r14,	1(r10)	;0x0001(r10)
    980e:	0a 4b       	mov	r11,	r10	
    9810:	6f 48       	mov.b	@r8,	r15	
    9812:	4f 93       	tst.b	r15		
    9814:	d1 23       	jnz	$-92     	;abs 0x97b8
    9816:	81 4a 06 00 	mov	r10,	6(r1)	;0x0006(r1)
    981a:	0d 4a       	mov	r10,	r13	
    981c:	8d 10       	swpb	r13		
    981e:	8d 11       	sxt	r13		
    9820:	8d 10       	swpb	r13		
    9822:	8d 11       	sxt	r13		
    9824:	81 4d 08 00 	mov	r13,	8(r1)	;0x0008(r1)
    9828:	81 49 0a 00 	mov	r9,	10(r1)	;0x000a(r1)
    982c:	0d 49       	mov	r9,	r13	
    982e:	8d 10       	swpb	r13		
    9830:	8d 11       	sxt	r13		
    9832:	8d 10       	swpb	r13		
    9834:	8d 11       	sxt	r13		
    9836:	81 4d 0c 00 	mov	r13,	12(r1)	;0x000c(r1)
    983a:	1c 41 06 00 	mov	6(r1),	r12	;0x0006(r1)
    983e:	1d 41 08 00 	mov	8(r1),	r13	;0x0008(r1)
    9842:	1c 81 0a 00 	sub	10(r1),	r12	;0x000a(r1)
    9846:	1d 71 0c 00 	subc	12(r1),	r13	;0x000c(r1)
    984a:	0d 4c       	mov	r12,	r13	
    984c:	8c 10       	swpb	r12		
    984e:	c9 4c 02 00 	mov.b	r12,	2(r9)	;0x0002(r9)
    9852:	c9 4d 03 00 	mov.b	r13,	3(r9)	;0x0003(r9)
    9856:	0d 41       	mov	r1,	r13	
    9858:	2d 52       	add	#4,	r13	;r2 As==10
    985a:	0e 4a       	mov	r10,	r14	
    985c:	2f 41       	mov	@r1,	r15	
    985e:	b0 12 14 95 	call	#0x9514	
    9862:	48 4f       	mov.b	r15,	r8	
    9864:	4f 93       	tst.b	r15		
    9866:	07 20       	jnz	$+16     	;abs 0x9876
    9868:	1e 41 04 00 	mov	4(r1),	r14	;0x0004(r1)
    986c:	0e 93       	tst	r14		
    986e:	03 24       	jz	$+8      	;abs 0x9876
    9870:	82 4e 6a 12 	mov	r14,	&0x126a	
    9874:	2e 3c       	jmp	$+94     	;abs 0x98d2
    9876:	b0 12 4c 93 	call	#0x934c	
    987a:	62 3c       	jmp	$+198    	;abs 0x9940
    987c:	48 93       	tst.b	r8		
    987e:	60 20       	jnz	$+194    	;abs 0x9940
    9880:	0c 41       	mov	r1,	r12	
    9882:	2c 53       	incd	r12		
    9884:	4d 43       	clr.b	r13		
    9886:	0e 41       	mov	r1,	r14	
    9888:	3f 40 57 80 	mov	#-32681,r15	;#0x8057
    988c:	b0 12 c6 74 	call	#0x74c6	
    9890:	0f 93       	tst	r15		
    9892:	a3 24       	jz	$+328    	;abs 0x99da
    9894:	ff 40 06 00 00 00 	mov.b	#6,	0(r15)	;#0x0006, 0x0000(r15)
    989a:	5e 42 54 12 	mov.b	&0x1254,r14	
    989e:	5e 53       	inc.b	r14		
    98a0:	c2 4e 54 12 	mov.b	r14,	&0x1254	
    98a4:	cf 4e 01 00 	mov.b	r14,	1(r15)	;0x0001(r15)
    98a8:	cf 43 02 00 	mov.b	#0,	2(r15)	;r3 As==00, 0x0002(r15)
    98ac:	ef 43 03 00 	mov.b	#2,	3(r15)	;r3 As==10, 0x0003(r15)
    98b0:	0d 41       	mov	r1,	r13	
    98b2:	2d 52       	add	#4,	r13	;r2 As==10
    98b4:	0e 4f       	mov	r15,	r14	
    98b6:	2e 52       	add	#4,	r14	;r2 As==10
    98b8:	1f 41 02 00 	mov	2(r1),	r15	;0x0002(r1)
    98bc:	b0 12 14 95 	call	#0x9514	
    98c0:	48 4f       	mov.b	r15,	r8	
    98c2:	4f 93       	tst.b	r15		
    98c4:	3d 20       	jnz	$+124    	;abs 0x9940
    98c6:	1e 41 04 00 	mov	4(r1),	r14	;0x0004(r1)
    98ca:	0e 93       	tst	r14		
    98cc:	02 20       	jnz	$+6      	;abs 0x98d2
    98ce:	30 40 fa 95 	br	#0x95fa	
    98d2:	82 4e d0 14 	mov	r14,	&0x14d0	
    98d6:	3e 3c       	jmp	$+126    	;abs 0x9954
    98d8:	48 93       	tst.b	r8		
    98da:	0c 20       	jnz	$+26     	;abs 0x98f4
    98dc:	1f 42 f8 11 	mov	&0x11f8,r15	
    98e0:	b0 12 1e 6c 	call	#0x6c1e	
    98e4:	48 4f       	mov.b	r15,	r8	
    98e6:	4f 93       	tst.b	r15		
    98e8:	05 20       	jnz	$+12     	;abs 0x98f4
    98ea:	92 42 f8 11 d0 14 	mov	&0x11f8,&0x14d0	
    98f0:	5e 43       	mov.b	#1,	r14	;r3 As==01
    98f2:	09 3c       	jmp	$+20     	;abs 0x9906
    98f4:	82 43 6a 12 	mov	#0,	&0x126a	;r3 As==00
    98f8:	82 43 d0 14 	mov	#0,	&0x14d0	;r3 As==00
    98fc:	1f 42 f8 11 	mov	&0x11f8,r15	
    9900:	b0 12 fa 94 	call	#0x94fa	
    9904:	4e 43       	clr.b	r14		
    9906:	82 43 f8 11 	mov	#0,	&0x11f8	;r3 As==00
    990a:	1b 3c       	jmp	$+56     	;abs 0x9942
    990c:	1e 42 0c 12 	mov	&0x120c,r14	
    9910:	1b 42 7a 24 	mov	&0x247a,r11	
    9914:	0c 93       	tst	r12		
    9916:	07 20       	jnz	$+16     	;abs 0x9926
    9918:	3d 90 10 00 	cmp	#16,	r13	;#0x0010
    991c:	04 20       	jnz	$+10     	;abs 0x9926
    991e:	5c 43       	mov.b	#1,	r12	;r3 As==01
    9920:	5d 42 e8 17 	mov.b	&0x17e8,r13	
    9924:	02 3c       	jmp	$+6      	;abs 0x992a
    9926:	4c 43       	clr.b	r12		
    9928:	6d 43       	mov.b	#2,	r13	;r3 As==10
    992a:	0f 4b       	mov	r11,	r15	
    992c:	b0 12 fa 5a 	call	#0x5afa	
    9930:	07 3c       	jmp	$+16     	;abs 0x9940
    9932:	d2 43 ac 12 	mov.b	#1,	&0x12ac	;r3 As==01
    9936:	04 3c       	jmp	$+10     	;abs 0x9940
    9938:	0c 93       	tst	r12		
    993a:	02 20       	jnz	$+6      	;abs 0x9940
    993c:	0d 93       	tst	r13		
    993e:	0e 24       	jz	$+30     	;abs 0x995c
    9940:	4e 43       	clr.b	r14		
    9942:	48 93       	tst.b	r8		
    9944:	05 20       	jnz	$+12     	;abs 0x9950
    9946:	4e 93       	tst.b	r14		
    9948:	02 20       	jnz	$+6      	;abs 0x994e
    994a:	30 40 fa 95 	br	#0x95fa	
    994e:	02 3c       	jmp	$+6      	;abs 0x9954
    9950:	4e 93       	tst.b	r14		
    9952:	0a 24       	jz	$+22     	;abs 0x9968
    9954:	f2 40 0f 00 71 12 	mov.b	#15,	&0x1271	;#0x000f
    995a:	30 3c       	jmp	$+98     	;abs 0x99bc
    995c:	48 93       	tst.b	r8		
    995e:	04 20       	jnz	$+10     	;abs 0x9968
    9960:	d2 42 8e 24 71 12 	mov.b	&0x248e,&0x1271	
    9966:	03 3c       	jmp	$+8      	;abs 0x996e
    9968:	d2 42 02 1c 71 12 	mov.b	&0x1c02,&0x1271	
    996e:	1e 43       	mov	#1,	r14	;r3 As==01
    9970:	5d 42 71 12 	mov.b	&0x1271,r13	
    9974:	7d f0 0f 00 	and.b	#15,	r13	;#0x000f
    9978:	4d 93       	tst.b	r13		
    997a:	03 24       	jz	$+8      	;abs 0x9982
    997c:	0e 5e       	rla	r14		
    997e:	7d 53       	add.b	#-1,	r13	;r3 As==11
    9980:	fb 3f       	jmp	$-8      	;abs 0x9978
    9982:	5b 43       	mov.b	#1,	r11	;r3 As==01
    9984:	3e b0 f0 01 	bit	#496,	r14	;#0x01f0
    9988:	02 24       	jz	$+6      	;abs 0x998e
    998a:	4b 43       	clr.b	r11		
    998c:	02 3c       	jmp	$+6      	;abs 0x9992
    998e:	82 43 6a 12 	mov	#0,	&0x126a	;r3 As==00
    9992:	82 43 0c 12 	mov	#0,	&0x120c	;r3 As==00
    9996:	82 43 7a 24 	mov	#0,	&0x247a	;r3 As==00
    999a:	1e 42 f8 11 	mov	&0x11f8,r14	
    999e:	0e 93       	tst	r14		
    99a0:	03 24       	jz	$+8      	;abs 0x99a8
    99a2:	0f 4e       	mov	r14,	r15	
    99a4:	b0 12 fa 94 	call	#0x94fa	
    99a8:	82 43 f8 11 	mov	#0,	&0x11f8	;r3 As==00
    99ac:	4b 93       	tst.b	r11		
    99ae:	06 24       	jz	$+14     	;abs 0x99bc
    99b0:	b0 12 04 6a 	call	#0x6a04	
    99b4:	c2 43 a5 1c 	mov.b	#0,	&0x1ca5	;r3 As==00
    99b8:	b0 12 16 6a 	call	#0x6a16	
    99bc:	4f 48       	mov.b	r8,	r15	
    99be:	31 50 0e 00 	add	#14,	r1	;#0x000e
    99c2:	34 41       	pop	r4		
    99c4:	35 41       	pop	r5		
    99c6:	36 41       	pop	r6		
    99c8:	37 41       	pop	r7		
    99ca:	38 41       	pop	r8		
    99cc:	39 41       	pop	r9		
    99ce:	3a 41       	pop	r10		
    99d0:	3b 41       	pop	r11		
    99d2:	30 41       	ret			
    99d4:	78 40 05 00 	mov.b	#5,	r8	;#0x0005
    99d8:	4e 3f       	jmp	$-354    	;abs 0x9876
    99da:	78 40 05 00 	mov.b	#5,	r8	;#0x0005
    99de:	b0 3f       	jmp	$-158    	;abs 0x9940

000099e0 <LcpAutomatonP__1__processEvent_>:
    99e0:	b0 12 f4 4c 	call	#0x4cf4	
    99e4:	7f 90 07 00 	cmp.b	#7,	r15	;#0x0007
    99e8:	02 24       	jz	$+6      	;abs 0x99ee
    99ea:	b0 12 da 95 	call	#0x95da	
    99ee:	30 41       	ret			

000099f0 <LcpAutomatonP__0__initializeRestartCounter>:
    99f0:	82 4e 76 1b 	mov	r14,	&0x1b76	
    99f4:	82 4f 78 1b 	mov	r15,	&0x1b78	
    99f8:	3e 90 00 01 	cmp	#256,	r14	;#0x0100
    99fc:	06 20       	jnz	$+14     	;abs 0x9a0a
    99fe:	0f 93       	tst	r15		
    9a00:	15 20       	jnz	$+44     	;abs 0x9a2c
    9a02:	92 42 60 11 72 12 	mov	&0x1160,&0x1272	
    9a08:	15 3c       	jmp	$+44     	;abs 0x9a34
    9a0a:	3e 90 00 10 	cmp	#4096,	r14	;#0x1000
    9a0e:	06 20       	jnz	$+14     	;abs 0x9a1c
    9a10:	0f 93       	tst	r15		
    9a12:	0c 20       	jnz	$+26     	;abs 0x9a2c
    9a14:	92 42 5e 11 72 12 	mov	&0x115e,&0x1272	
    9a1a:	0c 3c       	jmp	$+26     	;abs 0x9a34
    9a1c:	3e 90 00 40 	cmp	#16384,	r14	;#0x4000
    9a20:	05 20       	jnz	$+12     	;abs 0x9a2c
    9a22:	0f 93       	tst	r15		
    9a24:	03 20       	jnz	$+8      	;abs 0x9a2c
    9a26:	82 43 72 12 	mov	#0,	&0x1272	;r3 As==00
    9a2a:	04 3c       	jmp	$+10     	;abs 0x9a34
    9a2c:	82 43 76 1b 	mov	#0,	&0x1b76	;r3 As==00
    9a30:	82 43 78 1b 	mov	#0,	&0x1b78	;r3 As==00
    9a34:	b0 12 04 6a 	call	#0x6a04	
    9a38:	c2 43 a4 1c 	mov.b	#0,	&0x1ca4	;r3 As==00
    9a3c:	b0 12 16 6a 	call	#0x6a16	
    9a40:	30 41       	ret			

00009a42 <LinkControlProtocolP__HdlcFramingOptions__get>:
    9a42:	0b 12       	push	r11		
    9a44:	0a 12       	push	r10		
    9a46:	31 50 f6 ff 	add	#-10,	r1	;#0xfff6
    9a4a:	0b 4f       	mov	r15,	r11	
    9a4c:	b0 12 04 6a 	call	#0x6a04	
    9a50:	4a 4f       	mov.b	r15,	r10	
    9a52:	3d 40 0a 00 	mov	#10,	r13	;#0x000a
    9a56:	3e 40 6a 11 	mov	#4458,	r14	;#0x116a
    9a5a:	0f 41       	mov	r1,	r15	
    9a5c:	b0 12 a0 ef 	call	#0xefa0	
    9a60:	4f 4a       	mov.b	r10,	r15	
    9a62:	b0 12 16 6a 	call	#0x6a16	
    9a66:	3d 40 0a 00 	mov	#10,	r13	;#0x000a
    9a6a:	0e 41       	mov	r1,	r14	
    9a6c:	0f 4b       	mov	r11,	r15	
    9a6e:	b0 12 a0 ef 	call	#0xefa0	
    9a72:	0f 4b       	mov	r11,	r15	
    9a74:	31 50 0a 00 	add	#10,	r1	;#0x000a
    9a78:	3a 41       	pop	r10		
    9a7a:	3b 41       	pop	r11		
    9a7c:	30 41       	ret			

00009a7e <LinkControlProtocolP__HdlcFramingOptions__set>:
    9a7e:	0b 12       	push	r11		
    9a80:	0a 12       	push	r10		
    9a82:	0b 4f       	mov	r15,	r11	
    9a84:	b0 12 04 6a 	call	#0x6a04	
    9a88:	4a 4f       	mov.b	r15,	r10	
    9a8a:	0b 93       	tst	r11		
    9a8c:	08 24       	jz	$+18     	;abs 0x9a9e
    9a8e:	3d 40 0a 00 	mov	#10,	r13	;#0x000a
    9a92:	0e 4b       	mov	r11,	r14	
    9a94:	3f 40 6a 11 	mov	#4458,	r15	;#0x116a
    9a98:	b0 12 a0 ef 	call	#0xefa0	
    9a9c:	0c 3c       	jmp	$+26     	;abs 0x9ab6
    9a9e:	c2 43 6b 11 	mov.b	#0,	&0x116b	;r3 As==00
    9aa2:	c2 43 6a 11 	mov.b	#0,	&0x116a	;r3 As==00
    9aa6:	b2 43 70 11 	mov	#-1,	&0x1170	;r3 As==11
    9aaa:	b2 43 72 11 	mov	#-1,	&0x1172	;r3 As==11
    9aae:	b2 43 6c 11 	mov	#-1,	&0x116c	;r3 As==11
    9ab2:	b2 43 6e 11 	mov	#-1,	&0x116e	;r3 As==11
    9ab6:	4f 4a       	mov.b	r10,	r15	
    9ab8:	b0 12 16 6a 	call	#0x6a16	
    9abc:	4f 43       	clr.b	r15		
    9abe:	3a 41       	pop	r10		
    9ac0:	3b 41       	pop	r11		
    9ac2:	30 41       	ret			

00009ac4 <PppConfigureEngineP__0__PppProtocolOption__setLocal.isra.302>:
    9ac4:	0b 12       	push	r11		
    9ac6:	31 50 e0 ff 	add	#-32,	r1	;#0xffe0
    9aca:	0b 4e       	mov	r14,	r11	
    9acc:	6f 93       	cmp.b	#2,	r15	;r3 As==10
    9ace:	24 24       	jz	$+74     	;abs 0x9b18
    9ad0:	7f 92       	cmp.b	#8,	r15	;r2 As==11
    9ad2:	3e 24       	jz	$+126    	;abs 0x9b50
    9ad4:	5f 93       	cmp.b	#1,	r15	;r3 As==01
    9ad6:	56 20       	jnz	$+174    	;abs 0x9b84
    9ad8:	b0 12 74 4a 	call	#0x4a74	
    9adc:	81 4c 10 00 	mov	r12,	16(r1)	;0x0010(r1)
    9ae0:	81 4d 12 00 	mov	r13,	18(r1)	;0x0012(r1)
    9ae4:	81 4e 14 00 	mov	r14,	20(r1)	;0x0014(r1)
    9ae8:	3d 40 06 00 	mov	#6,	r13	;#0x0006
    9aec:	0e 41       	mov	r1,	r14	
    9aee:	3e 50 10 00 	add	#16,	r14	;#0x0010
    9af2:	0f 41       	mov	r1,	r15	
    9af4:	b0 12 a0 ef 	call	#0xefa0	
    9af8:	0b 93       	tst	r11		
    9afa:	06 24       	jz	$+14     	;abs 0x9b08
    9afc:	6f 4b       	mov.b	@r11,	r15	
    9afe:	8f 10       	swpb	r15		
    9b00:	5e 4b 01 00 	mov.b	1(r11),	r14	;0x0001(r11)
    9b04:	0f de       	bis	r14,	r15	
    9b06:	02 3c       	jmp	$+6      	;abs 0x9b0c
    9b08:	3f 40 00 05 	mov	#1280,	r15	;#0x0500
    9b0c:	81 4f 04 00 	mov	r15,	4(r1)	;0x0004(r1)
    9b10:	0f 41       	mov	r1,	r15	
    9b12:	b0 12 98 5a 	call	#0x5a98	
    9b16:	36 3c       	jmp	$+110    	;abs 0x9b84
    9b18:	0f 41       	mov	r1,	r15	
    9b1a:	3f 50 16 00 	add	#22,	r15	;#0x0016
    9b1e:	b0 12 42 9a 	call	#0x9a42	
    9b22:	3d 40 0a 00 	mov	#10,	r13	;#0x000a
    9b26:	0e 41       	mov	r1,	r14	
    9b28:	3e 50 16 00 	add	#22,	r14	;#0x0016
    9b2c:	0f 41       	mov	r1,	r15	
    9b2e:	3f 50 06 00 	add	#6,	r15	;#0x0006
    9b32:	b0 12 a0 ef 	call	#0xefa0	
    9b36:	0b 93       	tst	r11		
    9b38:	04 24       	jz	$+10     	;abs 0x9b42
    9b3a:	0f 4b       	mov	r11,	r15	
    9b3c:	b0 12 00 48 	call	#0x4800	
    9b40:	02 3c       	jmp	$+6      	;abs 0x9b46
    9b42:	3e 43       	mov	#-1,	r14	;r3 As==11
    9b44:	3f 43       	mov	#-1,	r15	;r3 As==11
    9b46:	81 4e 0c 00 	mov	r14,	12(r1)	;0x000c(r1)
    9b4a:	81 4f 0e 00 	mov	r15,	14(r1)	;0x000e(r1)
    9b4e:	15 3c       	jmp	$+44     	;abs 0x9b7a
    9b50:	0f 41       	mov	r1,	r15	
    9b52:	3f 50 16 00 	add	#22,	r15	;#0x0016
    9b56:	b0 12 42 9a 	call	#0x9a42	
    9b5a:	3d 40 0a 00 	mov	#10,	r13	;#0x000a
    9b5e:	0e 41       	mov	r1,	r14	
    9b60:	3e 50 16 00 	add	#22,	r14	;#0x0016
    9b64:	0f 41       	mov	r1,	r15	
    9b66:	3f 50 06 00 	add	#6,	r15	;#0x0006
    9b6a:	b0 12 a0 ef 	call	#0xefa0	
    9b6e:	5f 43       	mov.b	#1,	r15	;r3 As==01
    9b70:	0b 93       	tst	r11		
    9b72:	01 20       	jnz	$+4      	;abs 0x9b76
    9b74:	4f 43       	clr.b	r15		
    9b76:	c1 4f 07 00 	mov.b	r15,	7(r1)	;0x0007(r1)
    9b7a:	0f 41       	mov	r1,	r15	
    9b7c:	3f 50 06 00 	add	#6,	r15	;#0x0006
    9b80:	b0 12 7e 9a 	call	#0x9a7e	
    9b84:	31 50 20 00 	add	#32,	r1	;#0x0020
    9b88:	3b 41       	pop	r11		
    9b8a:	30 41       	ret			

00009b8c <PppConfigureEngineP__0__PppProtocolOption__setRemote.isra.306>:
    9b8c:	0b 12       	push	r11		
    9b8e:	31 50 e0 ff 	add	#-32,	r1	;#0xffe0
    9b92:	0b 4e       	mov	r14,	r11	
    9b94:	6f 93       	cmp.b	#2,	r15	;r3 As==10
    9b96:	24 24       	jz	$+74     	;abs 0x9be0
    9b98:	7f 92       	cmp.b	#8,	r15	;r2 As==11
    9b9a:	3e 24       	jz	$+126    	;abs 0x9c18
    9b9c:	5f 93       	cmp.b	#1,	r15	;r3 As==01
    9b9e:	56 20       	jnz	$+174    	;abs 0x9c4c
    9ba0:	b0 12 74 4a 	call	#0x4a74	
    9ba4:	81 4c 10 00 	mov	r12,	16(r1)	;0x0010(r1)
    9ba8:	81 4d 12 00 	mov	r13,	18(r1)	;0x0012(r1)
    9bac:	81 4e 14 00 	mov	r14,	20(r1)	;0x0014(r1)
    9bb0:	3d 40 06 00 	mov	#6,	r13	;#0x0006
    9bb4:	0e 41       	mov	r1,	r14	
    9bb6:	3e 50 10 00 	add	#16,	r14	;#0x0010
    9bba:	0f 41       	mov	r1,	r15	
    9bbc:	b0 12 a0 ef 	call	#0xefa0	
    9bc0:	0b 93       	tst	r11		
    9bc2:	06 24       	jz	$+14     	;abs 0x9bd0
    9bc4:	6f 4b       	mov.b	@r11,	r15	
    9bc6:	8f 10       	swpb	r15		
    9bc8:	5e 4b 01 00 	mov.b	1(r11),	r14	;0x0001(r11)
    9bcc:	0f de       	bis	r14,	r15	
    9bce:	02 3c       	jmp	$+6      	;abs 0x9bd4
    9bd0:	3f 40 00 05 	mov	#1280,	r15	;#0x0500
    9bd4:	81 4f 02 00 	mov	r15,	2(r1)	;0x0002(r1)
    9bd8:	0f 41       	mov	r1,	r15	
    9bda:	b0 12 98 5a 	call	#0x5a98	
    9bde:	36 3c       	jmp	$+110    	;abs 0x9c4c
    9be0:	0f 41       	mov	r1,	r15	
    9be2:	3f 50 16 00 	add	#22,	r15	;#0x0016
    9be6:	b0 12 42 9a 	call	#0x9a42	
    9bea:	3d 40 0a 00 	mov	#10,	r13	;#0x000a
    9bee:	0e 41       	mov	r1,	r14	
    9bf0:	3e 50 16 00 	add	#22,	r14	;#0x0016
    9bf4:	0f 41       	mov	r1,	r15	
    9bf6:	3f 50 06 00 	add	#6,	r15	;#0x0006
    9bfa:	b0 12 a0 ef 	call	#0xefa0	
    9bfe:	0b 93       	tst	r11		
    9c00:	04 24       	jz	$+10     	;abs 0x9c0a
    9c02:	0f 4b       	mov	r11,	r15	
    9c04:	b0 12 00 48 	call	#0x4800	
    9c08:	02 3c       	jmp	$+6      	;abs 0x9c0e
    9c0a:	3e 43       	mov	#-1,	r14	;r3 As==11
    9c0c:	3f 43       	mov	#-1,	r15	;r3 As==11
    9c0e:	81 4e 08 00 	mov	r14,	8(r1)	;0x0008(r1)
    9c12:	81 4f 0a 00 	mov	r15,	10(r1)	;0x000a(r1)
    9c16:	15 3c       	jmp	$+44     	;abs 0x9c42
    9c18:	0f 41       	mov	r1,	r15	
    9c1a:	3f 50 16 00 	add	#22,	r15	;#0x0016
    9c1e:	b0 12 42 9a 	call	#0x9a42	
    9c22:	3d 40 0a 00 	mov	#10,	r13	;#0x000a
    9c26:	0e 41       	mov	r1,	r14	
    9c28:	3e 50 16 00 	add	#22,	r14	;#0x0016
    9c2c:	0f 41       	mov	r1,	r15	
    9c2e:	3f 50 06 00 	add	#6,	r15	;#0x0006
    9c32:	b0 12 a0 ef 	call	#0xefa0	
    9c36:	5f 43       	mov.b	#1,	r15	;r3 As==01
    9c38:	0b 93       	tst	r11		
    9c3a:	01 20       	jnz	$+4      	;abs 0x9c3e
    9c3c:	4f 43       	clr.b	r15		
    9c3e:	c1 4f 06 00 	mov.b	r15,	6(r1)	;0x0006(r1)
    9c42:	0f 41       	mov	r1,	r15	
    9c44:	3f 50 06 00 	add	#6,	r15	;#0x0006
    9c48:	b0 12 7e 9a 	call	#0x9a7e	
    9c4c:	31 50 20 00 	add	#32,	r1	;#0x0020
    9c50:	3b 41       	pop	r11		
    9c52:	30 41       	ret			

00009c54 <PppConfigureEngineP__0__setOptions>:
    9c54:	0b 12       	push	r11		
    9c56:	0a 12       	push	r10		
    9c58:	09 12       	push	r9		
    9c5a:	08 12       	push	r8		
    9c5c:	07 12       	push	r7		
    9c5e:	06 12       	push	r6		
    9c60:	0b 4f       	mov	r15,	r11	
    9c62:	07 4e       	mov	r14,	r7	
    9c64:	49 4d       	mov.b	r13,	r9	
    9c66:	48 4c       	mov.b	r12,	r8	
    9c68:	0f 93       	tst	r15		
    9c6a:	58 20       	jnz	$+178    	;abs 0x9d1c
    9c6c:	0a 3c       	jmp	$+22     	;abs 0x9c82
    9c6e:	1b 53       	inc	r11		
    9c70:	0e 43       	clr	r14		
    9c72:	48 93       	tst.b	r8		
    9c74:	03 24       	jz	$+8      	;abs 0x9c7c
    9c76:	b0 12 c4 9a 	call	#0x9ac4	
    9c7a:	05 3c       	jmp	$+12     	;abs 0x9c86
    9c7c:	b0 12 8c 9b 	call	#0x9b8c	
    9c80:	02 3c       	jmp	$+6      	;abs 0x9c86
    9c82:	3b 40 fa 17 	mov	#6138,	r11	;#0x17fa
    9c86:	6f 4b       	mov.b	@r11,	r15	
    9c88:	4f 93       	tst.b	r15		
    9c8a:	f1 23       	jnz	$-28     	;abs 0x9c6e
    9c8c:	4b 3c       	jmp	$+152    	;abs 0x9d24
    9c8e:	6f 4b       	mov.b	@r11,	r15	
    9c90:	56 4b 01 00 	mov.b	1(r11),	r6	;0x0001(r11)
    9c94:	66 83       	decd.b	r6		
    9c96:	4d 4f       	mov.b	r15,	r13	
    9c98:	7d 53       	add.b	#-1,	r13	;r3 As==11
    9c9a:	7d 92       	cmp.b	#8,	r13	;r2 As==11
    9c9c:	3d 2c       	jc	$+124    	;abs 0x9d18
    9c9e:	4d 4d       	mov.b	r13,	r13	
    9ca0:	cd 93 1a f3 	tst.b	-3302(r13)	;0xf31a(r13)
    9ca4:	39 24       	jz	$+116    	;abs 0x9d18
    9ca6:	48 93       	tst.b	r8		
    9ca8:	34 24       	jz	$+106    	;abs 0x9d12
    9caa:	79 90 03 00 	cmp.b	#3,	r9	;#0x0003
    9cae:	08 24       	jz	$+18     	;abs 0x9cc0
    9cb0:	69 92       	cmp.b	#4,	r9	;r2 As==10
    9cb2:	1d 24       	jz	$+60     	;abs 0x9cee
    9cb4:	69 93       	cmp.b	#2,	r9	;r3 As==10
    9cb6:	30 20       	jnz	$+98     	;abs 0x9d18
    9cb8:	0e 4a       	mov	r10,	r14	
    9cba:	b0 12 c4 9a 	call	#0x9ac4	
    9cbe:	2c 3c       	jmp	$+90     	;abs 0x9d18
    9cc0:	6f 93       	cmp.b	#2,	r15	;r3 As==10
    9cc2:	0d 24       	jz	$+28     	;abs 0x9cde
    9cc4:	7f 92       	cmp.b	#8,	r15	;r2 As==11
    9cc6:	21 24       	jz	$+68     	;abs 0x9d0a
    9cc8:	5f 93       	cmp.b	#1,	r15	;r3 As==01
    9cca:	26 20       	jnz	$+78     	;abs 0x9d18
    9ccc:	5f 4b 02 00 	mov.b	2(r11),	r15	;0x0002(r11)
    9cd0:	8f 10       	swpb	r15		
    9cd2:	5d 4b 03 00 	mov.b	3(r11),	r13	;0x0003(r11)
    9cd6:	0f dd       	bis	r13,	r15	
    9cd8:	82 4f 66 11 	mov	r15,	&0x1166	
    9cdc:	1d 3c       	jmp	$+60     	;abs 0x9d18
    9cde:	0f 4a       	mov	r10,	r15	
    9ce0:	b0 12 00 48 	call	#0x4800	
    9ce4:	82 4e d0 23 	mov	r14,	&0x23d0	
    9ce8:	82 4f d2 23 	mov	r15,	&0x23d2	
    9cec:	15 3c       	jmp	$+44     	;abs 0x9d18
    9cee:	6f 93       	cmp.b	#2,	r15	;r3 As==10
    9cf0:	08 24       	jz	$+18     	;abs 0x9d02
    9cf2:	7f 92       	cmp.b	#8,	r15	;r2 As==11
    9cf4:	0a 24       	jz	$+22     	;abs 0x9d0a
    9cf6:	5f 93       	cmp.b	#1,	r15	;r3 As==01
    9cf8:	0f 20       	jnz	$+32     	;abs 0x9d18
    9cfa:	f2 f0 fb ff 68 11 	and.b	#-5,	&0x1168	;#0xfffb
    9d00:	0b 3c       	jmp	$+24     	;abs 0x9d18
    9d02:	f2 f0 f7 ff 68 11 	and.b	#-9,	&0x1168	;#0xfff7
    9d08:	07 3c       	jmp	$+16     	;abs 0x9d18
    9d0a:	f2 f0 fe ff 68 11 	and.b	#-2,	&0x1168	;#0xfffe
    9d10:	03 3c       	jmp	$+8      	;abs 0x9d18
    9d12:	0e 4a       	mov	r10,	r14	
    9d14:	b0 12 8c 9b 	call	#0x9b8c	
    9d18:	4b 46       	mov.b	r6,	r11	
    9d1a:	0b 5a       	add	r10,	r11	
    9d1c:	0a 4b       	mov	r11,	r10	
    9d1e:	2a 53       	incd	r10		
    9d20:	07 9a       	cmp	r10,	r7	
    9d22:	b5 2f       	jc	$-148    	;abs 0x9c8e
    9d24:	36 41       	pop	r6		
    9d26:	37 41       	pop	r7		
    9d28:	38 41       	pop	r8		
    9d2a:	39 41       	pop	r9		
    9d2c:	3a 41       	pop	r10		
    9d2e:	3b 41       	pop	r11		
    9d30:	30 41       	ret			

00009d32 <LcpAutomatonP__0__processEventActions_>:
    9d32:	0b 12       	push	r11		
    9d34:	0a 12       	push	r10		
    9d36:	09 12       	push	r9		
    9d38:	08 12       	push	r8		
    9d3a:	07 12       	push	r7		
    9d3c:	06 12       	push	r6		
    9d3e:	05 12       	push	r5		
    9d40:	04 12       	push	r4		
    9d42:	31 50 e2 ff 	add	#-30,	r1	;#0xffe2
    9d46:	81 43 04 00 	mov	#0,	4(r1)	;r3 As==00, 0x0004(r1)
    9d4a:	56 42 65 12 	mov.b	&0x1265,r6	
    9d4e:	c2 43 65 12 	mov.b	#0,	&0x1265	;r3 As==00
    9d52:	1a 42 3c 1c 	mov	&0x1c3c,r10	
    9d56:	1b 42 3e 1c 	mov	&0x1c3e,r11	
    9d5a:	0a 93       	tst	r10		
    9d5c:	08 20       	jnz	$+18     	;abs 0x9d6e
    9d5e:	0b 93       	tst	r11		
    9d60:	06 20       	jnz	$+14     	;abs 0x9d6e
    9d62:	12 3c       	jmp	$+38     	;abs 0x9d88
    9d64:	0c 5c       	rla	r12		
    9d66:	0d 6d       	rlc	r13		
    9d68:	39 53       	add	#-1,	r9	;r3 As==11
    9d6a:	05 20       	jnz	$+12     	;abs 0x9d76
    9d6c:	0d 3c       	jmp	$+28     	;abs 0x9d88
    9d6e:	39 40 20 00 	mov	#32,	r9	;#0x0020
    9d72:	1c 43       	mov	#1,	r12	;r3 As==01
    9d74:	0d 43       	clr	r13		
    9d76:	0e 4c       	mov	r12,	r14	
    9d78:	0f 4d       	mov	r13,	r15	
    9d7a:	0e fa       	and	r10,	r14	
    9d7c:	0f fb       	and	r11,	r15	
    9d7e:	0e 93       	tst	r14		
    9d80:	05 20       	jnz	$+12     	;abs 0x9d8c
    9d82:	0f 93       	tst	r15		
    9d84:	ef 27       	jz	$-32     	;abs 0x9d64
    9d86:	02 3c       	jmp	$+6      	;abs 0x9d8c
    9d88:	0c 43       	clr	r12		
    9d8a:	0d 43       	clr	r13		
    9d8c:	0e 4a       	mov	r10,	r14	
    9d8e:	0f 4b       	mov	r11,	r15	
    9d90:	0e cc       	bic	r12,	r14	
    9d92:	0f cd       	bic	r13,	r15	
    9d94:	82 4e 3c 1c 	mov	r14,	&0x1c3c	
    9d98:	82 4f 3e 1c 	mov	r15,	&0x1c3e	
    9d9c:	82 4c fe 1b 	mov	r12,	&0x1bfe	
    9da0:	82 4d 00 1c 	mov	r13,	&0x1c00	
    9da4:	82 9c 76 1b 	cmp	r12,	&0x1b76	
    9da8:	05 20       	jnz	$+12     	;abs 0x9db4
    9daa:	82 9d 78 1b 	cmp	r13,	&0x1b78	
    9dae:	02 20       	jnz	$+6      	;abs 0x9db4
    9db0:	b2 53 72 12 	add	#-1,	&0x1272	;r3 As==11
    9db4:	3c 90 00 01 	cmp	#256,	r12	;#0x0100
    9db8:	02 20       	jnz	$+6      	;abs 0x9dbe
    9dba:	0d 93       	tst	r13		
    9dbc:	d2 24       	jz	$+422    	;abs 0x9f62
    9dbe:	1d 93       	cmp	#1,	r13	;r3 As==01
    9dc0:	2b 2c       	jc	$+88     	;abs 0x9e18
    9dc2:	3c 90 01 01 	cmp	#257,	r12	;#0x0101
    9dc6:	28 2c       	jc	$+82     	;abs 0x9e18
    9dc8:	2c 92       	cmp	#4,	r12	;r2 As==10
    9dca:	02 20       	jnz	$+6      	;abs 0x9dd0
    9dcc:	0d 93       	tst	r13		
    9dce:	ae 24       	jz	$+350    	;abs 0x9f2c
    9dd0:	1d 93       	cmp	#1,	r13	;r3 As==01
    9dd2:	0f 2c       	jc	$+32     	;abs 0x9df2
    9dd4:	3c 90 05 00 	cmp	#5,	r12	;#0x0005
    9dd8:	0c 2c       	jc	$+26     	;abs 0x9df2
    9dda:	1c 93       	cmp	#1,	r12	;r3 As==01
    9ddc:	02 20       	jnz	$+6      	;abs 0x9de2
    9dde:	0d 93       	tst	r13		
    9de0:	59 24       	jz	$+180    	;abs 0x9e94
    9de2:	2c 93       	cmp	#2,	r12	;r3 As==10
    9de4:	02 24       	jz	$+6      	;abs 0x9dea
    9de6:	30 40 cc a1 	br	#0xa1cc	
    9dea:	0d 93       	tst	r13		
    9dec:	97 24       	jz	$+304    	;abs 0x9f1c
    9dee:	30 40 cc a1 	br	#0xa1cc	
    9df2:	3c 90 20 00 	cmp	#32,	r12	;#0x0020
    9df6:	02 20       	jnz	$+6      	;abs 0x9dfc
    9df8:	0d 93       	tst	r13		
    9dfa:	a6 24       	jz	$+334    	;abs 0x9f48
    9dfc:	3c 90 80 00 	cmp	#128,	r12	;#0x0080
    9e00:	02 20       	jnz	$+6      	;abs 0x9e06
    9e02:	0d 93       	tst	r13		
    9e04:	a8 24       	jz	$+338    	;abs 0x9f56
    9e06:	3c 90 10 00 	cmp	#16,	r12	;#0x0010
    9e0a:	02 24       	jz	$+6      	;abs 0x9e10
    9e0c:	30 40 cc a1 	br	#0xa1cc	
    9e10:	0d 93       	tst	r13		
    9e12:	96 24       	jz	$+302    	;abs 0x9f40
    9e14:	30 40 cc a1 	br	#0xa1cc	
    9e18:	3c 90 00 40 	cmp	#16384,	r12	;#0x4000
    9e1c:	04 20       	jnz	$+10     	;abs 0x9e26
    9e1e:	0d 93       	tst	r13		
    9e20:	02 20       	jnz	$+6      	;abs 0x9e26
    9e22:	30 40 68 a1 	br	#0xa168	
    9e26:	1d 93       	cmp	#1,	r13	;r3 As==01
    9e28:	1c 2c       	jc	$+58     	;abs 0x9e62
    9e2a:	3c 90 01 40 	cmp	#16385,	r12	;#0x4001
    9e2e:	19 2c       	jc	$+52     	;abs 0x9e62
    9e30:	3c 90 00 04 	cmp	#1024,	r12	;#0x0400
    9e34:	04 20       	jnz	$+10     	;abs 0x9e3e
    9e36:	0d 93       	tst	r13		
    9e38:	02 20       	jnz	$+6      	;abs 0x9e3e
    9e3a:	30 40 68 a1 	br	#0xa168	
    9e3e:	3c 90 00 20 	cmp	#8192,	r12	;#0x2000
    9e42:	04 20       	jnz	$+10     	;abs 0x9e4c
    9e44:	0d 93       	tst	r13		
    9e46:	02 20       	jnz	$+6      	;abs 0x9e4c
    9e48:	30 40 0c a1 	br	#0xa10c	
    9e4c:	3c 90 00 02 	cmp	#512,	r12	;#0x0200
    9e50:	02 24       	jz	$+6      	;abs 0x9e56
    9e52:	30 40 cc a1 	br	#0xa1cc	
    9e56:	0d 93       	tst	r13		
    9e58:	02 20       	jnz	$+6      	;abs 0x9e5e
    9e5a:	30 40 68 a1 	br	#0xa168	
    9e5e:	30 40 cc a1 	br	#0xa1cc	
    9e62:	0c 93       	tst	r12		
    9e64:	05 20       	jnz	$+12     	;abs 0x9e70
    9e66:	3d 90 20 00 	cmp	#32,	r13	;#0x0020
    9e6a:	02 20       	jnz	$+6      	;abs 0x9e70
    9e6c:	30 40 9c a1 	br	#0xa19c	
    9e70:	0c 93       	tst	r12		
    9e72:	05 20       	jnz	$+12     	;abs 0x9e7e
    9e74:	3d 90 00 01 	cmp	#256,	r13	;#0x0100
    9e78:	02 20       	jnz	$+6      	;abs 0x9e7e
    9e7a:	30 40 c2 a1 	br	#0xa1c2	
    9e7e:	0c 93       	tst	r12		
    9e80:	02 24       	jz	$+6      	;abs 0x9e86
    9e82:	30 40 cc a1 	br	#0xa1cc	
    9e86:	3d 90 10 00 	cmp	#16,	r13	;#0x0010
    9e8a:	02 24       	jz	$+6      	;abs 0x9e90
    9e8c:	30 40 cc a1 	br	#0xa1cc	
    9e90:	30 40 9c a1 	br	#0xa19c	
    9e94:	e2 b2 68 11 	bit.b	#4,	&0x1168	;r2 As==10
    9e98:	0c 43       	clr	r12		
    9e9a:	0c 6c       	rlc	r12		
    9e9c:	1a 42 66 11 	mov	&0x1166,r10	
    9ea0:	f2 b2 68 11 	bit.b	#8,	&0x1168	;r2 As==11
    9ea4:	0d 43       	clr	r13		
    9ea6:	0d 6d       	rlc	r13		
    9ea8:	18 42 d0 23 	mov	&0x23d0,r8	
    9eac:	19 42 d2 23 	mov	&0x23d2,r9	
    9eb0:	d2 b3 68 11 	bit.b	#1,	&0x1168	;r3 As==01
    9eb4:	0f 43       	clr	r15		
    9eb6:	0f 6f       	rlc	r15		
    9eb8:	3b 40 fa 17 	mov	#6138,	r11	;#0x17fa
    9ebc:	10 3c       	jmp	$+34     	;abs 0x9ede
    9ebe:	1b 53       	inc	r11		
    9ec0:	6e 93       	cmp.b	#2,	r14	;r3 As==10
    9ec2:	08 24       	jz	$+18     	;abs 0x9ed4
    9ec4:	7e 92       	cmp.b	#8,	r14	;r2 As==11
    9ec6:	0a 24       	jz	$+22     	;abs 0x9edc
    9ec8:	5e 93       	cmp.b	#1,	r14	;r3 As==01
    9eca:	09 20       	jnz	$+20     	;abs 0x9ede
    9ecc:	3a 40 00 05 	mov	#1280,	r10	;#0x0500
    9ed0:	5c 43       	mov.b	#1,	r12	;r3 As==01
    9ed2:	05 3c       	jmp	$+12     	;abs 0x9ede
    9ed4:	08 43       	clr	r8		
    9ed6:	09 43       	clr	r9		
    9ed8:	5d 43       	mov.b	#1,	r13	;r3 As==01
    9eda:	01 3c       	jmp	$+4      	;abs 0x9ede
    9edc:	5f 43       	mov.b	#1,	r15	;r3 As==01
    9ede:	6e 4b       	mov.b	@r11,	r14	
    9ee0:	4e 93       	tst.b	r14		
    9ee2:	ed 23       	jnz	$-36     	;abs 0x9ebe
    9ee4:	5c f3       	and.b	#1,	r12	;r3 As==01
    9ee6:	4c 5c       	rla.b	r12		
    9ee8:	4c 5c       	rla.b	r12		
    9eea:	5b 42 68 11 	mov.b	&0x1168,r11	
    9eee:	7b f0 fb ff 	and.b	#-5,	r11	;#0xfffb
    9ef2:	4b dc       	bis.b	r12,	r11	
    9ef4:	82 4a 66 11 	mov	r10,	&0x1166	
    9ef8:	5d f3       	and.b	#1,	r13	;r3 As==01
    9efa:	4d 5d       	rla.b	r13		
    9efc:	4d 5d       	rla.b	r13		
    9efe:	4d 5d       	rla.b	r13		
    9f00:	7b f0 f6 ff 	and.b	#-10,	r11	;#0xfff6
    9f04:	82 48 d0 23 	mov	r8,	&0x23d0	
    9f08:	82 49 d2 23 	mov	r9,	&0x23d2	
    9f0c:	4e 4f       	mov.b	r15,	r14	
    9f0e:	5e f3       	and.b	#1,	r14	;r3 As==01
    9f10:	4b dd       	bis.b	r13,	r11	
    9f12:	4b de       	bis.b	r14,	r11	
    9f14:	c2 4b 68 11 	mov.b	r11,	&0x1168	
    9f18:	30 40 d4 a1 	br	#0xa1d4	
    9f1c:	0e 43       	clr	r14		
    9f1e:	1f 43       	mov	#1,	r15	;r3 As==01
    9f20:	b0 12 e0 99 	call	#0x99e0	
    9f24:	b0 12 e2 54 	call	#0x54e2	
    9f28:	30 40 d4 a1 	br	#0xa1d4	
    9f2c:	3e 40 00 40 	mov	#16384,	r14	;#0x4000
    9f30:	0f 43       	clr	r15		
    9f32:	b0 12 f0 99 	call	#0x99f0	
    9f36:	92 42 54 2a 00 18 	mov	&0x2a54,&0x1800	
    9f3c:	30 40 d4 a1 	br	#0xa1d4	
    9f40:	3e 40 00 01 	mov	#256,	r14	;#0x0100
    9f44:	0f 43       	clr	r15		
    9f46:	03 3c       	jmp	$+8      	;abs 0x9f4e
    9f48:	3e 40 00 10 	mov	#4096,	r14	;#0x1000
    9f4c:	0f 43       	clr	r15		
    9f4e:	b0 12 f0 99 	call	#0x99f0	
    9f52:	30 40 d4 a1 	br	#0xa1d4	
    9f56:	4c 43       	clr.b	r12		
    9f58:	6d 43       	mov.b	#2,	r13	;r3 As==10
    9f5a:	0e 43       	clr	r14		
    9f5c:	0f 43       	clr	r15		
    9f5e:	30 40 bc a1 	br	#0xa1bc	
    9f62:	46 93       	tst.b	r6		
    9f64:	d0 20       	jnz	$+418    	;abs 0xa106
    9f66:	5c 43       	mov.b	#1,	r12	;r3 As==01
    9f68:	6d 43       	mov.b	#2,	r13	;r3 As==10
    9f6a:	0e 43       	clr	r14		
    9f6c:	0f 43       	clr	r15		
    9f6e:	b0 12 54 9c 	call	#0x9c54	
    9f72:	0c 41       	mov	r1,	r12	
    9f74:	5d 43       	mov.b	#1,	r13	;r3 As==01
    9f76:	0e 41       	mov	r1,	r14	
    9f78:	2e 53       	incd	r14		
    9f7a:	3f 40 21 c0 	mov	#-16351,r15	;#0xc021
    9f7e:	b0 12 c6 74 	call	#0x74c6	
    9f82:	08 4f       	mov	r15,	r8	
    9f84:	0f 93       	tst	r15		
    9f86:	02 20       	jnz	$+6      	;abs 0x9f8c
    9f88:	30 40 68 a2 	br	#0xa268	
    9f8c:	df 43 00 00 	mov.b	#1,	0(r15)	;r3 As==01, 0x0000(r15)
    9f90:	5e 42 0c 25 	mov.b	&0x250c,r14	
    9f94:	5e 53       	inc.b	r14		
    9f96:	c2 4e 0c 25 	mov.b	r14,	&0x250c	
    9f9a:	cf 4e 01 00 	mov.b	r14,	1(r15)	;0x0001(r15)
    9f9e:	09 4f       	mov	r15,	r9	
    9fa0:	29 52       	add	#4,	r9	;r2 As==10
    9fa2:	37 40 fa 17 	mov	#6138,	r7	;#0x17fa
    9fa6:	7c 3c       	jmp	$+250    	;abs 0xa0a0
    9fa8:	17 53       	inc	r7		
    9faa:	6b 93       	cmp.b	#2,	r11	;r3 As==10
    9fac:	21 24       	jz	$+68     	;abs 0x9ff0
    9fae:	7b 92       	cmp.b	#8,	r11	;r2 As==11
    9fb0:	22 24       	jz	$+70     	;abs 0x9ff6
    9fb2:	5b 93       	cmp.b	#1,	r11	;r3 As==01
    9fb4:	75 20       	jnz	$+236    	;abs 0xa0a0
    9fb6:	b0 12 74 4a 	call	#0x4a74	
    9fba:	81 4c 0c 00 	mov	r12,	12(r1)	;0x000c(r1)
    9fbe:	81 4d 0e 00 	mov	r13,	14(r1)	;0x000e(r1)
    9fc2:	81 4e 10 00 	mov	r14,	16(r1)	;0x0010(r1)
    9fc6:	3d 40 06 00 	mov	#6,	r13	;#0x0006
    9fca:	0e 41       	mov	r1,	r14	
    9fcc:	3e 50 0c 00 	add	#12,	r14	;#0x000c
    9fd0:	0f 41       	mov	r1,	r15	
    9fd2:	3f 50 06 00 	add	#6,	r15	;#0x0006
    9fd6:	b0 12 a0 ef 	call	#0xefa0	
    9fda:	e2 b2 68 11 	bit.b	#4,	&0x1168	;r2 As==10
    9fde:	05 24       	jz	$+12     	;abs 0x9fea
    9fe0:	1f 43       	mov	#1,	r15	;r3 As==01
    9fe2:	b1 90 dc 05 0a 00 	cmp	#1500,	10(r1)	;#0x05dc, 0x000a(r1)
    9fe8:	01 20       	jnz	$+4      	;abs 0x9fec
    9fea:	0f 43       	clr	r15		
    9fec:	4f 4f       	mov.b	r15,	r15	
    9fee:	07 3c       	jmp	$+16     	;abs 0x9ffe
    9ff0:	f2 b2 68 11 	bit.b	#8,	&0x1168	;r2 As==11
    9ff4:	02 3c       	jmp	$+6      	;abs 0x9ffa
    9ff6:	d2 b3 68 11 	bit.b	#1,	&0x1168	;r3 As==01
    9ffa:	0f 43       	clr	r15		
    9ffc:	0f 6f       	rlc	r15		
    9ffe:	4f 93       	tst.b	r15		
    a000:	4f 24       	jz	$+160    	;abs 0xa0a0
    a002:	c9 4b 00 00 	mov.b	r11,	0(r9)	;0x0000(r9)
    a006:	1e 41 02 00 	mov	2(r1),	r14	;0x0002(r1)
    a00a:	6b 93       	cmp.b	#2,	r11	;r3 As==10
    a00c:	11 24       	jz	$+36     	;abs 0xa030
    a00e:	7b 92       	cmp.b	#8,	r11	;r2 As==11
    a010:	2a 24       	jz	$+86     	;abs 0xa066
    a012:	5b 93       	cmp.b	#1,	r11	;r3 As==01
    a014:	45 20       	jnz	$+140    	;abs 0xa0a0
    a016:	0d 49       	mov	r9,	r13	
    a018:	2d 52       	add	#4,	r13	;r2 As==10
    a01a:	0e 9d       	cmp	r13,	r14	
    a01c:	41 28       	jnc	$+132    	;abs 0xa0a0
    a01e:	1e 42 66 11 	mov	&0x1166,r14	
    a022:	0f 4e       	mov	r14,	r15	
    a024:	8f 10       	swpb	r15		
    a026:	c9 4f 02 00 	mov.b	r15,	2(r9)	;0x0002(r9)
    a02a:	c9 4e 03 00 	mov.b	r14,	3(r9)	;0x0003(r9)
    a02e:	1d 3c       	jmp	$+60     	;abs 0xa06a
    a030:	0f 49       	mov	r9,	r15	
    a032:	3f 50 03 00 	add	#3,	r15	;#0x0003
    a036:	0e 9f       	cmp	r15,	r14	
    a038:	33 28       	jnc	$+104    	;abs 0xa0a0
    a03a:	1e 42 d0 23 	mov	&0x23d0,r14	
    a03e:	1f 42 d2 23 	mov	&0x23d2,r15	
    a042:	c9 4e 05 00 	mov.b	r14,	5(r9)	;0x0005(r9)
    a046:	0d 4f       	mov	r15,	r13	
    a048:	8e 10       	swpb	r14		
    a04a:	8d 10       	swpb	r13		
    a04c:	4e ed       	xor.b	r13,	r14	
    a04e:	0e ed       	xor	r13,	r14	
    a050:	c9 4e 04 00 	mov.b	r14,	4(r9)	;0x0004(r9)
    a054:	c9 4f 03 00 	mov.b	r15,	3(r9)	;0x0003(r9)
    a058:	8f 10       	swpb	r15		
    a05a:	c9 4f 02 00 	mov.b	r15,	2(r9)	;0x0002(r9)
    a05e:	0d 49       	mov	r9,	r13	
    a060:	3d 50 06 00 	add	#6,	r13	;#0x0006
    a064:	02 3c       	jmp	$+6      	;abs 0xa06a
    a066:	0d 49       	mov	r9,	r13	
    a068:	2d 53       	incd	r13		
    a06a:	0d 93       	tst	r13		
    a06c:	19 24       	jz	$+52     	;abs 0xa0a0
    a06e:	04 4d       	mov	r13,	r4	
    a070:	0f 4d       	mov	r13,	r15	
    a072:	8f 10       	swpb	r15		
    a074:	8f 11       	sxt	r15		
    a076:	8f 10       	swpb	r15		
    a078:	8f 11       	sxt	r15		
    a07a:	05 4f       	mov	r15,	r5	
    a07c:	81 49 12 00 	mov	r9,	18(r1)	;0x0012(r1)
    a080:	0f 49       	mov	r9,	r15	
    a082:	8f 10       	swpb	r15		
    a084:	8f 11       	sxt	r15		
    a086:	8f 10       	swpb	r15		
    a088:	8f 11       	sxt	r15		
    a08a:	81 4f 14 00 	mov	r15,	20(r1)	;0x0014(r1)
    a08e:	0e 44       	mov	r4,	r14	
    a090:	0f 45       	mov	r5,	r15	
    a092:	1e 81 12 00 	sub	18(r1),	r14	;0x0012(r1)
    a096:	1f 71 14 00 	subc	20(r1),	r15	;0x0014(r1)
    a09a:	c9 4e 01 00 	mov.b	r14,	1(r9)	;0x0001(r9)
    a09e:	09 4d       	mov	r13,	r9	
    a0a0:	6b 47       	mov.b	@r7,	r11	
    a0a2:	4b 93       	tst.b	r11		
    a0a4:	81 23       	jnz	$-252    	;abs 0x9fa8
    a0a6:	81 49 16 00 	mov	r9,	22(r1)	;0x0016(r1)
    a0aa:	0d 49       	mov	r9,	r13	
    a0ac:	8d 10       	swpb	r13		
    a0ae:	8d 11       	sxt	r13		
    a0b0:	8d 10       	swpb	r13		
    a0b2:	8d 11       	sxt	r13		
    a0b4:	81 4d 18 00 	mov	r13,	24(r1)	;0x0018(r1)
    a0b8:	81 48 1a 00 	mov	r8,	26(r1)	;0x001a(r1)
    a0bc:	0d 48       	mov	r8,	r13	
    a0be:	8d 10       	swpb	r13		
    a0c0:	8d 11       	sxt	r13		
    a0c2:	8d 10       	swpb	r13		
    a0c4:	8d 11       	sxt	r13		
    a0c6:	81 4d 1c 00 	mov	r13,	28(r1)	;0x001c(r1)
    a0ca:	1c 41 16 00 	mov	22(r1),	r12	;0x0016(r1)
    a0ce:	1d 41 18 00 	mov	24(r1),	r13	;0x0018(r1)
    a0d2:	1c 81 1a 00 	sub	26(r1),	r12	;0x001a(r1)
    a0d6:	1d 71 1c 00 	subc	28(r1),	r13	;0x001c(r1)
    a0da:	0d 4c       	mov	r12,	r13	
    a0dc:	8c 10       	swpb	r12		
    a0de:	c8 4c 02 00 	mov.b	r12,	2(r8)	;0x0002(r8)
    a0e2:	c8 4d 03 00 	mov.b	r13,	3(r8)	;0x0003(r8)
    a0e6:	0d 41       	mov	r1,	r13	
    a0e8:	2d 52       	add	#4,	r13	;r2 As==10
    a0ea:	0e 49       	mov	r9,	r14	
    a0ec:	2f 41       	mov	@r1,	r15	
    a0ee:	b0 12 4e 95 	call	#0x954e	
    a0f2:	46 4f       	mov.b	r15,	r6	
    a0f4:	4f 93       	tst.b	r15		
    a0f6:	07 20       	jnz	$+16     	;abs 0xa106
    a0f8:	1e 41 04 00 	mov	4(r1),	r14	;0x0004(r1)
    a0fc:	0e 93       	tst	r14		
    a0fe:	03 24       	jz	$+8      	;abs 0xa106
    a100:	82 4e 00 18 	mov	r14,	&0x1800	
    a104:	2e 3c       	jmp	$+94     	;abs 0xa162
    a106:	b0 12 5c 93 	call	#0x935c	
    a10a:	64 3c       	jmp	$+202    	;abs 0xa1d4
    a10c:	46 93       	tst.b	r6		
    a10e:	62 20       	jnz	$+198    	;abs 0xa1d4
    a110:	0c 41       	mov	r1,	r12	
    a112:	2c 53       	incd	r12		
    a114:	5d 43       	mov.b	#1,	r13	;r3 As==01
    a116:	0e 41       	mov	r1,	r14	
    a118:	3f 40 21 c0 	mov	#-16351,r15	;#0xc021
    a11c:	b0 12 c6 74 	call	#0x74c6	
    a120:	0f 93       	tst	r15		
    a122:	a5 24       	jz	$+332    	;abs 0xa26e
    a124:	ff 40 06 00 00 00 	mov.b	#6,	0(r15)	;#0x0006, 0x0000(r15)
    a12a:	5e 42 f4 17 	mov.b	&0x17f4,r14	
    a12e:	5e 53       	inc.b	r14		
    a130:	c2 4e f4 17 	mov.b	r14,	&0x17f4	
    a134:	cf 4e 01 00 	mov.b	r14,	1(r15)	;0x0001(r15)
    a138:	cf 43 02 00 	mov.b	#0,	2(r15)	;r3 As==00, 0x0002(r15)
    a13c:	ef 43 03 00 	mov.b	#2,	3(r15)	;r3 As==10, 0x0003(r15)
    a140:	0d 41       	mov	r1,	r13	
    a142:	2d 52       	add	#4,	r13	;r2 As==10
    a144:	0e 4f       	mov	r15,	r14	
    a146:	2e 52       	add	#4,	r14	;r2 As==10
    a148:	1f 41 02 00 	mov	2(r1),	r15	;0x0002(r1)
    a14c:	b0 12 4e 95 	call	#0x954e	
    a150:	46 4f       	mov.b	r15,	r6	
    a152:	4f 93       	tst.b	r15		
    a154:	3f 20       	jnz	$+128    	;abs 0xa1d4
    a156:	1e 41 04 00 	mov	4(r1),	r14	;0x0004(r1)
    a15a:	0e 93       	tst	r14		
    a15c:	02 20       	jnz	$+6      	;abs 0xa162
    a15e:	30 40 52 9d 	br	#0x9d52	
    a162:	82 4e e0 1b 	mov	r14,	&0x1be0	
    a166:	40 3c       	jmp	$+130    	;abs 0xa1e8
    a168:	46 93       	tst.b	r6		
    a16a:	0c 20       	jnz	$+26     	;abs 0xa184
    a16c:	1f 42 54 2a 	mov	&0x2a54,r15	
    a170:	b0 12 1e 6c 	call	#0x6c1e	
    a174:	46 4f       	mov.b	r15,	r6	
    a176:	4f 93       	tst.b	r15		
    a178:	05 20       	jnz	$+12     	;abs 0xa184
    a17a:	92 42 54 2a e0 1b 	mov	&0x2a54,&0x1be0	
    a180:	5e 43       	mov.b	#1,	r14	;r3 As==01
    a182:	09 3c       	jmp	$+20     	;abs 0xa196
    a184:	82 43 00 18 	mov	#0,	&0x1800	;r3 As==00
    a188:	82 43 e0 1b 	mov	#0,	&0x1be0	;r3 As==00
    a18c:	1f 42 54 2a 	mov	&0x2a54,r15	
    a190:	b0 12 fa 94 	call	#0x94fa	
    a194:	4e 43       	clr.b	r14		
    a196:	82 43 54 2a 	mov	#0,	&0x2a54	;r3 As==00
    a19a:	1d 3c       	jmp	$+60     	;abs 0xa1d6
    a19c:	1e 42 68 12 	mov	&0x1268,r14	
    a1a0:	1b 42 8a 1c 	mov	&0x1c8a,r11	
    a1a4:	0c 93       	tst	r12		
    a1a6:	07 20       	jnz	$+16     	;abs 0xa1b6
    a1a8:	3d 90 10 00 	cmp	#16,	r13	;#0x0010
    a1ac:	04 20       	jnz	$+10     	;abs 0xa1b6
    a1ae:	5c 43       	mov.b	#1,	r12	;r3 As==01
    a1b0:	5d 42 f2 17 	mov.b	&0x17f2,r13	
    a1b4:	02 3c       	jmp	$+6      	;abs 0xa1ba
    a1b6:	4c 43       	clr.b	r12		
    a1b8:	6d 43       	mov.b	#2,	r13	;r3 As==10
    a1ba:	0f 4b       	mov	r11,	r15	
    a1bc:	b0 12 54 9c 	call	#0x9c54	
    a1c0:	09 3c       	jmp	$+20     	;abs 0xa1d4
    a1c2:	0e 43       	clr	r14		
    a1c4:	0f 43       	clr	r15		
    a1c6:	b0 12 e0 99 	call	#0x99e0	
    a1ca:	04 3c       	jmp	$+10     	;abs 0xa1d4
    a1cc:	0c 93       	tst	r12		
    a1ce:	02 20       	jnz	$+6      	;abs 0xa1d4
    a1d0:	0d 93       	tst	r13		
    a1d2:	0e 24       	jz	$+30     	;abs 0xa1f0
    a1d4:	4e 43       	clr.b	r14		
    a1d6:	46 93       	tst.b	r6		
    a1d8:	05 20       	jnz	$+12     	;abs 0xa1e4
    a1da:	4e 93       	tst.b	r14		
    a1dc:	02 20       	jnz	$+6      	;abs 0xa1e2
    a1de:	30 40 52 9d 	br	#0x9d52	
    a1e2:	02 3c       	jmp	$+6      	;abs 0xa1e8
    a1e4:	4e 93       	tst.b	r14		
    a1e6:	0a 24       	jz	$+22     	;abs 0xa1fc
    a1e8:	f2 40 0f 00 36 1c 	mov.b	#15,	&0x1c36	;#0x000f
    a1ee:	30 3c       	jmp	$+98     	;abs 0xa250
    a1f0:	46 93       	tst.b	r6		
    a1f2:	04 20       	jnz	$+10     	;abs 0xa1fc
    a1f4:	d2 42 1d 12 36 1c 	mov.b	&0x121d,&0x1c36	
    a1fa:	03 3c       	jmp	$+8      	;abs 0xa202
    a1fc:	d2 42 1c 12 36 1c 	mov.b	&0x121c,&0x1c36	
    a202:	1e 43       	mov	#1,	r14	;r3 As==01
    a204:	5d 42 36 1c 	mov.b	&0x1c36,r13	
    a208:	7d f0 0f 00 	and.b	#15,	r13	;#0x000f
    a20c:	4d 93       	tst.b	r13		
    a20e:	03 24       	jz	$+8      	;abs 0xa216
    a210:	0e 5e       	rla	r14		
    a212:	7d 53       	add.b	#-1,	r13	;r3 As==11
    a214:	fb 3f       	jmp	$-8      	;abs 0xa20c
    a216:	5b 43       	mov.b	#1,	r11	;r3 As==01
    a218:	3e b0 f0 01 	bit	#496,	r14	;#0x01f0
    a21c:	02 24       	jz	$+6      	;abs 0xa222
    a21e:	4b 43       	clr.b	r11		
    a220:	02 3c       	jmp	$+6      	;abs 0xa226
    a222:	82 43 00 18 	mov	#0,	&0x1800	;r3 As==00
    a226:	82 43 68 12 	mov	#0,	&0x1268	;r3 As==00
    a22a:	82 43 8a 1c 	mov	#0,	&0x1c8a	;r3 As==00
    a22e:	1e 42 54 2a 	mov	&0x2a54,r14	
    a232:	0e 93       	tst	r14		
    a234:	03 24       	jz	$+8      	;abs 0xa23c
    a236:	0f 4e       	mov	r14,	r15	
    a238:	b0 12 fa 94 	call	#0x94fa	
    a23c:	82 43 54 2a 	mov	#0,	&0x2a54	;r3 As==00
    a240:	4b 93       	tst.b	r11		
    a242:	06 24       	jz	$+14     	;abs 0xa250
    a244:	b0 12 04 6a 	call	#0x6a04	
    a248:	c2 43 a4 1c 	mov.b	#0,	&0x1ca4	;r3 As==00
    a24c:	b0 12 16 6a 	call	#0x6a16	
    a250:	4f 46       	mov.b	r6,	r15	
    a252:	31 50 1e 00 	add	#30,	r1	;#0x001e
    a256:	34 41       	pop	r4		
    a258:	35 41       	pop	r5		
    a25a:	36 41       	pop	r6		
    a25c:	37 41       	pop	r7		
    a25e:	38 41       	pop	r8		
    a260:	39 41       	pop	r9		
    a262:	3a 41       	pop	r10		
    a264:	3b 41       	pop	r11		
    a266:	30 41       	ret			
    a268:	76 40 05 00 	mov.b	#5,	r6	;#0x0005
    a26c:	4c 3f       	jmp	$-358    	;abs 0xa106
    a26e:	76 40 05 00 	mov.b	#5,	r6	;#0x0005
    a272:	b0 3f       	jmp	$-158    	;abs 0xa1d4

0000a274 <LcpAutomatonP__0__processEvent_>:
    a274:	b0 12 9e 50 	call	#0x509e	
    a278:	7f 90 07 00 	cmp.b	#7,	r15	;#0x0007
    a27c:	02 24       	jz	$+6      	;abs 0xa282
    a27e:	b0 12 32 9d 	call	#0x9d32	
    a282:	30 41       	ret			

0000a284 <IPForwardingEngineP__do_send>:
    a284:	0b 12       	push	r11		
    a286:	0a 12       	push	r10		
    a288:	09 12       	push	r9		
    a28a:	08 12       	push	r8		
    a28c:	07 12       	push	r7		
    a28e:	06 12       	push	r6		
    a290:	05 12       	push	r5		
    a292:	04 12       	push	r4		
    a294:	21 82       	sub	#4,	r1	;r2 As==10
    a296:	48 4f       	mov.b	r15,	r8	
    a298:	0a 4e       	mov	r14,	r10	
    a29a:	05 4d       	mov	r13,	r5	
    a29c:	5e 42 ad 12 	mov.b	&0x12ad,r14	
    a2a0:	4e 93       	tst.b	r14		
    a2a2:	1d 24       	jz	$+60     	;abs 0xa2de
    a2a4:	5f 42 50 2a 	mov.b	&0x2a50,r15	
    a2a8:	4c 4f       	mov.b	r15,	r12	
    a2aa:	0c 5c       	rla	r12		
    a2ac:	3c 50 16 12 	add	#4630,	r12	;#0x1216
    a2b0:	27 4c       	mov	@r12,	r7	
    a2b2:	8c 43 00 00 	mov	#0,	0(r12)	;r3 As==00, 0x0000(r12)
    a2b6:	7e 53       	add.b	#-1,	r14	;r3 As==11
    a2b8:	c2 4e ad 12 	mov.b	r14,	&0x12ad	
    a2bc:	5f 53       	inc.b	r15		
    a2be:	c2 4f 50 2a 	mov.b	r15,	&0x2a50	
    a2c2:	7f 90 03 00 	cmp.b	#3,	r15	;#0x0003
    a2c6:	02 20       	jnz	$+6      	;abs 0xa2cc
    a2c8:	c2 43 50 2a 	mov.b	#0,	&0x2a50	;r3 As==00
    a2cc:	07 93       	tst	r7		
    a2ce:	08 24       	jz	$+18     	;abs 0xa2e0
    a2d0:	3d 42       	mov	#8,	r13	;r2 As==11
    a2d2:	0e 4a       	mov	r10,	r14	
    a2d4:	3e 52       	add	#8,	r14	;r2 As==11
    a2d6:	0f 47       	mov	r7,	r15	
    a2d8:	b0 12 a0 ef 	call	#0xefa0	
    a2dc:	01 3c       	jmp	$+4      	;abs 0xa2e0
    a2de:	07 43       	clr	r7		
    a2e0:	58 93       	cmp.b	#1,	r8	;r3 As==01
    a2e2:	03 24       	jz	$+8      	;abs 0xa2ea
    a2e4:	68 93       	cmp.b	#2,	r8	;r3 As==10
    a2e6:	76 20       	jnz	$+238    	;abs 0xa3d4
    a2e8:	07 3c       	jmp	$+16     	;abs 0xa2f8
    a2ea:	0d 47       	mov	r7,	r13	
    a2ec:	0e 45       	mov	r5,	r14	
    a2ee:	0f 4a       	mov	r10,	r15	
    a2f0:	b0 12 0c 7d 	call	#0x7d0c	
    a2f4:	4a 4f       	mov.b	r15,	r10	
    a2f6:	62 3c       	jmp	$+198    	;abs 0xa3bc
    a2f8:	1f 45 02 00 	mov	2(r5),	r15	;0x0002(r5)
    a2fc:	b0 12 6c e7 	call	#0xe76c	
    a300:	04 4f       	mov	r15,	r4	
    a302:	c2 93 ac 12 	tst.b	&0x12ac	
    a306:	58 24       	jz	$+178    	;abs 0xa3b8
    a308:	0c 41       	mov	r1,	r12	
    a30a:	2c 53       	incd	r12		
    a30c:	4d 43       	clr.b	r13		
    a30e:	0e 41       	mov	r1,	r14	
    a310:	3f 40 57 00 	mov	#87,	r15	;#0x0057
    a314:	b0 12 c6 74 	call	#0x74c6	
    a318:	06 4f       	mov	r15,	r6	
    a31a:	0f 93       	tst	r15		
    a31c:	1d 24       	jz	$+60     	;abs 0xa358
    a31e:	34 50 28 00 	add	#40,	r4	;#0x0028
    a322:	2a 41       	mov	@r1,	r10	
    a324:	0c 4a       	mov	r10,	r12	
    a326:	8c 10       	swpb	r12		
    a328:	8c 11       	sxt	r12		
    a32a:	8c 10       	swpb	r12		
    a32c:	8c 11       	sxt	r12		
    a32e:	0b 4c       	mov	r12,	r11	
    a330:	08 4f       	mov	r15,	r8	
    a332:	0c 4f       	mov	r15,	r12	
    a334:	8c 10       	swpb	r12		
    a336:	8c 11       	sxt	r12		
    a338:	8c 10       	swpb	r12		
    a33a:	8c 11       	sxt	r12		
    a33c:	09 4c       	mov	r12,	r9	
    a33e:	0a 88       	sub	r8,	r10	
    a340:	0b 79       	subc	r9,	r11	
    a342:	0b 93       	tst	r11		
    a344:	05 38       	jl	$+12     	;abs 0xa350
    a346:	0f 43       	clr	r15		
    a348:	0f 9b       	cmp	r11,	r15	
    a34a:	10 38       	jl	$+34     	;abs 0xa36c
    a34c:	0a 94       	cmp	r4,	r10	
    a34e:	0e 2c       	jc	$+30     	;abs 0xa36c
    a350:	1f 41 02 00 	mov	2(r1),	r15	;0x0002(r1)
    a354:	b0 12 fa 94 	call	#0x94fa	
    a358:	b0 12 04 6a 	call	#0x6a04	
    a35c:	f2 e0 40 00 31 00 	xor.b	#64,	&0x0031	;#0x0040
    a362:	b0 12 16 6a 	call	#0x6a16	
    a366:	7a 40 0a 00 	mov.b	#10,	r10	;#0x000a
    a36a:	2a 3c       	jmp	$+86     	;abs 0xa3c0
    a36c:	3d 40 28 00 	mov	#40,	r13	;#0x0028
    a370:	0e 45       	mov	r5,	r14	
    a372:	2e 52       	add	#4,	r14	;r2 As==10
    a374:	0f 46       	mov	r6,	r15	
    a376:	b0 12 a0 ef 	call	#0xefa0	
    a37a:	0c 46       	mov	r6,	r12	
    a37c:	3c 50 28 00 	add	#40,	r12	;#0x0028
    a380:	0d 44       	mov	r4,	r13	
    a382:	0e 43       	clr	r14		
    a384:	1f 45 02 00 	mov	2(r5),	r15	;0x0002(r5)
    a388:	b0 12 ec e6 	call	#0xe6ec	
    a38c:	0e 46       	mov	r6,	r14	
    a38e:	0e 54       	add	r4,	r14	
    a390:	1f 41 02 00 	mov	2(r1),	r15	;0x0002(r1)
    a394:	b0 12 de 93 	call	#0x93de	
    a398:	4a 4f       	mov.b	r15,	r10	
    a39a:	4f 93       	tst.b	r15		
    a39c:	05 20       	jnz	$+12     	;abs 0xa3a8
    a39e:	1f 41 02 00 	mov	2(r1),	r15	;0x0002(r1)
    a3a2:	b0 12 1e 6c 	call	#0x6c1e	
    a3a6:	4a 4f       	mov.b	r15,	r10	
    a3a8:	b0 12 04 6a 	call	#0x6a04	
    a3ac:	f2 e0 20 00 31 00 	xor.b	#32,	&0x0031	;#0x0020
    a3b2:	b0 12 16 6a 	call	#0x6a16	
    a3b6:	02 3c       	jmp	$+6      	;abs 0xa3bc
    a3b8:	6a 42       	mov.b	#4,	r10	;r2 As==10
    a3ba:	02 3c       	jmp	$+6      	;abs 0xa3c0
    a3bc:	4a 93       	tst.b	r10		
    a3be:	0b 24       	jz	$+24     	;abs 0xa3d6
    a3c0:	07 93       	tst	r7		
    a3c2:	09 24       	jz	$+20     	;abs 0xa3d6
    a3c4:	f2 90 03 00 ad 12 	cmp.b	#3,	&0x12ad	;#0x0003
    a3ca:	05 2c       	jc	$+12     	;abs 0xa3d6
    a3cc:	0f 47       	mov	r7,	r15	
    a3ce:	b0 12 58 5a 	call	#0x5a58	
    a3d2:	01 3c       	jmp	$+4      	;abs 0xa3d6
    a3d4:	4a 43       	clr.b	r10		
    a3d6:	4f 4a       	mov.b	r10,	r15	
    a3d8:	21 52       	add	#4,	r1	;r2 As==10
    a3da:	34 41       	pop	r4		
    a3dc:	35 41       	pop	r5		
    a3de:	36 41       	pop	r6		
    a3e0:	37 41       	pop	r7		
    a3e2:	38 41       	pop	r8		
    a3e4:	39 41       	pop	r9		
    a3e6:	3a 41       	pop	r10		
    a3e8:	3b 41       	pop	r11		
    a3ea:	30 41       	ret			

0000a3ec <ICMPCoreP__ICMP_IP__send.isra.312>:
    a3ec:	0b 12       	push	r11		
    a3ee:	0a 12       	push	r10		
    a3f0:	09 12       	push	r9		
    a3f2:	08 12       	push	r8		
    a3f4:	0b 4f       	mov	r15,	r11	
    a3f6:	1e 4f 02 00 	mov	2(r15),	r14	;0x0002(r15)
    a3fa:	2a 4e       	mov	@r14,	r10	
    a3fc:	ae 92 02 00 	cmp	#4,	2(r14)	;r2 As==10, 0x0002(r14)
    a400:	1d 28       	jnc	$+60     	;abs 0xa43c
    a402:	ff 90 3a 00 0a 00 	cmp.b	#58,	10(r15)	;#0x003a, 0x000a(r15)
    a408:	19 20       	jnz	$+52     	;abs 0xa43c
    a40a:	8a 43 02 00 	mov	#0,	2(r10)	;r3 As==00, 0x0002(r10)
    a40e:	09 4f       	mov	r15,	r9	
    a410:	29 52       	add	#4,	r9	;r2 As==10
    a412:	7d 40 3a 00 	mov.b	#58,	r13	;#0x003a
    a416:	0f 49       	mov	r9,	r15	
    a418:	b0 12 6e e8 	call	#0xe86e	
    a41c:	08 4f       	mov	r15,	r8	
    a41e:	7d 40 3a 00 	mov.b	#58,	r13	;#0x003a
    a422:	1e 4b 02 00 	mov	2(r11),	r14	;0x0002(r11)
    a426:	0f 49       	mov	r9,	r15	
    a428:	b0 12 6e e8 	call	#0xe86e	
    a42c:	0e 4f       	mov	r15,	r14	
    a42e:	8e 10       	swpb	r14		
    a430:	4e 4e       	mov.b	r14,	r14	
    a432:	4f 48       	mov.b	r8,	r15	
    a434:	8f 10       	swpb	r15		
    a436:	0e df       	bis	r15,	r14	
    a438:	8a 4e 02 00 	mov	r14,	2(r10)	;0x0002(r10)
    a43c:	fb 40 60 00 04 00 	mov.b	#96,	4(r11)	;#0x0060, 0x0004(r11)
    a442:	fb 40 10 00 0b 00 	mov.b	#16,	11(r11)	;#0x0010, 0x000b(r11)
    a448:	09 4b       	mov	r11,	r9	
    a44a:	39 50 1c 00 	add	#28,	r9	;#0x001c
    a44e:	3e 40 80 00 	mov	#128,	r14	;#0x0080
    a452:	0f 49       	mov	r9,	r15	
    a454:	b0 12 2a 56 	call	#0x562a	
    a458:	0a 4f       	mov	r15,	r10	
    a45a:	0f 49       	mov	r9,	r15	
    a45c:	b0 12 ba 7b 	call	#0x7bba	
    a460:	4f 93       	tst.b	r15		
    a462:	03 24       	jz	$+8      	;abs 0xa46a
    a464:	fb 93 1c 00 	cmp.b	#-1,	28(r11)	;r3 As==11, 0x001c(r11)
    a468:	2d 20       	jnz	$+92     	;abs 0xa4c4
    a46a:	bb 90 fe 80 1c 00 	cmp	#-32514,28(r11)	;#0x80fe, 0x001c(r11)
    a470:	0a 24       	jz	$+22     	;abs 0xa486
    a472:	fb 93 1c 00 	cmp.b	#-1,	28(r11)	;r3 As==11, 0x001c(r11)
    a476:	1b 20       	jnz	$+56     	;abs 0xa4ae
    a478:	5f 4b 1d 00 	mov.b	29(r11),r15	;0x001d(r11)
    a47c:	3f f0 0f 00 	and	#15,	r15	;#0x000f
    a480:	3f 90 03 00 	cmp	#3,	r15	;#0x0003
    a484:	14 34       	jge	$+42     	;abs 0xa4ae
    a486:	0a 93       	tst	r10		
    a488:	03 24       	jz	$+8      	;abs 0xa490
    a48a:	ca 93 14 00 	tst.b	20(r10)	;0x0014(r10)
    a48e:	11 38       	jl	$+36     	;abs 0xa4b2
    a490:	db 43 0b 00 	mov.b	#1,	11(r11)	;r3 As==01, 0x000b(r11)
    a494:	fb 93 1c 00 	cmp.b	#-1,	28(r11)	;r3 As==11, 0x001c(r11)
    a498:	04 24       	jz	$+10     	;abs 0xa4a2
    a49a:	0d 4b       	mov	r11,	r13	
    a49c:	0e 49       	mov	r9,	r14	
    a49e:	5f 43       	mov.b	#1,	r15	;r3 As==01
    a4a0:	0e 3c       	jmp	$+30     	;abs 0xa4be
    a4a2:	0d 43       	clr	r13		
    a4a4:	0e 4b       	mov	r11,	r14	
    a4a6:	0f 49       	mov	r9,	r15	
    a4a8:	b0 12 0c 7d 	call	#0x7d0c	
    a4ac:	0c 3c       	jmp	$+26     	;abs 0xa4c6
    a4ae:	0a 93       	tst	r10		
    a4b0:	09 24       	jz	$+20     	;abs 0xa4c4
    a4b2:	0d 4b       	mov	r11,	r13	
    a4b4:	0e 4a       	mov	r10,	r14	
    a4b6:	3e 50 16 00 	add	#22,	r14	;#0x0016
    a4ba:	5f 4a 26 00 	mov.b	38(r10),r15	;0x0026(r10)
    a4be:	b0 12 84 a2 	call	#0xa284	
    a4c2:	01 3c       	jmp	$+4      	;abs 0xa4c6
    a4c4:	5f 43       	mov.b	#1,	r15	;r3 As==01
    a4c6:	38 41       	pop	r8		
    a4c8:	39 41       	pop	r9		
    a4ca:	3a 41       	pop	r10		
    a4cc:	3b 41       	pop	r11		
    a4ce:	30 41       	ret			

0000a4d0 <IPForwardingEngineP__IPForward__recv.isra.326>:
    a4d0:	0b 12       	push	r11		
    a4d2:	0a 12       	push	r10		
    a4d4:	09 12       	push	r9		
    a4d6:	08 12       	push	r8		
    a4d8:	07 12       	push	r7		
    a4da:	06 12       	push	r6		
    a4dc:	05 12       	push	r5		
    a4de:	04 12       	push	r4		
    a4e0:	31 50 e8 fd 	add	#-536,	r1	;#0xfde8
    a4e4:	49 4f       	mov.b	r15,	r9	
    a4e6:	06 4e       	mov	r14,	r6	
    a4e8:	0b 4d       	mov	r13,	r11	
    a4ea:	5d 4e 04 00 	mov.b	4(r14),	r13	;0x0004(r14)
    a4ee:	5a 4e 05 00 	mov.b	5(r14),	r10	;0x0005(r14)
    a4f2:	8a 10       	swpb	r10		
    a4f4:	0a dd       	bis	r13,	r10	
    a4f6:	0c 4a       	mov	r10,	r12	
    a4f8:	8c 10       	swpb	r12		
    a4fa:	4c 4c       	mov.b	r12,	r12	
    a4fc:	4a 4a       	mov.b	r10,	r10	
    a4fe:	8a 10       	swpb	r10		
    a500:	0a dc       	bis	r12,	r10	
    a502:	81 4b 14 00 	mov	r11,	20(r1)	;0x0014(r1)
    a506:	81 4a 16 00 	mov	r10,	22(r1)	;0x0016(r1)
    a50a:	81 43 18 00 	mov	#0,	24(r1)	;r3 As==00, 0x0018(r1)
    a50e:	3e 50 18 00 	add	#24,	r14	;#0x0018
    a512:	81 4e 16 02 	mov	r14,	534(r1)	;0x0216(r1)
    a516:	0f 4e       	mov	r14,	r15	
    a518:	b0 12 ba 7b 	call	#0x7bba	
    a51c:	5c 46 06 00 	mov.b	6(r6),	r12	;0x0006(r6)
    a520:	4f 93       	tst.b	r15		
    a522:	02 20       	jnz	$+6      	;abs 0xa528
    a524:	30 40 b8 b2 	br	#0xb2b8	
    a528:	81 4b 0e 00 	mov	r11,	14(r1)	;0x000e(r1)
    a52c:	81 4a 10 00 	mov	r10,	16(r1)	;0x0010(r1)
    a530:	81 43 12 00 	mov	#0,	18(r1)	;r3 As==00, 0x0012(r1)
    a534:	f1 40 2c 00 01 00 	mov.b	#44,	1(r1)	;#0x002c, 0x0001(r1)
    a53a:	0d 41       	mov	r1,	r13	
    a53c:	1d 53       	inc	r13		
    a53e:	4e 4c       	mov.b	r12,	r14	
    a540:	0f 41       	mov	r1,	r15	
    a542:	3f 50 0e 00 	add	#14,	r15	;#0x000e
    a546:	b0 12 e2 56 	call	#0x56e2	
    a54a:	0e 4f       	mov	r15,	r14	
    a54c:	0f 93       	tst	r15		
    a54e:	06 38       	jl	$+14     	;abs 0xa55c
    a550:	0e 5b       	add	r11,	r14	
    a552:	8e 93 02 00 	tst	2(r14)		;0x0002(r14)
    a556:	02 24       	jz	$+6      	;abs 0xa55c
    a558:	30 40 aa b3 	br	#0xb3aa	
    a55c:	f1 43 01 00 	mov.b	#-1,	1(r1)	;r3 As==11, 0x0001(r1)
    a560:	0d 41       	mov	r1,	r13	
    a562:	1d 53       	inc	r13		
    a564:	5e 46 06 00 	mov.b	6(r6),	r14	;0x0006(r6)
    a568:	0f 41       	mov	r1,	r15	
    a56a:	3f 50 0e 00 	add	#14,	r15	;#0x000e
    a56e:	b0 12 e2 56 	call	#0x56e2	
    a572:	0f 93       	tst	r15		
    a574:	02 34       	jge	$+6      	;abs 0xa57a
    a576:	30 40 aa b3 	br	#0xb3aa	
    a57a:	f1 90 3a 00 01 00 	cmp.b	#58,	1(r1)	;#0x003a, 0x0001(r1)
    a580:	02 24       	jz	$+6      	;abs 0xa586
    a582:	30 40 aa b3 	br	#0xb3aa	
    a586:	0a 8f       	sub	r15,	r10	
    a588:	0b 5f       	add	r15,	r11	
    a58a:	19 4b 02 00 	mov	2(r11),	r9	;0x0002(r11)
    a58e:	0c 49       	mov	r9,	r12	
    a590:	8c 10       	swpb	r12		
    a592:	4c 4c       	mov.b	r12,	r12	
    a594:	49 49       	mov.b	r9,	r9	
    a596:	89 10       	swpb	r9		
    a598:	09 dc       	bis	r12,	r9	
    a59a:	8b 43 02 00 	mov	#0,	2(r11)	;r3 As==00, 0x0002(r11)
    a59e:	81 4b 08 00 	mov	r11,	8(r1)	;0x0008(r1)
    a5a2:	81 4a 0a 00 	mov	r10,	10(r1)	;0x000a(r1)
    a5a6:	81 43 0c 00 	mov	#0,	12(r1)	;r3 As==00, 0x000c(r1)
    a5aa:	7d 40 3a 00 	mov.b	#58,	r13	;#0x003a
    a5ae:	0e 41       	mov	r1,	r14	
    a5b0:	3e 52       	add	#8,	r14	;r2 As==11
    a5b2:	0f 46       	mov	r6,	r15	
    a5b4:	b0 12 6e e8 	call	#0xe86e	
    a5b8:	0f 99       	cmp	r9,	r15	
    a5ba:	02 24       	jz	$+6      	;abs 0xa5c0
    a5bc:	30 40 aa b3 	br	#0xb3aa	
    a5c0:	6c 4b       	mov.b	@r11,	r12	
    a5c2:	7c 90 80 ff 	cmp.b	#-128,	r12	;#0xff80
    a5c6:	49 20       	jnz	$+148    	;abs 0xa65a
    a5c8:	fb 40 81 ff 00 00 	mov.b	#-127,	0(r11)	;#0xff81, 0x0000(r11)
    a5ce:	3d 40 2c 00 	mov	#44,	r13	;#0x002c
    a5d2:	0e 43       	clr	r14		
    a5d4:	0f 41       	mov	r1,	r15	
    a5d6:	3f 50 ca 00 	add	#202,	r15	;#0x00ca
    a5da:	b0 12 94 f1 	call	#0xf194	
    a5de:	3d 40 10 00 	mov	#16,	r13	;#0x0010
    a5e2:	0e 46       	mov	r6,	r14	
    a5e4:	3e 52       	add	#8,	r14	;r2 As==11
    a5e6:	0f 41       	mov	r1,	r15	
    a5e8:	3f 50 e6 00 	add	#230,	r15	;#0x00e6
    a5ec:	b0 12 a0 ef 	call	#0xefa0	
    a5f0:	5f 41 e6 00 	mov.b	230(r1),r15	;0x00e6(r1)
    a5f4:	7f 93       	cmp.b	#-1,	r15	;r3 As==11
    a5f6:	0a 20       	jnz	$+22     	;abs 0xa60c
    a5f8:	5f 41 e7 00 	mov.b	231(r1),r15	;0x00e7(r1)
    a5fc:	3f f0 0f 00 	and	#15,	r15	;#0x000f
    a600:	3f 90 03 00 	cmp	#3,	r15	;#0x0003
    a604:	02 34       	jge	$+6      	;abs 0xa60a
    a606:	30 40 82 b3 	br	#0xb382	
    a60a:	0c 3c       	jmp	$+26     	;abs 0xa624
    a60c:	7f 90 fe ff 	cmp.b	#-2,	r15	;#0xfffe
    a610:	09 20       	jnz	$+20     	;abs 0xa624
    a612:	5f 41 e7 00 	mov.b	231(r1),r15	;0x00e7(r1)
    a616:	3f f0 f0 00 	and	#240,	r15	;#0x00f0
    a61a:	3f 90 81 00 	cmp	#129,	r15	;#0x0081
    a61e:	02 34       	jge	$+6      	;abs 0xa624
    a620:	30 40 82 b3 	br	#0xb382	
    a624:	0f 41       	mov	r1,	r15	
    a626:	3f 50 d6 00 	add	#214,	r15	;#0x00d6
    a62a:	b0 12 3a 48 	call	#0x483a	
    a62e:	f1 40 60 00 ce 00 	mov.b	#96,	206(r1)	;#0x0060, 0x00ce(r1)
    a634:	f1 40 3a 00 d4 00 	mov.b	#58,	212(r1)	;#0x003a, 0x00d4(r1)
    a63a:	0f 41       	mov	r1,	r15	
    a63c:	3f 52       	add	#8,	r15	;r2 As==11
    a63e:	81 4f cc 00 	mov	r15,	204(r1)	;0x00cc(r1)
    a642:	0f 4a       	mov	r10,	r15	
    a644:	8f 10       	swpb	r15		
    a646:	4f 4f       	mov.b	r15,	r15	
    a648:	4a 4a       	mov.b	r10,	r10	
    a64a:	8a 10       	swpb	r10		
    a64c:	0a df       	bis	r15,	r10	
    a64e:	81 4a d2 00 	mov	r10,	210(r1)	;0x00d2(r1)
    a652:	0f 41       	mov	r1,	r15	
    a654:	3f 50 ca 00 	add	#202,	r15	;#0x00ca
    a658:	00 3d       	jmp	$+514    	;abs 0xa85a
    a65a:	7c 90 86 ff 	cmp.b	#-122,	r12	;#0xff86
    a65e:	01 25       	jz	$+516    	;abs 0xa862
    a660:	7c 90 87 ff 	cmp.b	#-121,	r12	;#0xff87
    a664:	06 2c       	jc	$+14     	;abs 0xa672
    a666:	7c 90 85 ff 	cmp.b	#-123,	r12	;#0xff85
    a66a:	02 24       	jz	$+6      	;abs 0xa670
    a66c:	30 40 aa b3 	br	#0xb3aa	
    a670:	0c 3c       	jmp	$+26     	;abs 0xa68a
    a672:	7c 90 87 ff 	cmp.b	#-121,	r12	;#0xff87
    a676:	02 20       	jnz	$+6      	;abs 0xa67c
    a678:	30 40 16 a9 	br	#0xa916	
    a67c:	7c 90 9b ff 	cmp.b	#-101,	r12	;#0xff9b
    a680:	02 24       	jz	$+6      	;abs 0xa686
    a682:	30 40 aa b3 	br	#0xb3aa	
    a686:	30 40 be a9 	br	#0xa9be	
    a68a:	cb 93 01 00 	tst.b	1(r11)		;0x0001(r11)
    a68e:	02 24       	jz	$+6      	;abs 0xa694
    a690:	30 40 aa b3 	br	#0xb3aa	
    a694:	3a 90 09 00 	cmp	#9,	r10	;#0x0009
    a698:	02 2c       	jc	$+6      	;abs 0xa69e
    a69a:	30 40 aa b3 	br	#0xb3aa	
    a69e:	3b 52       	add	#8,	r11	;r2 As==11
    a6a0:	3a 82       	sub	#8,	r10	;r2 As==11
    a6a2:	2a 93       	cmp	#2,	r10	;r3 As==10
    a6a4:	02 2c       	jc	$+6      	;abs 0xa6aa
    a6a6:	30 40 aa b3 	br	#0xb3aa	
    a6aa:	6e 4b       	mov.b	@r11,	r14	
    a6ac:	5f 4b 01 00 	mov.b	1(r11),	r15	;0x0001(r11)
    a6b0:	4f 5f       	rla.b	r15		
    a6b2:	4f 5f       	rla.b	r15		
    a6b4:	4f 5f       	rla.b	r15		
    a6b6:	4f 4f       	mov.b	r15,	r15	
    a6b8:	0a 9f       	cmp	r15,	r10	
    a6ba:	02 2c       	jc	$+6      	;abs 0xa6c0
    a6bc:	30 40 aa b3 	br	#0xb3aa	
    a6c0:	5e 93       	cmp.b	#1,	r14	;r3 As==01
    a6c2:	03 24       	jz	$+8      	;abs 0xa6ca
    a6c4:	0b 5f       	add	r15,	r11	
    a6c6:	0a 8f       	sub	r15,	r10	
    a6c8:	ec 3f       	jmp	$-38     	;abs 0xa6a2
    a6ca:	f1 40 86 ff 36 00 	mov.b	#-122,	54(r1)	;#0xff86, 0x0036(r1)
    a6d0:	c1 43 37 00 	mov.b	#0,	55(r1)	;r3 As==00, 0x0037(r1)
    a6d4:	c1 43 39 00 	mov.b	#0,	57(r1)	;r3 As==00, 0x0039(r1)
    a6d8:	c1 43 38 00 	mov.b	#0,	56(r1)	;r3 As==00, 0x0038(r1)
    a6dc:	f1 40 10 00 3a 00 	mov.b	#16,	58(r1)	;#0x0010, 0x003a(r1)
    a6e2:	c1 43 3b 00 	mov.b	#0,	59(r1)	;r3 As==00, 0x003b(r1)
    a6e6:	f1 43 3d 00 	mov.b	#-1,	61(r1)	;r3 As==11, 0x003d(r1)
    a6ea:	f1 43 3c 00 	mov.b	#-1,	60(r1)	;r3 As==11, 0x003c(r1)
    a6ee:	c1 43 41 00 	mov.b	#0,	65(r1)	;r3 As==00, 0x0041(r1)
    a6f2:	c1 43 40 00 	mov.b	#0,	64(r1)	;r3 As==00, 0x0040(r1)
    a6f6:	c1 43 3f 00 	mov.b	#0,	63(r1)	;r3 As==00, 0x003f(r1)
    a6fa:	c1 43 3e 00 	mov.b	#0,	62(r1)	;r3 As==00, 0x003e(r1)
    a6fe:	c1 43 45 00 	mov.b	#0,	69(r1)	;r3 As==00, 0x0045(r1)
    a702:	c1 43 44 00 	mov.b	#0,	68(r1)	;r3 As==00, 0x0044(r1)
    a706:	c1 43 43 00 	mov.b	#0,	67(r1)	;r3 As==00, 0x0043(r1)
    a70a:	c1 43 42 00 	mov.b	#0,	66(r1)	;r3 As==00, 0x0042(r1)
    a70e:	3d 40 10 00 	mov	#16,	r13	;#0x0010
    a712:	0e 41       	mov	r1,	r14	
    a714:	3e 50 36 00 	add	#54,	r14	;#0x0036
    a718:	0f 41       	mov	r1,	r15	
    a71a:	3f 50 22 01 	add	#290,	r15	;#0x0122
    a71e:	b0 12 96 ed 	call	#0xed96	
    a722:	0f 41       	mov	r1,	r15	
    a724:	3f 50 32 01 	add	#306,	r15	;#0x0132
    a728:	b0 12 78 88 	call	#0x8878	
    a72c:	4a 4f       	mov.b	r15,	r10	
    a72e:	c2 93 e0 11 	tst.b	&0x11e0	
    a732:	04 20       	jnz	$+10     	;abs 0xa73c
    a734:	0f 4a       	mov	r10,	r15	
    a736:	3f 50 10 00 	add	#16,	r15	;#0x0010
    a73a:	4a 3c       	jmp	$+150    	;abs 0xa7d0
    a73c:	f1 40 03 00 7e 00 	mov.b	#3,	126(r1)	;#0x0003, 0x007e(r1)
    a742:	e1 42 7f 00 	mov.b	#4,	127(r1)	;r2 As==10, 0x007f(r1)
    a746:	d1 42 ea 11 80 00 	mov.b	&0x11ea,128(r1)	;0x0080(r1)
    a74c:	f1 40 40 00 81 00 	mov.b	#64,	129(r1)	;#0x0040, 0x0081(r1)
    a752:	1e 42 e6 11 	mov	&0x11e6,r14	
    a756:	1f 42 e8 11 	mov	&0x11e8,r15	
    a75a:	c1 4e 85 00 	mov.b	r14,	133(r1)	;0x0085(r1)
    a75e:	0d 4f       	mov	r15,	r13	
    a760:	8e 10       	swpb	r14		
    a762:	8d 10       	swpb	r13		
    a764:	4e ed       	xor.b	r13,	r14	
    a766:	0e ed       	xor	r13,	r14	
    a768:	c1 4e 84 00 	mov.b	r14,	132(r1)	;0x0084(r1)
    a76c:	c1 4f 83 00 	mov.b	r15,	131(r1)	;0x0083(r1)
    a770:	8f 10       	swpb	r15		
    a772:	c1 4f 82 00 	mov.b	r15,	130(r1)	;0x0082(r1)
    a776:	1e 42 e2 11 	mov	&0x11e2,r14	
    a77a:	1f 42 e4 11 	mov	&0x11e4,r15	
    a77e:	c1 4e 89 00 	mov.b	r14,	137(r1)	;0x0089(r1)
    a782:	0d 4f       	mov	r15,	r13	
    a784:	8e 10       	swpb	r14		
    a786:	8d 10       	swpb	r13		
    a788:	4e ed       	xor.b	r13,	r14	
    a78a:	0e ed       	xor	r13,	r14	
    a78c:	c1 4e 88 00 	mov.b	r14,	136(r1)	;0x0088(r1)
    a790:	c1 4f 87 00 	mov.b	r15,	135(r1)	;0x0087(r1)
    a794:	8f 10       	swpb	r15		
    a796:	c1 4f 86 00 	mov.b	r15,	134(r1)	;0x0086(r1)
    a79a:	81 43 8a 00 	mov	#0,	138(r1)	;r3 As==00, 0x008a(r1)
    a79e:	81 43 8c 00 	mov	#0,	140(r1)	;r3 As==00, 0x008c(r1)
    a7a2:	3d 40 10 00 	mov	#16,	r13	;#0x0010
    a7a6:	3e 40 9c 12 	mov	#4764,	r14	;#0x129c
    a7aa:	0f 41       	mov	r1,	r15	
    a7ac:	3f 50 8e 00 	add	#142,	r15	;#0x008e
    a7b0:	b0 12 96 ed 	call	#0xed96	
    a7b4:	3d 40 20 00 	mov	#32,	r13	;#0x0020
    a7b8:	0e 41       	mov	r1,	r14	
    a7ba:	3e 50 7e 00 	add	#126,	r14	;#0x007e
    a7be:	3f 40 32 01 	mov	#306,	r15	;#0x0132
    a7c2:	0f 51       	add	r1,	r15	
    a7c4:	0f 5a       	add	r10,	r15	
    a7c6:	b0 12 96 ed 	call	#0xed96	
    a7ca:	0f 4a       	mov	r10,	r15	
    a7cc:	3f 50 30 00 	add	#48,	r15	;#0x0030
    a7d0:	0e 41       	mov	r1,	r14	
    a7d2:	3e 50 22 01 	add	#290,	r14	;#0x0122
    a7d6:	81 4e 1a 00 	mov	r14,	26(r1)	;0x001a(r1)
    a7da:	81 4f 1c 00 	mov	r15,	28(r1)	;0x001c(r1)
    a7de:	81 43 1e 00 	mov	#0,	30(r1)	;r3 As==00, 0x001e(r1)
    a7e2:	f1 40 3a 00 a8 00 	mov.b	#58,	168(r1)	;#0x003a, 0x00a8(r1)
    a7e8:	0e 4f       	mov	r15,	r14	
    a7ea:	8e 10       	swpb	r14		
    a7ec:	4e 4e       	mov.b	r14,	r14	
    a7ee:	4f 4f       	mov.b	r15,	r15	
    a7f0:	8f 10       	swpb	r15		
    a7f2:	0f de       	bis	r14,	r15	
    a7f4:	81 4f a6 00 	mov	r15,	166(r1)	;0x00a6(r1)
    a7f8:	0f 41       	mov	r1,	r15	
    a7fa:	3f 50 1a 00 	add	#26,	r15	;#0x001a
    a7fe:	81 4f a0 00 	mov	r15,	160(r1)	;0x00a0(r1)
    a802:	3d 40 10 00 	mov	#16,	r13	;#0x0010
    a806:	0e 43       	clr	r14		
    a808:	3f 50 a0 00 	add	#160,	r15	;#0x00a0
    a80c:	b0 12 94 f1 	call	#0xf194	
    a810:	b1 40 fe 80 ba 00 	mov	#-32514,186(r1)	;#0x80fe, 0x00ba(r1)
    a816:	5f 4b 09 00 	mov.b	9(r11),	r15	;0x0009(r11)
    a81a:	d1 4b 08 00 c3 00 	mov.b	8(r11),	195(r1)	;0x0008(r11), 0x00c3(r1)
    a820:	d1 4b 07 00 c4 00 	mov.b	7(r11),	196(r1)	;0x0007(r11), 0x00c4(r1)
    a826:	d1 4b 06 00 c5 00 	mov.b	6(r11),	197(r1)	;0x0006(r11), 0x00c5(r1)
    a82c:	d1 4b 05 00 c6 00 	mov.b	5(r11),	198(r1)	;0x0005(r11), 0x00c6(r1)
    a832:	d1 4b 04 00 c7 00 	mov.b	4(r11),	199(r1)	;0x0004(r11), 0x00c7(r1)
    a838:	d1 4b 03 00 c8 00 	mov.b	3(r11),	200(r1)	;0x0003(r11), 0x00c8(r1)
    a83e:	d1 4b 02 00 c9 00 	mov.b	2(r11),	201(r1)	;0x0002(r11), 0x00c9(r1)
    a844:	6f e3       	xor.b	#2,	r15	;r3 As==10
    a846:	c1 4f c2 00 	mov.b	r15,	194(r1)	;0x00c2(r1)
    a84a:	0f 41       	mov	r1,	r15	
    a84c:	3f 50 aa 00 	add	#170,	r15	;#0x00aa
    a850:	b0 12 8c 7c 	call	#0x7c8c	
    a854:	0f 41       	mov	r1,	r15	
    a856:	3f 50 9e 00 	add	#158,	r15	;#0x009e
    a85a:	b0 12 ec a3 	call	#0xa3ec	
    a85e:	30 40 aa b3 	br	#0xb3aa	
    a862:	cb 93 01 00 	tst.b	1(r11)		;0x0001(r11)
    a866:	02 24       	jz	$+6      	;abs 0xa86c
    a868:	30 40 aa b3 	br	#0xb3aa	
    a86c:	3a 90 10 00 	cmp	#16,	r10	;#0x0010
    a870:	02 2c       	jc	$+6      	;abs 0xa876
    a872:	30 40 aa b3 	br	#0xb3aa	
    a876:	3b 50 10 00 	add	#16,	r11	;#0x0010
    a87a:	3a 50 f0 ff 	add	#-16,	r10	;#0xfff0
    a87e:	36 52       	add	#8,	r6	;r2 As==11
    a880:	2a 93       	cmp	#2,	r10	;r3 As==10
    a882:	44 28       	jnc	$+138    	;abs 0xa90c
    a884:	6e 4b       	mov.b	@r11,	r14	
    a886:	5f 4b 01 00 	mov.b	1(r11),	r15	;0x0001(r11)
    a88a:	4f 5f       	rla.b	r15		
    a88c:	4f 5f       	rla.b	r15		
    a88e:	4f 5f       	rla.b	r15		
    a890:	47 4f       	mov.b	r15,	r7	
    a892:	0a 97       	cmp	r7,	r10	
    a894:	02 2c       	jc	$+6      	;abs 0xa89a
    a896:	30 40 aa b3 	br	#0xb3aa	
    a89a:	5e 93       	cmp.b	#1,	r14	;r3 As==01
    a89c:	04 24       	jz	$+10     	;abs 0xa8a6
    a89e:	7e 90 03 00 	cmp.b	#3,	r14	;#0x0003
    a8a2:	31 20       	jnz	$+100    	;abs 0xa906
    a8a4:	0c 3c       	jmp	$+26     	;abs 0xa8be
    a8a6:	0e 43       	clr	r14		
    a8a8:	0f 43       	clr	r15		
    a8aa:	b0 12 2a 56 	call	#0x562a	
    a8ae:	0f 93       	tst	r15		
    a8b0:	2a 20       	jnz	$+86     	;abs 0xa906
    a8b2:	5c 43       	mov.b	#1,	r12	;r3 As==01
    a8b4:	0d 46       	mov	r6,	r13	
    a8b6:	0e 43       	clr	r14		
    a8b8:	b0 12 58 6c 	call	#0x6c58	
    a8bc:	24 3c       	jmp	$+74     	;abs 0xa906
    a8be:	5e 4b 03 00 	mov.b	3(r11),	r14	;0x0003(r11)
    a8c2:	3e f0 40 00 	and	#64,	r14	;#0x0040
    a8c6:	7f 40 06 00 	mov.b	#6,	r15	;#0x0006
    a8ca:	0e 11       	rra	r14		
    a8cc:	7f 53       	add.b	#-1,	r15	;r3 As==11
    a8ce:	fd 23       	jnz	$-4      	;abs 0xa8ca
    a8d0:	4e 93       	tst.b	r14		
    a8d2:	19 24       	jz	$+52     	;abs 0xa906
    a8d4:	55 4b 02 00 	mov.b	2(r11),	r5	;0x0002(r11)
    a8d8:	45 93       	tst.b	r5		
    a8da:	15 24       	jz	$+44     	;abs 0xa906
    a8dc:	0f 4b       	mov	r11,	r15	
    a8de:	3f 52       	add	#8,	r15	;r2 As==11
    a8e0:	b0 12 00 48 	call	#0x4800	
    a8e4:	08 4e       	mov	r14,	r8	
    a8e6:	09 4f       	mov	r15,	r9	
    a8e8:	0f 4b       	mov	r11,	r15	
    a8ea:	2f 52       	add	#4,	r15	;r2 As==10
    a8ec:	b0 12 00 48 	call	#0x4800	
    a8f0:	09 12       	push	r9		
    a8f2:	08 12       	push	r8		
    a8f4:	0c 4e       	mov	r14,	r12	
    a8f6:	0d 4f       	mov	r15,	r13	
    a8f8:	4e 45       	mov.b	r5,	r14	
    a8fa:	0f 4b       	mov	r11,	r15	
    a8fc:	3f 50 10 00 	add	#16,	r15	;#0x0010
    a900:	b0 12 b6 57 	call	#0x57b6	
    a904:	21 52       	add	#4,	r1	;r2 As==10
    a906:	0b 57       	add	r7,	r11	
    a908:	0a 87       	sub	r7,	r10	
    a90a:	ba 3f       	jmp	$-138    	;abs 0xa880
    a90c:	f2 f0 fd ff 84 1b 	and.b	#-3,	&0x1b84	;#0xfffd
    a912:	30 40 aa b3 	br	#0xb3aa	
    a916:	cb 93 01 00 	tst.b	1(r11)		;0x0001(r11)
    a91a:	02 24       	jz	$+6      	;abs 0xa920
    a91c:	30 40 aa b3 	br	#0xb3aa	
    a920:	3a 90 18 00 	cmp	#24,	r10	;#0x0018
    a924:	02 2c       	jc	$+6      	;abs 0xa92a
    a926:	30 40 aa b3 	br	#0xb3aa	
    a92a:	f1 40 88 ff 66 00 	mov.b	#-120,	102(r1)	;#0xff88, 0x0066(r1)
    a930:	c1 43 67 00 	mov.b	#0,	103(r1)	;r3 As==00, 0x0067(r1)
    a934:	c1 43 69 00 	mov.b	#0,	105(r1)	;r3 As==00, 0x0069(r1)
    a938:	c1 43 68 00 	mov.b	#0,	104(r1)	;r3 As==00, 0x0068(r1)
    a93c:	f1 40 e0 ff 6a 00 	mov.b	#-32,	106(r1)	;#0xffe0, 0x006a(r1)
    a942:	c1 43 6b 00 	mov.b	#0,	107(r1)	;r3 As==00, 0x006b(r1)
    a946:	c1 43 6d 00 	mov.b	#0,	109(r1)	;r3 As==00, 0x006d(r1)
    a94a:	c1 43 6c 00 	mov.b	#0,	108(r1)	;r3 As==00, 0x006c(r1)
    a94e:	3d 40 10 00 	mov	#16,	r13	;#0x0010
    a952:	0e 4b       	mov	r11,	r14	
    a954:	3e 52       	add	#8,	r14	;r2 As==11
    a956:	0f 41       	mov	r1,	r15	
    a958:	3f 50 6e 00 	add	#110,	r15	;#0x006e
    a95c:	b0 12 96 ed 	call	#0xed96	
    a960:	0b 41       	mov	r1,	r11	
    a962:	3b 50 9a 01 	add	#410,	r11	;#0x019a
    a966:	3d 40 18 00 	mov	#24,	r13	;#0x0018
    a96a:	0e 41       	mov	r1,	r14	
    a96c:	3e 50 66 00 	add	#102,	r14	;#0x0066
    a970:	0f 4b       	mov	r11,	r15	
    a972:	b0 12 96 ed 	call	#0xed96	
    a976:	81 4b 1a 00 	mov	r11,	26(r1)	;0x001a(r1)
    a97a:	b1 40 18 00 1c 00 	mov	#24,	28(r1)	;#0x0018, 0x001c(r1)
    a980:	81 43 1e 00 	mov	#0,	30(r1)	;r3 As==00, 0x001e(r1)
    a984:	f1 40 3a 00 2c 01 	mov.b	#58,	300(r1)	;#0x003a, 0x012c(r1)
    a98a:	b1 40 00 18 2a 01 	mov	#6144,	298(r1)	;#0x1800, 0x012a(r1)
    a990:	0e 41       	mov	r1,	r14	
    a992:	3e 50 1a 00 	add	#26,	r14	;#0x001a
    a996:	81 4e 24 01 	mov	r14,	292(r1)	;0x0124(r1)
    a99a:	3d 40 10 00 	mov	#16,	r13	;#0x0010
    a99e:	0e 46       	mov	r6,	r14	
    a9a0:	3e 52       	add	#8,	r14	;r2 As==11
    a9a2:	0f 41       	mov	r1,	r15	
    a9a4:	3f 50 3e 01 	add	#318,	r15	;#0x013e
    a9a8:	b0 12 96 ed 	call	#0xed96	
    a9ac:	0f 41       	mov	r1,	r15	
    a9ae:	3f 50 2e 01 	add	#302,	r15	;#0x012e
    a9b2:	b0 12 8c 7c 	call	#0x7c8c	
    a9b6:	0f 41       	mov	r1,	r15	
    a9b8:	3f 50 22 01 	add	#290,	r15	;#0x0122
    a9bc:	4e 3f       	jmp	$-354    	;abs 0xa85a
    a9be:	5e 4b 01 00 	mov.b	1(r11),	r14	;0x0001(r11)
    a9c2:	5e 93       	cmp.b	#1,	r14	;r3 As==01
    a9c4:	06 24       	jz	$+14     	;abs 0xa9d2
    a9c6:	6e 93       	cmp.b	#2,	r14	;r3 As==10
    a9c8:	02 24       	jz	$+6      	;abs 0xa9ce
    a9ca:	30 40 64 b2 	br	#0xb264	
    a9ce:	30 40 d4 af 	br	#0xafd4	
    a9d2:	c2 93 aa 11 	tst.b	&0x11aa	
    a9d6:	02 20       	jnz	$+6      	;abs 0xa9dc
    a9d8:	30 40 64 b2 	br	#0xb264	
    a9dc:	92 92 7c 11 30 11 	cmp	&0x117c,&0x1130	
    a9e2:	02 20       	jnz	$+6      	;abs 0xa9e8
    a9e4:	30 40 28 ae 	br	#0xae28	
    a9e8:	5c 4b 06 00 	mov.b	6(r11),	r12	;0x0006(r11)
    a9ec:	8c 10       	swpb	r12		
    a9ee:	5e 4b 07 00 	mov.b	7(r11),	r14	;0x0007(r11)
    a9f2:	0c de       	bis	r14,	r12	
    a9f4:	3c 93       	cmp	#-1,	r12	;r3 As==11
    a9f6:	02 20       	jnz	$+6      	;abs 0xa9fc
    a9f8:	30 40 28 ae 	br	#0xae28	
    a9fc:	3a 90 1c 00 	cmp	#28,	r10	;#0x001c
    aa00:	02 2c       	jc	$+6      	;abs 0xaa06
    aa02:	30 40 28 ae 	br	#0xae28	
    aa06:	0f 4b       	mov	r11,	r15	
    aa08:	3f 50 1c 00 	add	#28,	r15	;#0x001c
    aa0c:	81 4f 14 02 	mov	r15,	532(r1)	;0x0214(r1)
    aa10:	0d 4a       	mov	r10,	r13	
    aa12:	3d 50 e4 ff 	add	#-28,	r13	;#0xffe4
    aa16:	0c 4a       	mov	r10,	r12	
    aa18:	3c 50 dc ff 	add	#-36,	r12	;#0xffdc
    aa1c:	0c 93       	tst	r12		
    aa1e:	02 34       	jge	$+6      	;abs 0xaa24
    aa20:	3c 50 07 00 	add	#7,	r12	;#0x0007
    aa24:	0c 11       	rra	r12		
    aa26:	0c 11       	rra	r12		
    aa28:	0c 11       	rra	r12		
    aa2a:	c1 4c 05 00 	mov.b	r12,	5(r1)	;0x0005(r1)
    aa2e:	a1 43 1c 00 	mov	#2,	28(r1)	;r3 As==10, 0x001c(r1)
    aa32:	0e 41       	mov	r1,	r14	
    aa34:	2e 52       	add	#4,	r14	;r2 As==10
    aa36:	81 4e 1a 00 	mov	r14,	26(r1)	;0x001a(r1)
    aa3a:	0f 41       	mov	r1,	r15	
    aa3c:	3f 50 20 00 	add	#32,	r15	;#0x0020
    aa40:	81 4f 1e 00 	mov	r15,	30(r1)	;0x001e(r1)
    aa44:	81 4d 22 00 	mov	r13,	34(r1)	;0x0022(r1)
    aa48:	91 41 14 02 20 00 	mov	532(r1),32(r1)	;0x0214(r1), 0x0020(r1)
    aa4e:	81 43 24 00 	mov	#0,	36(r1)	;r3 As==00, 0x0024(r1)
    aa52:	59 4b 06 00 	mov.b	6(r11),	r9	;0x0006(r11)
    aa56:	5a 4b 07 00 	mov.b	7(r11),	r10	;0x0007(r11)
    aa5a:	5e 4b 08 00 	mov.b	8(r11),	r14	;0x0008(r11)
    aa5e:	7e f0 07 00 	and.b	#7,	r14	;#0x0007
    aa62:	c1 4e 12 02 	mov.b	r14,	530(r1)	;0x0212(r1)
    aa66:	3d 40 10 00 	mov	#16,	r13	;#0x0010
    aa6a:	0e 4b       	mov	r11,	r14	
    aa6c:	3e 50 0c 00 	add	#12,	r14	;#0x000c
    aa70:	3f 50 06 00 	add	#6,	r15	;#0x0006
    aa74:	b0 12 96 ed 	call	#0xed96	
    aa78:	3d 40 10 00 	mov	#16,	r13	;#0x0010
    aa7c:	3e 40 48 1c 	mov	#7240,	r14	;#0x1c48
    aa80:	3f 40 72 23 	mov	#9074,	r15	;#0x2372
    aa84:	b0 12 80 ef 	call	#0xef80	
    aa88:	0f 93       	tst	r15		
    aa8a:	17 24       	jz	$+48     	;abs 0xaaba
    aa8c:	3d 40 10 00 	mov	#16,	r13	;#0x0010
    aa90:	0e 41       	mov	r1,	r14	
    aa92:	3e 50 26 00 	add	#38,	r14	;#0x0026
    aa96:	3f 40 72 23 	mov	#9074,	r15	;#0x2372
    aa9a:	b0 12 80 ef 	call	#0xef80	
    aa9e:	0f 93       	tst	r15		
    aaa0:	2c 24       	jz	$+90     	;abs 0xaafa
    aaa2:	5c 42 2a 11 	mov.b	&0x112a,r12	
    aaa6:	5c 91 12 02 	cmp.b	530(r1),r12	;0x0212(r1)
    aaaa:	02 2c       	jc	$+6      	;abs 0xaab0
    aaac:	30 40 d4 ad 	br	#0xadd4	
    aab0:	c1 9c 12 02 	cmp.b	r12,	530(r1)	;0x0212(r1)
    aab4:	02 28       	jnc	$+6      	;abs 0xaaba
    aab6:	30 40 d4 ad 	br	#0xadd4	
    aaba:	d2 41 12 02 2a 11 	mov.b	530(r1),&0x112a	;0x0212(r1)
    aac0:	3d 40 10 00 	mov	#16,	r13	;#0x0010
    aac4:	0e 41       	mov	r1,	r14	
    aac6:	3e 50 26 00 	add	#38,	r14	;#0x0026
    aaca:	3f 40 72 23 	mov	#9074,	r15	;#0x2372
    aace:	b0 12 96 ed 	call	#0xed96	
    aad2:	c2 43 b2 11 	mov.b	#0,	&0x11b2	;r3 As==00
    aad6:	d2 4b 05 00 b0 11 	mov.b	5(r11),	&0x11b0	;0x0005(r11)
    aadc:	c2 43 b1 11 	mov.b	#0,	&0x11b1	;r3 As==00
    aae0:	b2 43 0a 11 	mov	#-1,	&0x110a	;r3 As==11
    aae4:	b2 43 08 11 	mov	#-1,	&0x1108	;r3 As==11
    aae8:	b2 43 30 11 	mov	#-1,	&0x1130	;r3 As==11
    aaec:	b2 43 2e 11 	mov	#-1,	&0x112e	;r3 As==11
    aaf0:	b0 12 52 4c 	call	#0x4c52	
    aaf4:	d1 43 13 02 	mov.b	#1,	531(r1)	;r3 As==01, 0x0213(r1)
    aaf8:	15 3c       	jmp	$+44     	;abs 0xab24
    aafa:	5d 4b 05 00 	mov.b	5(r11),	r13	;0x0005(r11)
    aafe:	1d 92 b0 11 	cmp	&0x11b0,r13	
    ab02:	0e 24       	jz	$+30     	;abs 0xab20
    ab04:	c2 43 b2 11 	mov.b	#0,	&0x11b2	;r3 As==00
    ab08:	82 4d b0 11 	mov	r13,	&0x11b0	
    ab0c:	b2 43 0a 11 	mov	#-1,	&0x110a	;r3 As==11
    ab10:	b2 43 08 11 	mov	#-1,	&0x1108	;r3 As==11
    ab14:	b2 43 30 11 	mov	#-1,	&0x1130	;r3 As==11
    ab18:	b2 43 2e 11 	mov	#-1,	&0x112e	;r3 As==11
    ab1c:	b0 12 52 4c 	call	#0x4c52	
    ab20:	c1 43 13 02 	mov.b	#0,	531(r1)	;r3 As==00, 0x0213(r1)
    ab24:	44 49       	mov.b	r9,	r4	
    ab26:	84 10       	swpb	r4		
    ab28:	4d 4a       	mov.b	r10,	r13	
    ab2a:	04 dd       	bis	r13,	r4	
    ab2c:	6d 43       	mov.b	#2,	r13	;r3 As==10
    ab2e:	0e 43       	clr	r14		
    ab30:	0f 41       	mov	r1,	r15	
    ab32:	3f 50 1a 00 	add	#26,	r15	;#0x001a
    ab36:	b0 12 52 57 	call	#0x5752	
    ab3a:	09 4f       	mov	r15,	r9	
    ab3c:	0d 4f       	mov	r15,	r13	
    ab3e:	2d 83       	decd	r13		
    ab40:	c2 43 c9 14 	mov.b	#0,	&0x14c9	;r3 As==00
    ab44:	82 43 56 12 	mov	#0,	&0x1256	;r3 As==00
    ab48:	0d 93       	tst	r13		
    ab4a:	18 38       	jl	$+50     	;abs 0xab7c
    ab4c:	1d 51 14 02 	add	532(r1),r13	;0x0214(r1)
    ab50:	ed 92 01 00 	cmp.b	#4,	1(r13)	;r2 As==10, 0x0001(r13)
    ab54:	1a 28       	jnc	$+54     	;abs 0xab8a
    ab56:	19 51 14 02 	add	532(r1),r9	;0x0214(r1)
    ab5a:	f9 90 07 00 00 00 	cmp.b	#7,	0(r9)	;#0x0007, 0x0000(r9)
    ab60:	14 20       	jnz	$+42     	;abs 0xab8a
    ab62:	e9 93 03 00 	cmp.b	#2,	3(r9)	;r3 As==10, 0x0003(r9)
    ab66:	11 20       	jnz	$+36     	;abs 0xab8a
    ab68:	5a 49 04 00 	mov.b	4(r9),	r10	;0x0004(r9)
    ab6c:	8a 10       	swpb	r10		
    ab6e:	5d 49 05 00 	mov.b	5(r9),	r13	;0x0005(r9)
    ab72:	0a dd       	bis	r13,	r10	
    ab74:	f2 40 07 00 c9 14 	mov.b	#7,	&0x14c9	;#0x0007
    ab7a:	08 3c       	jmp	$+18     	;abs 0xab8c
    ab7c:	0a 44       	mov	r4,	r10	
    ab7e:	0a 5a       	rla	r10		
    ab80:	0c 4a       	mov	r10,	r12	
    ab82:	0c 5c       	rla	r12		
    ab84:	0c 5c       	rla	r12		
    ab86:	0a 5c       	add	r12,	r10	
    ab88:	01 3c       	jmp	$+4      	;abs 0xab8c
    ab8a:	3a 43       	mov	#-1,	r10	;r3 As==11
    ab8c:	6d 42       	mov.b	#4,	r13	;r2 As==10
    ab8e:	0e 43       	clr	r14		
    ab90:	0f 41       	mov	r1,	r15	
    ab92:	3f 50 1a 00 	add	#26,	r15	;#0x001a
    ab96:	b0 12 52 57 	call	#0x5752	
    ab9a:	08 4f       	mov	r15,	r8	
    ab9c:	28 83       	decd	r8		
    ab9e:	08 93       	tst	r8		
    aba0:	2d 38       	jl	$+92     	;abs 0xabfc
    aba2:	18 51 14 02 	add	532(r1),r8	;0x0214(r1)
    aba6:	59 48 0a 00 	mov.b	10(r8),	r9	;0x000a(r8)
    abaa:	89 10       	swpb	r9		
    abac:	5d 48 0b 00 	mov.b	11(r8),	r13	;0x000b(r8)
    abb0:	09 dd       	bis	r13,	r9	
    abb2:	82 49 56 12 	mov	r9,	&0x1256	
    abb6:	55 48 06 00 	mov.b	6(r8),	r5	;0x0006(r8)
    abba:	85 10       	swpb	r5		
    abbc:	5d 48 07 00 	mov.b	7(r8),	r13	;0x0007(r8)
    abc0:	05 dd       	bis	r13,	r5	
    abc2:	82 45 2c 11 	mov	r5,	&0x112c	
    abc6:	57 48 08 00 	mov.b	8(r8),	r7	;0x0008(r8)
    abca:	87 10       	swpb	r7		
    abcc:	5d 48 09 00 	mov.b	9(r8),	r13	;0x0009(r8)
    abd0:	07 dd       	bis	r13,	r7	
    abd2:	5f 48 05 00 	mov.b	5(r8),	r15	;0x0005(r8)
    abd6:	5e 48 04 00 	mov.b	4(r8),	r14	;0x0004(r8)
    abda:	d2 48 03 00 20 11 	mov.b	3(r8),	&0x1120	;0x0003(r8)
    abe0:	c2 4e 1f 11 	mov.b	r14,	&0x111f	
    abe4:	c2 4f 1e 11 	mov.b	r15,	&0x111e	
    abe8:	c2 45 1a 11 	mov.b	r5,	&0x111a	
    abec:	c2 43 1b 11 	mov.b	#0,	&0x111b	;r3 As==00
    abf0:	c2 47 1c 11 	mov.b	r7,	&0x111c	
    abf4:	c2 43 1d 11 	mov.b	#0,	&0x111d	;r3 As==00
    abf8:	82 47 02 11 	mov	r7,	&0x1102	
    abfc:	7d 42       	mov.b	#8,	r13	;r2 As==11
    abfe:	0e 43       	clr	r14		
    ac00:	0f 41       	mov	r1,	r15	
    ac02:	3f 50 1a 00 	add	#26,	r15	;#0x001a
    ac06:	b0 12 52 57 	call	#0x5752	
    ac0a:	0e 4f       	mov	r15,	r14	
    ac0c:	2e 83       	decd	r14		
    ac0e:	0e 93       	tst	r14		
    ac10:	27 38       	jl	$+80     	;abs 0xac60
    ac12:	17 41 14 02 	mov	532(r1),r7	;0x0214(r1)
    ac16:	07 5e       	add	r14,	r7	
    ac18:	59 47 03 00 	mov.b	3(r7),	r9	;0x0003(r7)
    ac1c:	39 f0 40 00 	and	#64,	r9	;#0x0040
    ac20:	78 40 06 00 	mov.b	#6,	r8	;#0x0006
    ac24:	09 11       	rra	r9		
    ac26:	78 53       	add.b	#-1,	r8	;r3 As==11
    ac28:	fd 23       	jnz	$-4      	;abs 0xac24
    ac2a:	49 93       	tst.b	r9		
    ac2c:	19 24       	jz	$+52     	;abs 0xac60
    ac2e:	55 47 02 00 	mov.b	2(r7),	r5	;0x0002(r7)
    ac32:	45 93       	tst.b	r5		
    ac34:	15 24       	jz	$+44     	;abs 0xac60
    ac36:	0f 47       	mov	r7,	r15	
    ac38:	3f 52       	add	#8,	r15	;r2 As==11
    ac3a:	b0 12 00 48 	call	#0x4800	
    ac3e:	08 4e       	mov	r14,	r8	
    ac40:	09 4f       	mov	r15,	r9	
    ac42:	0f 47       	mov	r7,	r15	
    ac44:	2f 52       	add	#4,	r15	;r2 As==10
    ac46:	b0 12 00 48 	call	#0x4800	
    ac4a:	09 12       	push	r9		
    ac4c:	08 12       	push	r8		
    ac4e:	0c 4e       	mov	r14,	r12	
    ac50:	0d 4f       	mov	r15,	r13	
    ac52:	4e 45       	mov.b	r5,	r14	
    ac54:	0f 47       	mov	r7,	r15	
    ac56:	3f 50 10 00 	add	#16,	r15	;#0x0010
    ac5a:	b0 12 b6 57 	call	#0x57b6	
    ac5e:	21 52       	add	#4,	r1	;r2 As==10
    ac60:	09 46       	mov	r6,	r9	
    ac62:	39 52       	add	#8,	r9	;r2 As==11
    ac64:	3d 40 10 00 	mov	#16,	r13	;#0x0010
    ac68:	0e 49       	mov	r9,	r14	
    ac6a:	0f 41       	mov	r1,	r15	
    ac6c:	3f 50 9a 01 	add	#410,	r15	;#0x019a
    ac70:	b0 12 96 ed 	call	#0xed96	
    ac74:	81 44 aa 01 	mov	r4,	426(r1)	;0x01aa(r1)
    ac78:	b1 40 0a 00 ae 01 	mov	#10,	430(r1)	;#0x000a, 0x01ae(r1)
    ac7e:	d1 43 b0 01 	mov.b	#1,	432(r1)	;r3 As==01, 0x01b0(r1)
    ac82:	81 4a ac 01 	mov	r10,	428(r1)	;0x01ac(r1)
    ac86:	82 93 56 12 	tst	&0x1256	
    ac8a:	17 24       	jz	$+48     	;abs 0xacba
    ac8c:	30 40 90 b3 	br	#0xb390	
    ac90:	31 50 e8 ff 	add	#-24,	r1	;#0xffe8
    ac94:	3d 40 18 00 	mov	#24,	r13	;#0x0018
    ac98:	0e 41       	mov	r1,	r14	
    ac9a:	3e 50 b2 01 	add	#434,	r14	;#0x01b2
    ac9e:	0f 41       	mov	r1,	r15	
    aca0:	b0 12 a0 ef 	call	#0xefa0	
    aca4:	b0 12 44 55 	call	#0x5544	
    aca8:	31 50 18 00 	add	#24,	r1	;#0x0018
    acac:	b0 12 2e 8c 	call	#0x8c2e	
    acb0:	b2 43 30 11 	mov	#-1,	&0x1130	;r3 As==11
    acb4:	d2 43 b4 11 	mov.b	#1,	&0x11b4	;r3 As==01
    acb8:	b7 3c       	jmp	$+368    	;abs 0xae28
    acba:	0f 49       	mov	r9,	r15	
    acbc:	b0 12 50 69 	call	#0x6950	
    acc0:	7f 90 14 00 	cmp.b	#20,	r15	;#0x0014
    acc4:	52 24       	jz	$+166    	;abs 0xad6a
    acc6:	c1 93 13 02 	tst.b	531(r1)	;0x0213(r1)
    acca:	2f 24       	jz	$+96     	;abs 0xad2a
    accc:	c2 93 b2 11 	tst.b	&0x11b2	
    acd0:	84 24       	jz	$+266    	;abs 0xadda
    acd2:	b0 12 2e 8c 	call	#0x8c2e	
    acd6:	5e 42 06 11 	mov.b	&0x1106,r14	
    acda:	02 12       	push	r2		
    acdc:	32 c2       	dint			
    acde:	03 43       	nop			
    ace0:	82 4e 32 01 	mov	r14,	&0x0132	
    ace4:	b2 40 18 00 38 01 	mov	#24,	&0x0138	;#0x0018
    acea:	1e 42 3a 01 	mov	&0x013a,r14	
    acee:	32 41       	pop	r2		
    acf0:	0f 4e       	mov	r14,	r15	
    acf2:	3f 50 e8 12 	add	#4840,	r15	;#0x12e8
    acf6:	b0 12 50 69 	call	#0x6950	
    acfa:	4e 4f       	mov.b	r15,	r14	
    acfc:	02 12       	push	r2		
    acfe:	32 c2       	dint			
    ad00:	03 43       	nop			
    ad02:	82 4e 32 01 	mov	r14,	&0x0132	
    ad06:	b2 40 18 00 38 01 	mov	#24,	&0x0138	;#0x0018
    ad0c:	1e 42 3a 01 	mov	&0x013a,r14	
    ad10:	32 41       	pop	r2		
    ad12:	1d 4e fc 12 	mov	4860(r14),r13	;0x12fc(r14)
    ad16:	1d 5e fa 12 	add	4858(r14),r13	;0x12fa(r14)
    ad1a:	1e 41 ae 01 	mov	430(r1),r14	;0x01ae(r1)
    ad1e:	1e 51 ac 01 	add	428(r1),r14	;0x01ac(r1)
    ad22:	0d 9e       	cmp	r14,	r13	
    ad24:	1d 24       	jz	$+60     	;abs 0xad60
    ad26:	1c 28       	jnc	$+58     	;abs 0xad60
    ad28:	58 3c       	jmp	$+178    	;abs 0xadda
    ad2a:	4e 4f       	mov.b	r15,	r14	
    ad2c:	02 12       	push	r2		
    ad2e:	32 c2       	dint			
    ad30:	03 43       	nop			
    ad32:	82 4e 32 01 	mov	r14,	&0x0132	
    ad36:	b2 40 18 00 38 01 	mov	#24,	&0x0138	;#0x0018
    ad3c:	1d 42 3a 01 	mov	&0x013a,r13	
    ad40:	32 41       	pop	r2		
    ad42:	8d 44 f8 12 	mov	r4,	4856(r13);0x12f8(r13)
    ad46:	02 12       	push	r2		
    ad48:	32 c2       	dint			
    ad4a:	03 43       	nop			
    ad4c:	82 4e 32 01 	mov	r14,	&0x0132	
    ad50:	b2 40 18 00 38 01 	mov	#24,	&0x0138	;#0x0018
    ad56:	1e 42 3a 01 	mov	&0x013a,r14	
    ad5a:	32 41       	pop	r2		
    ad5c:	8e 4a fa 12 	mov	r10,	4858(r14);0x12fa(r14)
    ad60:	b0 12 2e 8c 	call	#0x8c2e	
    ad64:	b0 12 4c 8e 	call	#0x8e4c	
    ad68:	35 3c       	jmp	$+108    	;abs 0xadd4
    ad6a:	5e 42 b2 11 	mov.b	&0x11b2,r14	
    ad6e:	7e 90 15 00 	cmp.b	#21,	r14	;#0x0015
    ad72:	5a 2c       	jc	$+182    	;abs 0xae28
    ad74:	c1 93 13 02 	tst.b	531(r1)	;0x0213(r1)
    ad78:	45 24       	jz	$+140    	;abs 0xae04
    ad7a:	4e 93       	tst.b	r14		
    ad7c:	2e 24       	jz	$+94     	;abs 0xadda
    ad7e:	b0 12 2e 8c 	call	#0x8c2e	
    ad82:	5e 42 06 11 	mov.b	&0x1106,r14	
    ad86:	02 12       	push	r2		
    ad88:	32 c2       	dint			
    ad8a:	03 43       	nop			
    ad8c:	82 4e 32 01 	mov	r14,	&0x0132	
    ad90:	b2 40 18 00 38 01 	mov	#24,	&0x0138	;#0x0018
    ad96:	1e 42 3a 01 	mov	&0x013a,r14	
    ad9a:	32 41       	pop	r2		
    ad9c:	0f 4e       	mov	r14,	r15	
    ad9e:	3f 50 e8 12 	add	#4840,	r15	;#0x12e8
    ada2:	b0 12 50 69 	call	#0x6950	
    ada6:	4e 4f       	mov.b	r15,	r14	
    ada8:	02 12       	push	r2		
    adaa:	32 c2       	dint			
    adac:	03 43       	nop			
    adae:	82 4e 32 01 	mov	r14,	&0x0132	
    adb2:	b2 40 18 00 38 01 	mov	#24,	&0x0138	;#0x0018
    adb8:	1e 42 3a 01 	mov	&0x013a,r14	
    adbc:	32 41       	pop	r2		
    adbe:	1d 4e fc 12 	mov	4860(r14),r13	;0x12fc(r14)
    adc2:	1d 5e fa 12 	add	4858(r14),r13	;0x12fa(r14)
    adc6:	1e 41 ae 01 	mov	430(r1),r14	;0x01ae(r1)
    adca:	1e 51 ac 01 	add	428(r1),r14	;0x01ac(r1)
    adce:	0d 9e       	cmp	r14,	r13	
    add0:	01 24       	jz	$+4      	;abs 0xadd4
    add2:	03 2c       	jc	$+8      	;abs 0xadda
    add4:	d2 43 ae 11 	mov.b	#1,	&0x11ae	;r3 As==01
    add8:	27 3c       	jmp	$+80     	;abs 0xae28
    adda:	d2 41 12 02 2a 11 	mov.b	530(r1),&0x112a	;0x0212(r1)
    ade0:	3d 40 10 00 	mov	#16,	r13	;#0x0010
    ade4:	0e 41       	mov	r1,	r14	
    ade6:	3e 50 26 00 	add	#38,	r14	;#0x0026
    adea:	3f 40 72 23 	mov	#9074,	r15	;#0x2372
    adee:	b0 12 96 ed 	call	#0xed96	
    adf2:	c2 43 b2 11 	mov.b	#0,	&0x11b2	;r3 As==00
    adf6:	d2 4b 05 00 b0 11 	mov.b	5(r11),	&0x11b0	;0x0005(r11)
    adfc:	c2 43 b1 11 	mov.b	#0,	&0x11b1	;r3 As==00
    ae00:	b0 12 52 4c 	call	#0x4c52	
    ae04:	31 50 e8 ff 	add	#-24,	r1	;#0xffe8
    ae08:	3d 40 18 00 	mov	#24,	r13	;#0x0018
    ae0c:	0e 41       	mov	r1,	r14	
    ae0e:	3e 50 b2 01 	add	#434,	r14	;#0x01b2
    ae12:	0f 41       	mov	r1,	r15	
    ae14:	b0 12 a0 ef 	call	#0xefa0	
    ae18:	b0 12 44 55 	call	#0x5544	
    ae1c:	31 50 18 00 	add	#24,	r1	;#0x0018
    ae20:	b0 12 2e 8c 	call	#0x8c2e	
    ae24:	b0 12 4c 8e 	call	#0x8e4c	
    ae28:	5c 4b 06 00 	mov.b	6(r11),	r12	;0x0006(r11)
    ae2c:	8c 10       	swpb	r12		
    ae2e:	5e 4b 07 00 	mov.b	7(r11),	r14	;0x0007(r11)
    ae32:	0c de       	bis	r14,	r12	
    ae34:	3c 93       	cmp	#-1,	r12	;r3 As==11
    ae36:	09 20       	jnz	$+20     	;abs 0xae4a
    ae38:	0f 46       	mov	r6,	r15	
    ae3a:	3f 52       	add	#8,	r15	;r2 As==11
    ae3c:	b0 12 50 69 	call	#0x6950	
    ae40:	7f 90 14 00 	cmp.b	#20,	r15	;#0x0014
    ae44:	02 24       	jz	$+6      	;abs 0xae4a
    ae46:	b0 12 4a 8f 	call	#0x8f4a	
    ae4a:	5c 4b 06 00 	mov.b	6(r11),	r12	;0x0006(r11)
    ae4e:	8c 10       	swpb	r12		
    ae50:	5e 4b 07 00 	mov.b	7(r11),	r14	;0x0007(r11)
    ae54:	0c de       	bis	r14,	r12	
    ae56:	1c 92 30 11 	cmp	&0x1130,r12	
    ae5a:	04 28       	jnc	$+10     	;abs 0xae64
    ae5c:	3c 93       	cmp	#-1,	r12	;r3 As==11
    ae5e:	02 24       	jz	$+6      	;abs 0xae64
    ae60:	30 40 64 b2 	br	#0xb264	
    ae64:	c2 93 ae 11 	tst.b	&0x11ae	
    ae68:	b1 20       	jnz	$+356    	;abs 0xafcc
    ae6a:	c2 93 a2 11 	tst.b	&0x11a2	
    ae6e:	ae 24       	jz	$+350    	;abs 0xafcc
    ae70:	c2 93 a6 11 	tst.b	&0x11a6	
    ae74:	ab 20       	jnz	$+344    	;abs 0xafcc
    ae76:	f2 93 1e 11 	cmp.b	#-1,	&0x111e	;r3 As==11
    ae7a:	03 24       	jz	$+8      	;abs 0xae82
    ae7c:	d2 53 21 11 	inc.b	&0x1121	
    ae80:	02 3c       	jmp	$+6      	;abs 0xae86
    ae82:	f2 43 21 11 	mov.b	#-1,	&0x1121	;r3 As==11
    ae86:	3c 93       	cmp	#-1,	r12	;r3 As==11
    ae88:	0d 20       	jnz	$+28     	;abs 0xaea4
    ae8a:	b0 12 f2 69 	call	#0x69f2	
    ae8e:	3f 93       	cmp	#-1,	r15	;r3 As==11
    ae90:	9d 24       	jz	$+316    	;abs 0xafcc
    ae92:	b0 12 c4 88 	call	#0x88c4	
    ae96:	1e f3       	and	#1,	r14	;r3 As==01
    ae98:	99 24       	jz	$+308    	;abs 0xafcc
    ae9a:	7f 40 1d 00 	mov.b	#29,	r15	;#0x001d
    ae9e:	b0 12 14 6b 	call	#0x6b14	
    aea2:	94 3c       	jmp	$+298    	;abs 0xafcc
    aea4:	c2 93 b2 11 	tst.b	&0x11b2	
    aea8:	09 24       	jz	$+20     	;abs 0xaebc
    aeaa:	e2 b3 b6 1b 	bit.b	#2,	&0x1bb6	;r3 As==10
    aeae:	0c 43       	clr	r12		
    aeb0:	0c 6c       	rlc	r12		
    aeb2:	4c 93       	tst.b	r12		
    aeb4:	03 24       	jz	$+8      	;abs 0xaebc
    aeb6:	f2 f0 fd ff b6 1b 	and.b	#-3,	&0x1bb6	;#0xfffd
    aebc:	5e 42 b4 11 	mov.b	&0x11b4,r14	
    aec0:	c2 4e a4 11 	mov.b	r14,	&0x11a4	
    aec4:	4e 93       	tst.b	r14		
    aec6:	03 24       	jz	$+8      	;abs 0xaece
    aec8:	c2 93 a0 11 	tst.b	&0x11a0	
    aecc:	58 24       	jz	$+178    	;abs 0xaf7e
    aece:	3d 40 10 00 	mov	#16,	r13	;#0x0010
    aed2:	0e 4b       	mov	r11,	r14	
    aed4:	3e 50 0c 00 	add	#12,	r14	;#0x000c
    aed8:	3f 40 ba 12 	mov	#4794,	r15	;#0x12ba
    aedc:	b0 12 80 ef 	call	#0xef80	
    aee0:	0f 93       	tst	r15		
    aee2:	4d 20       	jnz	$+156    	;abs 0xaf7e
    aee4:	d2 9b 04 00 9e 11 	cmp.b	4(r11),	&0x119e	;0x0004(r11)
    aeea:	0d 20       	jnz	$+28     	;abs 0xaf06
    aeec:	5e 4b 05 00 	mov.b	5(r11),	r14	;0x0005(r11)
    aef0:	c2 9e 9c 11 	cmp.b	r14,	&0x119c	
    aef4:	08 24       	jz	$+18     	;abs 0xaf06
    aef6:	c2 93 a0 11 	tst.b	&0x11a0	
    aefa:	05 24       	jz	$+12     	;abs 0xaf06
    aefc:	c2 4e 9c 11 	mov.b	r14,	&0x119c	
    af00:	b0 12 d0 8b 	call	#0x8bd0	
    af04:	22 3c       	jmp	$+70     	;abs 0xaf4a
    af06:	b0 12 f2 69 	call	#0x69f2	
    af0a:	1e 42 28 11 	mov	&0x1128,r14	
    af0e:	0f 9e       	cmp	r14,	r15	
    af10:	1c 24       	jz	$+58     	;abs 0xaf4a
    af12:	c2 93 a0 11 	tst.b	&0x11a0	
    af16:	19 24       	jz	$+52     	;abs 0xaf4a
    af18:	3e 93       	cmp	#-1,	r14	;r3 As==11
    af1a:	17 24       	jz	$+48     	;abs 0xaf4a
    af1c:	1e 42 26 11 	mov	&0x1126,r14	
    af20:	0d 4e       	mov	r14,	r13	
    af22:	1d 52 1a 11 	add	&0x111a,r13	
    af26:	0d 9f       	cmp	r15,	r13	
    af28:	05 2c       	jc	$+12     	;abs 0xaf34
    af2a:	c2 43 a0 11 	mov.b	#0,	&0x11a0	;r3 As==00
    af2e:	b2 43 28 11 	mov	#-1,	&0x1128	;r3 As==11
    af32:	08 3c       	jmp	$+18     	;abs 0xaf44
    af34:	0f 9e       	cmp	r14,	r15	
    af36:	02 2c       	jc	$+6      	;abs 0xaf3c
    af38:	82 4f 26 11 	mov	r15,	&0x1126	
    af3c:	b0 12 f2 69 	call	#0x69f2	
    af40:	82 4f 28 11 	mov	r15,	&0x1128	
    af44:	b0 12 10 8c 	call	#0x8c10	
    af48:	41 3c       	jmp	$+132    	;abs 0xafcc
    af4a:	c2 93 b2 11 	tst.b	&0x11b2	
    af4e:	04 24       	jz	$+10     	;abs 0xaf58
    af50:	c2 93 a0 11 	tst.b	&0x11a0	
    af54:	14 24       	jz	$+42     	;abs 0xaf7e
    af56:	3a 3c       	jmp	$+118    	;abs 0xafcc
    af58:	c2 93 a6 11 	tst.b	&0x11a6	
    af5c:	37 20       	jnz	$+112    	;abs 0xafcc
    af5e:	c2 43 a0 11 	mov.b	#0,	&0x11a0	;r3 As==00
    af62:	5f 4b 08 00 	mov.b	8(r11),	r15	;0x0008(r11)
    af66:	7f f0 80 ff 	and.b	#-128,	r15	;#0xff80
    af6a:	c2 4f 24 11 	mov.b	r15,	&0x1124	
    af6e:	f2 f0 fd ff ac 1b 	and.b	#-3,	&0x1bac	;#0xfffd
    af74:	b0 12 d0 8b 	call	#0x8bd0	
    af78:	b0 12 18 91 	call	#0x9118	
    af7c:	27 3c       	jmp	$+80     	;abs 0xafcc
    af7e:	d2 43 a0 11 	mov.b	#1,	&0x11a0	;r3 As==01
    af82:	5e 4b 08 00 	mov.b	8(r11),	r14	;0x0008(r11)
    af86:	0c 4e       	mov	r14,	r12	
    af88:	3c f0 38 00 	and	#56,	r12	;#0x0038
    af8c:	0c 11       	rra	r12		
    af8e:	0c 11       	rra	r12		
    af90:	0c 11       	rra	r12		
    af92:	c2 4c 23 11 	mov.b	r12,	&0x1123	
    af96:	7e f0 07 00 	and.b	#7,	r14	;#0x0007
    af9a:	c2 4e 22 11 	mov.b	r14,	&0x1122	
    af9e:	d2 4b 04 00 9e 11 	mov.b	4(r11),	&0x119e	;0x0004(r11)
    afa4:	3d 40 10 00 	mov	#16,	r13	;#0x0010
    afa8:	0e 4b       	mov	r11,	r14	
    afaa:	3e 50 0c 00 	add	#12,	r14	;#0x000c
    afae:	3f 40 ba 12 	mov	#4794,	r15	;#0x12ba
    afb2:	b0 12 a0 ef 	call	#0xefa0	
    afb6:	d2 4b 05 00 9c 11 	mov.b	5(r11),	&0x119c	;0x0005(r11)
    afbc:	5e 4b 08 00 	mov.b	8(r11),	r14	;0x0008(r11)
    afc0:	7e f0 80 ff 	and.b	#-128,	r14	;#0xff80
    afc4:	c2 4e 24 11 	mov.b	r14,	&0x1124	
    afc8:	b0 12 d0 8b 	call	#0x8bd0	
    afcc:	c2 43 ae 11 	mov.b	#0,	&0x11ae	;r3 As==00
    afd0:	30 40 64 b2 	br	#0xb264	
    afd4:	c2 93 8c 11 	tst.b	&0x118c	
    afd8:	02 20       	jnz	$+6      	;abs 0xafde
    afda:	30 40 64 b2 	br	#0xb264	
    afde:	3a 92       	cmp	#8,	r10	;r2 As==11
    afe0:	02 2c       	jc	$+6      	;abs 0xafe6
    afe2:	30 40 64 b2 	br	#0xb264	
    afe6:	5c 4b 05 00 	mov.b	5(r11),	r12	;0x0005(r11)
    afea:	3c f0 40 00 	and	#64,	r12	;#0x0040
    afee:	79 40 06 00 	mov.b	#6,	r9	;#0x0006
    aff2:	0c 11       	rra	r12		
    aff4:	79 53       	add.b	#-1,	r9	;r3 As==11
    aff6:	fd 23       	jnz	$-4      	;abs 0xaff2
    aff8:	09 4b       	mov	r11,	r9	
    affa:	0c 93       	tst	r12		
    affc:	06 24       	jz	$+14     	;abs 0xb00a
    affe:	39 50 18 00 	add	#24,	r9	;#0x0018
    b002:	0c 4a       	mov	r10,	r12	
    b004:	3c 50 e8 ff 	add	#-24,	r12	;#0xffe8
    b008:	03 3c       	jmp	$+8      	;abs 0xb010
    b00a:	39 52       	add	#8,	r9	;r2 As==11
    b00c:	0c 4a       	mov	r10,	r12	
    b00e:	3c 82       	sub	#8,	r12	;r2 As==11
    b010:	2c 93       	cmp	#2,	r12	;r3 As==10
    b012:	02 2c       	jc	$+6      	;abs 0xb018
    b014:	30 40 64 b2 	br	#0xb264	
    b018:	07 43       	clr	r7		
    b01a:	08 43       	clr	r8		
    b01c:	2b 3c       	jmp	$+88     	;abs 0xb074
    b01e:	6f 49       	mov.b	@r9,	r15	
    b020:	7f 90 05 00 	cmp.b	#5,	r15	;#0x0005
    b024:	0c 20       	jnz	$+26     	;abs 0xb03e
    b026:	5f 49 01 00 	mov.b	1(r9),	r15	;0x0001(r9)
    b02a:	0e 4f       	mov	r15,	r14	
    b02c:	2e 53       	incd	r14		
    b02e:	0c 9e       	cmp	r14,	r12	
    b030:	02 2c       	jc	$+6      	;abs 0xb036
    b032:	30 40 64 b2 	br	#0xb264	
    b036:	0c 8f       	sub	r15,	r12	
    b038:	2c 83       	decd	r12		
    b03a:	08 49       	mov	r9,	r8	
    b03c:	0e 3c       	jmp	$+30     	;abs 0xb05a
    b03e:	7f 90 06 00 	cmp.b	#6,	r15	;#0x0006
    b042:	0d 20       	jnz	$+28     	;abs 0xb05e
    b044:	5f 49 01 00 	mov.b	1(r9),	r15	;0x0001(r9)
    b048:	0e 4f       	mov	r15,	r14	
    b04a:	2e 53       	incd	r14		
    b04c:	0c 9e       	cmp	r14,	r12	
    b04e:	02 2c       	jc	$+6      	;abs 0xb054
    b050:	30 40 64 b2 	br	#0xb264	
    b054:	0c 8f       	sub	r15,	r12	
    b056:	2c 83       	decd	r12		
    b058:	07 49       	mov	r9,	r7	
    b05a:	09 5e       	add	r14,	r9	
    b05c:	0b 3c       	jmp	$+24     	;abs 0xb074
    b05e:	5f 49 01 00 	mov.b	1(r9),	r15	;0x0001(r9)
    b062:	0e 4f       	mov	r15,	r14	
    b064:	2e 53       	incd	r14		
    b066:	0c 9e       	cmp	r14,	r12	
    b068:	02 2c       	jc	$+6      	;abs 0xb06e
    b06a:	30 40 64 b2 	br	#0xb264	
    b06e:	09 5e       	add	r14,	r9	
    b070:	0c 8f       	sub	r15,	r12	
    b072:	2c 83       	decd	r12		
    b074:	3c 90 03 00 	cmp	#3,	r12	;#0x0003
    b078:	d2 2f       	jc	$-90     	;abs 0xb01e
    b07a:	08 93       	tst	r8		
    b07c:	02 20       	jnz	$+6      	;abs 0xb082
    b07e:	30 40 64 b2 	br	#0xb264	
    b082:	07 93       	tst	r7		
    b084:	02 20       	jnz	$+6      	;abs 0xb08a
    b086:	30 40 64 b2 	br	#0xb264	
    b08a:	3d 40 10 00 	mov	#16,	r13	;#0x0010
    b08e:	0e 43       	clr	r14		
    b090:	0f 41       	mov	r1,	r15	
    b092:	3f 50 46 00 	add	#70,	r15	;#0x0046
    b096:	b0 12 94 f1 	call	#0xf194	
    b09a:	5d 48 03 00 	mov.b	3(r8),	r13	;0x0003(r8)
    b09e:	12 c3       	clrc			
    b0a0:	4d 10       	rrc.b	r13		
    b0a2:	12 c3       	clrc			
    b0a4:	4d 10       	rrc.b	r13		
    b0a6:	12 c3       	clrc			
    b0a8:	4d 10       	rrc.b	r13		
    b0aa:	3d f0 1f 00 	and	#31,	r13	;#0x001f
    b0ae:	0e 48       	mov	r8,	r14	
    b0b0:	2e 52       	add	#4,	r14	;r2 As==10
    b0b2:	0f 41       	mov	r1,	r15	
    b0b4:	3f 50 46 00 	add	#70,	r15	;#0x0046
    b0b8:	b0 12 a0 ef 	call	#0xefa0	
    b0bc:	59 48 03 00 	mov.b	3(r8),	r9	;0x0003(r8)
    b0c0:	45 49       	mov.b	r9,	r5	
    b0c2:	0e 45       	mov	r5,	r14	
    b0c4:	0f 41       	mov	r1,	r15	
    b0c6:	3f 50 46 00 	add	#70,	r15	;#0x0046
    b0ca:	b0 12 2a 56 	call	#0x562a	
    b0ce:	0c 4f       	mov	r15,	r12	
    b0d0:	0f 93       	tst	r15		
    b0d2:	35 24       	jz	$+108    	;abs 0xb13e
    b0d4:	c7 93 05 00 	tst.b	5(r7)		;0x0005(r7)
    b0d8:	0f 20       	jnz	$+32     	;abs 0xb0f8
    b0da:	09 43       	clr	r9		
    b0dc:	0e 4c       	mov	r12,	r14	
    b0de:	0e 59       	add	r9,	r14	
    b0e0:	0f 46       	mov	r6,	r15	
    b0e2:	0f 59       	add	r9,	r15	
    b0e4:	de 9f 08 00 16 00 	cmp.b	8(r15),	22(r14)	;0x0008(r15), 0x0016(r14)
    b0ea:	72 20       	jnz	$+230    	;abs 0xb1d0
    b0ec:	19 53       	inc	r9		
    b0ee:	39 90 10 00 	cmp	#16,	r9	;#0x0010
    b0f2:	f4 23       	jnz	$-22     	;abs 0xb0dc
    b0f4:	30 40 9e b3 	br	#0xb39e	
    b0f8:	5e 4f 14 00 	mov.b	20(r15),r14	;0x0014(r15)
    b0fc:	4e 99       	cmp.b	r9,	r14	
    b0fe:	1f 20       	jnz	$+64     	;abs 0xb13e
    b100:	09 43       	clr	r9		
    b102:	0d 4c       	mov	r12,	r13	
    b104:	0d 59       	add	r9,	r13	
    b106:	0f 46       	mov	r6,	r15	
    b108:	0f 59       	add	r9,	r15	
    b10a:	dd 9f 08 00 16 00 	cmp.b	8(r15),	22(r13)	;0x0008(r15), 0x0016(r13)
    b110:	05 20       	jnz	$+12     	;abs 0xb11c
    b112:	19 53       	inc	r9		
    b114:	39 90 10 00 	cmp	#16,	r9	;#0x0010
    b118:	f4 23       	jnz	$-22     	;abs 0xb102
    b11a:	5a 3c       	jmp	$+182    	;abs 0xb1d0
    b11c:	d2 53 18 11 	inc.b	&0x1118	
    b120:	4e 93       	tst.b	r14		
    b122:	56 24       	jz	$+174    	;abs 0xb1d0
    b124:	5c 43       	mov.b	#1,	r12	;r3 As==01
    b126:	0d 46       	mov	r6,	r13	
    b128:	3d 52       	add	#8,	r13	;r2 As==11
    b12a:	0e 45       	mov	r5,	r14	
    b12c:	0f 41       	mov	r1,	r15	
    b12e:	3f 50 46 00 	add	#70,	r15	;#0x0046
    b132:	b0 12 58 6c 	call	#0x6c58	
    b136:	09 4f       	mov	r15,	r9	
    b138:	3f 93       	cmp	#-1,	r15	;r3 As==11
    b13a:	36 20       	jnz	$+110    	;abs 0xb1a8
    b13c:	49 3c       	jmp	$+148    	;abs 0xb1d0
    b13e:	09 41       	mov	r1,	r9	
    b140:	39 50 56 00 	add	#86,	r9	;#0x0056
    b144:	0f 49       	mov	r9,	r15	
    b146:	b0 12 3a 48 	call	#0x483a	
    b14a:	f2 90 14 00 8e 11 	cmp.b	#20,	&0x118e	;#0x0014
    b150:	89 24       	jz	$+276    	;abs 0xb264
    b152:	0c 43       	clr	r12		
    b154:	0e 49       	mov	r9,	r14	
    b156:	0e 5c       	add	r12,	r14	
    b158:	3f 40 46 00 	mov	#70,	r15	;#0x0046
    b15c:	0f 51       	add	r1,	r15	
    b15e:	0f 5c       	add	r12,	r15	
    b160:	ee 9f 00 00 	cmp.b	@r15,	0(r14)	;0x0000(r14)
    b164:	05 20       	jnz	$+12     	;abs 0xb170
    b166:	1c 53       	inc	r12		
    b168:	3c 90 10 00 	cmp	#16,	r12	;#0x0010
    b16c:	f3 23       	jnz	$-24     	;abs 0xb154
    b16e:	7a 3c       	jmp	$+246    	;abs 0xb264
    b170:	5e 48 03 00 	mov.b	3(r8),	r14	;0x0003(r8)
    b174:	4e 93       	tst.b	r14		
    b176:	2c 24       	jz	$+90     	;abs 0xb1d0
    b178:	5c 43       	mov.b	#1,	r12	;r3 As==01
    b17a:	0d 46       	mov	r6,	r13	
    b17c:	3d 52       	add	#8,	r13	;r2 As==11
    b17e:	4e 4e       	mov.b	r14,	r14	
    b180:	0f 41       	mov	r1,	r15	
    b182:	3f 50 46 00 	add	#70,	r15	;#0x0046
    b186:	b0 12 58 6c 	call	#0x6c58	
    b18a:	09 4f       	mov	r15,	r9	
    b18c:	3f 93       	cmp	#-1,	r15	;r3 As==11
    b18e:	20 24       	jz	$+66     	;abs 0xb1d0
    b190:	5d 42 8e 11 	mov.b	&0x118e,r13	
    b194:	4e 4d       	mov.b	r13,	r14	
    b196:	0c 4e       	mov	r14,	r12	
    b198:	0c 5c       	rla	r12		
    b19a:	0c 5e       	add	r14,	r12	
    b19c:	0c 5c       	rla	r12		
    b19e:	8c 4f 90 24 	mov	r15,	9360(r12);0x2490(r12)
    b1a2:	5d 53       	inc.b	r13		
    b1a4:	c2 4d 8e 11 	mov.b	r13,	&0x118e	
    b1a8:	5e 42 8e 11 	mov.b	&0x118e,r14	
    b1ac:	3c 40 90 24 	mov	#9360,	r12	;#0x2490
    b1b0:	48 43       	clr.b	r8		
    b1b2:	0c 3c       	jmp	$+26     	;abs 0xb1cc
    b1b4:	29 9c       	cmp	@r12,	r9	
    b1b6:	07 20       	jnz	$+16     	;abs 0xb1c6
    b1b8:	dc 47 05 00 02 00 	mov.b	5(r7),	2(r12)	;0x0005(r7), 0x0002(r12)
    b1be:	cc 43 03 00 	mov.b	#0,	3(r12)	;r3 As==00, 0x0003(r12)
    b1c2:	8c 43 04 00 	mov	#0,	4(r12)	;r3 As==00, 0x0004(r12)
    b1c6:	58 53       	inc.b	r8		
    b1c8:	3c 50 06 00 	add	#6,	r12	;#0x0006
    b1cc:	48 9e       	cmp.b	r14,	r8	
    b1ce:	f2 23       	jnz	$-26     	;abs 0xb1b4
    b1d0:	b0 12 f2 69 	call	#0x69f2	
    b1d4:	1f 92 7c 11 	cmp	&0x117c,r15	
    b1d8:	45 24       	jz	$+140    	;abs 0xb264
    b1da:	b0 12 4c 48 	call	#0x484c	
    b1de:	09 4f       	mov	r15,	r9	
    b1e0:	0f 93       	tst	r15		
    b1e2:	40 24       	jz	$+130    	;abs 0xb264
    b1e4:	3d 40 28 00 	mov	#40,	r13	;#0x0028
    b1e8:	0e 46       	mov	r6,	r14	
    b1ea:	2f 52       	add	#4,	r15	;r2 As==10
    b1ec:	b0 12 96 ed 	call	#0xed96	
    b1f0:	08 49       	mov	r9,	r8	
    b1f2:	38 50 2c 00 	add	#44,	r8	;#0x002c
    b1f6:	0d 4a       	mov	r10,	r13	
    b1f8:	0e 4b       	mov	r11,	r14	
    b1fa:	0f 48       	mov	r8,	r15	
    b1fc:	b0 12 96 ed 	call	#0xed96	
    b200:	89 48 6e 00 	mov	r8,	110(r9)	;0x006e(r9)
    b204:	5e 46 04 00 	mov.b	4(r6),	r14	;0x0004(r6)
    b208:	5c 46 05 00 	mov.b	5(r6),	r12	;0x0005(r6)
    b20c:	8c 10       	swpb	r12		
    b20e:	0c de       	bis	r14,	r12	
    b210:	0a 4c       	mov	r12,	r10	
    b212:	8a 10       	swpb	r10		
    b214:	4a 4a       	mov.b	r10,	r10	
    b216:	4c 4c       	mov.b	r12,	r12	
    b218:	8c 10       	swpb	r12		
    b21a:	0c da       	bis	r10,	r12	
    b21c:	89 4c 70 00 	mov	r12,	112(r9)	;0x0070(r9)
    b220:	89 43 72 00 	mov	#0,	114(r9)	;r3 As==00, 0x0072(r9)
    b224:	0f 49       	mov	r9,	r15	
    b226:	3f 50 6e 00 	add	#110,	r15	;#0x006e
    b22a:	89 4f 02 00 	mov	r15,	2(r9)	;0x0002(r9)
    b22e:	f2 90 05 00 86 11 	cmp.b	#5,	&0x1186	;#0x0005
    b234:	05 2c       	jc	$+12     	;abs 0xb240
    b236:	0f 49       	mov	r9,	r15	
    b238:	b0 12 d6 58 	call	#0x58d6	
    b23c:	4f 93       	tst.b	r15		
    b23e:	04 24       	jz	$+10     	;abs 0xb248
    b240:	0f 49       	mov	r9,	r15	
    b242:	b0 12 a6 58 	call	#0x58a6	
    b246:	0e 3c       	jmp	$+30     	;abs 0xb264
    b248:	e2 b3 ca 1b 	bit.b	#2,	&0x1bca	;r3 As==10
    b24c:	0c 43       	clr	r12		
    b24e:	0c 6c       	rlc	r12		
    b250:	4c 93       	tst.b	r12		
    b252:	08 20       	jnz	$+18     	;abs 0xb264
    b254:	1d 42 10 11 	mov	&0x1110,r13	
    b258:	1e 42 12 11 	mov	&0x1112,r14	
    b25c:	7f 40 07 00 	mov.b	#7,	r15	;#0x0007
    b260:	b0 12 3a 8b 	call	#0x8b3a	
    b264:	cb 93 01 00 	tst.b	1(r11)		;0x0001(r11)
    b268:	a0 20       	jnz	$+322    	;abs 0xb3aa
    b26a:	c2 93 a2 11 	tst.b	&0x11a2	
    b26e:	9d 24       	jz	$+316    	;abs 0xb3aa
    b270:	c2 93 a4 11 	tst.b	&0x11a4	
    b274:	9a 20       	jnz	$+310    	;abs 0xb3aa
    b276:	1f 41 16 02 	mov	534(r1),r15	;0x0216(r1)
    b27a:	b0 12 ba 7b 	call	#0x7bba	
    b27e:	4f 93       	tst.b	r15		
    b280:	94 24       	jz	$+298    	;abs 0xb3aa
    b282:	f6 93 18 00 	cmp.b	#-1,	24(r6)	;r3 As==11, 0x0018(r6)
    b286:	09 20       	jnz	$+20     	;abs 0xb29a
    b288:	5f 46 19 00 	mov.b	25(r6),	r15	;0x0019(r6)
    b28c:	3f f0 0f 00 	and	#15,	r15	;#0x000f
    b290:	2f 92       	cmp	#4,	r15	;r2 As==10
    b292:	03 34       	jge	$+8      	;abs 0xb29a
    b294:	b0 12 d0 8b 	call	#0x8bd0	
    b298:	88 3c       	jmp	$+274    	;abs 0xb3aa
    b29a:	d2 43 98 11 	mov.b	#1,	&0x1198	;r3 As==01
    b29e:	3d 40 10 00 	mov	#16,	r13	;#0x0010
    b2a2:	0e 46       	mov	r6,	r14	
    b2a4:	3e 52       	add	#8,	r14	;r2 As==11
    b2a6:	3f 40 68 24 	mov	#9320,	r15	;#0x2468
    b2aa:	b0 12 a0 ef 	call	#0xefa0	
    b2ae:	7f 40 1d 00 	mov.b	#29,	r15	;#0x001d
    b2b2:	b0 12 14 6b 	call	#0x6b14	
    b2b6:	79 3c       	jmp	$+244    	;abs 0xb3aa
    b2b8:	f1 40 2b 00 01 00 	mov.b	#43,	1(r1)	;#0x002b, 0x0001(r1)
    b2be:	0a 41       	mov	r1,	r10	
    b2c0:	3a 50 14 00 	add	#20,	r10	;#0x0014
    b2c4:	0d 41       	mov	r1,	r13	
    b2c6:	1d 53       	inc	r13		
    b2c8:	4e 4c       	mov.b	r12,	r14	
    b2ca:	0f 4a       	mov	r10,	r15	
    b2cc:	b0 12 e2 56 	call	#0x56e2	
    b2d0:	5c 46 07 00 	mov.b	7(r6),	r12	;0x0007(r6)
    b2d4:	7c 53       	add.b	#-1,	r12	;r3 As==11
    b2d6:	c6 4c 07 00 	mov.b	r12,	7(r6)	;0x0007(r6)
    b2da:	67 24       	jz	$+208    	;abs 0xb3aa
    b2dc:	0f 93       	tst	r15		
    b2de:	65 34       	jge	$+204    	;abs 0xb3aa
    b2e0:	3e 40 80 00 	mov	#128,	r14	;#0x0080
    b2e4:	1f 41 16 02 	mov	534(r1),r15	;0x0216(r1)
    b2e8:	b0 12 2a 56 	call	#0x562a	
    b2ec:	0b 4f       	mov	r15,	r11	
    b2ee:	0f 93       	tst	r15		
    b2f0:	5c 24       	jz	$+186    	;abs 0xb3aa
    b2f2:	58 4f 26 00 	mov.b	38(r15),r8	;0x0026(r15)
    b2f6:	3d 40 28 00 	mov	#40,	r13	;#0x0028
    b2fa:	0e 46       	mov	r6,	r14	
    b2fc:	0f 41       	mov	r1,	r15	
    b2fe:	3f 50 fa 00 	add	#250,	r15	;#0x00fa
    b302:	b0 12 a0 ef 	call	#0xefa0	
    b306:	81 4a f8 00 	mov	r10,	248(r1)	;0x00f8(r1)
    b30a:	4e 49       	mov.b	r9,	r14	
    b30c:	81 4e f6 00 	mov	r14,	246(r1)	;0x00f6(r1)
    b310:	68 93       	cmp.b	#2,	r8	;r3 As==10
    b312:	2d 20       	jnz	$+92     	;abs 0xb36e
    b314:	c1 43 00 00 	mov.b	#0,	0(r1)	;r3 As==00, 0x0000(r1)
    b318:	2e 93       	cmp	#2,	r14	;r3 As==10
    b31a:	47 24       	jz	$+144    	;abs 0xb3aa
    b31c:	0d 41       	mov	r1,	r13	
    b31e:	5e 41 00 01 	mov.b	256(r1),r14	;0x0100(r1)
    b322:	0f 4a       	mov	r10,	r15	
    b324:	b0 12 e2 56 	call	#0x56e2	
    b328:	0e 4f       	mov	r15,	r14	
    b32a:	0f 93       	tst	r15		
    b32c:	20 38       	jl	$+66     	;abs 0xb36e
    b32e:	1a 41 f8 00 	mov	248(r1),r10	;0x00f8(r1)
    b332:	7d 40 63 00 	mov.b	#99,	r13	;#0x0063
    b336:	0f 4a       	mov	r10,	r15	
    b338:	b0 12 52 57 	call	#0x5752	
    b33c:	09 4f       	mov	r15,	r9	
    b33e:	0f 93       	tst	r15		
    b340:	16 38       	jl	$+46     	;abs 0xb36e
    b342:	0c 41       	mov	r1,	r12	
    b344:	2c 53       	incd	r12		
    b346:	2d 43       	mov	#2,	r13	;r3 As==10
    b348:	0e 4f       	mov	r15,	r14	
    b34a:	0f 4a       	mov	r10,	r15	
    b34c:	b0 12 ec e6 	call	#0xe6ec	
    b350:	2f 93       	cmp	#2,	r15	;r3 As==10
    b352:	0d 20       	jnz	$+28     	;abs 0xb36e
    b354:	d1 43 04 00 	mov.b	#1,	4(r1)	;r3 As==01, 0x0004(r1)
    b358:	0c 41       	mov	r1,	r12	
    b35a:	2c 52       	add	#4,	r12	;r2 As==10
    b35c:	1d 43       	mov	#1,	r13	;r3 As==01
    b35e:	0e 49       	mov	r9,	r14	
    b360:	0f 4a       	mov	r10,	r15	
    b362:	b0 12 8e e7 	call	#0xe78e	
    b366:	81 43 04 00 	mov	#0,	4(r1)	;r3 As==00, 0x0004(r1)
    b36a:	81 43 06 00 	mov	#0,	6(r1)	;r3 As==00, 0x0006(r1)
    b36e:	0d 41       	mov	r1,	r13	
    b370:	3d 50 f6 00 	add	#246,	r13	;#0x00f6
    b374:	0e 4b       	mov	r11,	r14	
    b376:	3e 50 16 00 	add	#22,	r14	;#0x0016
    b37a:	4f 48       	mov.b	r8,	r15	
    b37c:	b0 12 84 a2 	call	#0xa284	
    b380:	14 3c       	jmp	$+42     	;abs 0xb3aa
    b382:	0f 41       	mov	r1,	r15	
    b384:	3f 50 d6 00 	add	#214,	r15	;#0x00d6
    b388:	b0 12 8c 7c 	call	#0x7c8c	
    b38c:	30 40 2e a6 	br	#0xa62e	
    b390:	c2 93 b2 11 	tst.b	&0x11b2	
    b394:	02 24       	jz	$+6      	;abs 0xb39a
    b396:	30 40 ba ac 	br	#0xacba	
    b39a:	30 40 90 ac 	br	#0xac90	
    b39e:	1f 4c 02 00 	mov	2(r12),	r15	;0x0002(r12)
    b3a2:	b0 12 48 54 	call	#0x5448	
    b3a6:	30 40 d0 b1 	br	#0xb1d0	
    b3aa:	31 50 18 02 	add	#536,	r1	;#0x0218
    b3ae:	34 41       	pop	r4		
    b3b0:	35 41       	pop	r5		
    b3b2:	36 41       	pop	r6		
    b3b4:	37 41       	pop	r7		
    b3b6:	38 41       	pop	r8		
    b3b8:	39 41       	pop	r9		
    b3ba:	3a 41       	pop	r10		
    b3bc:	3b 41       	pop	r11		
    b3be:	30 41       	ret			

0000b3c0 <CC2420ControlP__writeFsctrl>:
    b3c0:	0b 12       	push	r11		
    b3c2:	b0 12 04 6a 	call	#0x6a04	
    b3c6:	5b 42 de 1c 	mov.b	&0x1cde,r11	
    b3ca:	b0 12 16 6a 	call	#0x6a16	
    b3ce:	0f 4b       	mov	r11,	r15	
    b3d0:	0f 5f       	rla	r15		
    b3d2:	0f 5f       	rla	r15		
    b3d4:	0f 5b       	add	r11,	r15	
    b3d6:	3f 50 2e 01 	add	#302,	r15	;#0x012e
    b3da:	0e 4f       	mov	r15,	r14	
    b3dc:	3e d0 00 40 	bis	#16384,	r14	;#0x4000
    b3e0:	7f 40 18 00 	mov.b	#24,	r15	;#0x0018
    b3e4:	b0 12 b8 72 	call	#0x72b8	
    b3e8:	3b 41       	pop	r11		
    b3ea:	30 41       	ret			

0000b3ec <CC2420ControlP__writeMdmctrl0>:
    b3ec:	0b 12       	push	r11		
    b3ee:	b0 12 04 6a 	call	#0x6a04	
    b3f2:	4b 4f       	mov.b	r15,	r11	
    b3f4:	c2 93 b1 12 	tst.b	&0x12b1	
    b3f8:	04 24       	jz	$+10     	;abs 0xb402
    b3fa:	1e 43       	mov	#1,	r14	;r3 As==01
    b3fc:	c2 93 14 2a 	tst.b	&0x2a14	
    b400:	01 20       	jnz	$+4      	;abs 0xb404
    b402:	0e 43       	clr	r14		
    b404:	4e 4e       	mov.b	r14,	r14	
    b406:	8e 10       	swpb	r14		
    b408:	0e 5e       	rla	r14		
    b40a:	0e 5e       	rla	r14		
    b40c:	0e 5e       	rla	r14		
    b40e:	c2 93 cf 14 	tst.b	&0x14cf	
    b412:	04 24       	jz	$+10     	;abs 0xb41c
    b414:	1d 43       	mov	#1,	r13	;r3 As==01
    b416:	c2 93 b3 1c 	tst.b	&0x1cb3	
    b41a:	01 20       	jnz	$+4      	;abs 0xb41e
    b41c:	0d 43       	clr	r13		
    b41e:	3e d0 e2 22 	bis	#8930,	r14	;#0x22e2
    b422:	0d 5d       	rla	r13		
    b424:	0d 5d       	rla	r13		
    b426:	0d 5d       	rla	r13		
    b428:	0d 5d       	rla	r13		
    b42a:	0e dd       	bis	r13,	r14	
    b42c:	7f 40 11 00 	mov.b	#17,	r15	;#0x0011
    b430:	b0 12 b8 72 	call	#0x72b8	
    b434:	4f 4b       	mov.b	r11,	r15	
    b436:	b0 12 16 6a 	call	#0x6a16	
    b43a:	3b 41       	pop	r11		
    b43c:	30 41       	ret			

0000b43e <CC2420TransmitP__loadTXFIFO>:
    b43e:	0b 12       	push	r11		
    b440:	0a 12       	push	r10		
    b442:	09 12       	push	r9		
    b444:	1b 42 d8 14 	mov	&0x14d8,r11	
    b448:	5a 4b 7e 00 	mov.b	126(r11),r10	;0x007e(r11)
    b44c:	4a 93       	tst.b	r10		
    b44e:	02 20       	jnz	$+6      	;abs 0xb454
    b450:	7a 40 1f 00 	mov.b	#31,	r10	;#0x001f
    b454:	b0 12 04 6b 	call	#0x6b04	
    b458:	c2 9a b0 12 	cmp.b	r10,	&0x12b0	
    b45c:	07 24       	jz	$+16     	;abs 0xb46c
    b45e:	4e 4a       	mov.b	r10,	r14	
    b460:	3e d0 e0 80 	bis	#-32544,r14	;#0x80e0
    b464:	7f 40 15 00 	mov.b	#21,	r15	;#0x0015
    b468:	b0 12 b8 72 	call	#0x72b8	
    b46c:	c2 4a b0 12 	mov.b	r10,	&0x12b0	
    b470:	69 4b       	mov.b	@r11,	r9	
    b472:	b0 12 04 6a 	call	#0x6a04	
    b476:	4a 4f       	mov.b	r15,	r10	
    b478:	b0 12 9a 6a 	call	#0x6a9a	
    b47c:	4f 93       	tst.b	r15		
    b47e:	04 24       	jz	$+10     	;abs 0xb488
    b480:	4f 4a       	mov.b	r10,	r15	
    b482:	b0 12 16 6a 	call	#0x6a16	
    b486:	20 3c       	jmp	$+66     	;abs 0xb4c8
    b488:	4f 4a       	mov.b	r10,	r15	
    b48a:	b0 12 16 6a 	call	#0x6a16	
    b48e:	b2 40 3e 00 96 15 	mov	#62,	&0x1596	;#0x003e
    b494:	7f 40 3e 00 	mov.b	#62,	r15	;#0x003e
    b498:	b0 12 88 49 	call	#0x4988	
    b49c:	4f 49       	mov.b	r9,	r15	
    b49e:	7f 53       	add.b	#-1,	r15	;r3 As==11
    b4a0:	4f 4f       	mov.b	r15,	r15	
    b4a2:	c2 43 94 15 	mov.b	#0,	&0x1594	;r3 As==00
    b4a6:	82 4b 32 15 	mov	r11,	&0x1532	
    b4aa:	82 43 e4 1b 	mov	#0,	&0x1be4	;r3 As==00
    b4ae:	82 4f 88 24 	mov	r15,	&0x2488	
    b4b2:	82 43 78 24 	mov	#0,	&0x2478	;r3 As==00
    b4b6:	0f 93       	tst	r15		
    b4b8:	03 24       	jz	$+8      	;abs 0xb4c0
    b4ba:	b0 12 36 6e 	call	#0x6e36	
    b4be:	04 3c       	jmp	$+10     	;abs 0xb4c8
    b4c0:	7f 40 11 00 	mov.b	#17,	r15	;#0x0011
    b4c4:	b0 12 14 6b 	call	#0x6b14	
    b4c8:	39 41       	pop	r9		
    b4ca:	3a 41       	pop	r10		
    b4cc:	3b 41       	pop	r11		
    b4ce:	30 41       	ret			

0000b4d0 <VirtualizeTimerC__0__fireTimers>:
    b4d0:	0b 12       	push	r11		
    b4d2:	0a 12       	push	r10		
    b4d4:	09 12       	push	r9		
    b4d6:	08 12       	push	r8		
    b4d8:	07 12       	push	r7		
    b4da:	06 12       	push	r6		
    b4dc:	05 12       	push	r5		
    b4de:	06 4e       	mov	r14,	r6	
    b4e0:	07 4f       	mov	r15,	r7	
    b4e2:	05 43       	clr	r5		
    b4e4:	0e 45       	mov	r5,	r14	
    b4e6:	0e 5e       	rla	r14		
    b4e8:	0f 4e       	mov	r14,	r15	
    b4ea:	0f 5f       	rla	r15		
    b4ec:	0f 5f       	rla	r15		
    b4ee:	0f 5e       	add	r14,	r15	
    b4f0:	3f 50 7c 1b 	add	#7036,	r15	;#0x1b7c
    b4f4:	5e 4f 08 00 	mov.b	8(r15),	r14	;0x0008(r15)
    b4f8:	6e b3       	bit.b	#2,	r14	;r3 As==10
    b4fa:	ef 24       	jz	$+480    	;abs 0xb6da
    b4fc:	2a 4f       	mov	@r15,	r10	
    b4fe:	1b 4f 02 00 	mov	2(r15),	r11	;0x0002(r15)
    b502:	1c 4f 04 00 	mov	4(r15),	r12	;0x0004(r15)
    b506:	1d 4f 06 00 	mov	6(r15),	r13	;0x0006(r15)
    b50a:	08 46       	mov	r6,	r8	
    b50c:	09 47       	mov	r7,	r9	
    b50e:	08 8a       	sub	r10,	r8	
    b510:	09 7b       	subc	r11,	r9	
    b512:	09 9d       	cmp	r13,	r9	
    b514:	e2 28       	jnc	$+454    	;abs 0xb6da
    b516:	02 20       	jnz	$+6      	;abs 0xb51c
    b518:	08 9c       	cmp	r12,	r8	
    b51a:	df 28       	jnc	$+448    	;abs 0xb6da
    b51c:	5e f3       	and.b	#1,	r14	;r3 As==01
    b51e:	04 24       	jz	$+10     	;abs 0xb528
    b520:	ff f0 fd ff 08 00 	and.b	#-3,	8(r15)	;#0xfffd, 0x0008(r15)
    b526:	08 3c       	jmp	$+18     	;abs 0xb538
    b528:	08 4c       	mov	r12,	r8	
    b52a:	09 4d       	mov	r13,	r9	
    b52c:	08 5a       	add	r10,	r8	
    b52e:	09 6b       	addc	r11,	r9	
    b530:	8f 48 00 00 	mov	r8,	0(r15)	;0x0000(r15)
    b534:	8f 49 02 00 	mov	r9,	2(r15)	;0x0002(r15)
    b538:	75 90 0a 00 	cmp.b	#10,	r5	;#0x000a
    b53c:	d4 2c       	jc	$+426    	;abs 0xb6e6
    b53e:	4f 45       	mov.b	r5,	r15	
    b540:	0f 5f       	rla	r15		
    b542:	10 4f 4c f2 	br	-3508(r15)	;0xf24c(r15)
    b546:	1f 42 de 11 	mov	&0x11de,r15	
    b54a:	1f 53       	inc	r15		
    b54c:	82 4f de 11 	mov	r15,	&0x11de	
    b550:	3f 90 03 00 	cmp	#3,	r15	;#0x0003
    b554:	04 28       	jnc	$+10     	;abs 0xb55e
    b556:	3d 40 00 f0 	mov	#-4096,	r13	;#0xf000
    b55a:	0e 43       	clr	r14		
    b55c:	03 3c       	jmp	$+8      	;abs 0xb564
    b55e:	3d 40 00 28 	mov	#10240,	r13	;#0x2800
    b562:	0e 43       	clr	r14		
    b564:	4f 43       	clr.b	r15		
    b566:	b0 12 3a 8b 	call	#0x8b3a	
    b56a:	7f 40 0d 00 	mov.b	#13,	r15	;#0x000d
    b56e:	42 3c       	jmp	$+134    	;abs 0xb5f4
    b570:	b0 12 04 6a 	call	#0x6a04	
    b574:	5a 42 90 1c 	mov.b	&0x1c90,r10	
    b578:	b0 12 16 6a 	call	#0x6a16	
    b57c:	5a 93       	cmp.b	#1,	r10	;r3 As==01
    b57e:	b3 20       	jnz	$+360    	;abs 0xb6e6
    b580:	7f 40 1b 00 	mov.b	#27,	r15	;#0x001b
    b584:	37 3c       	jmp	$+112    	;abs 0xb5f4
    b586:	3e 40 b4 69 	mov	#27060,	r14	;#0x69b4
    b58a:	3f 40 22 1b 	mov	#6946,	r15	;#0x1b22
    b58e:	b0 12 00 ee 	call	#0xee00	
    b592:	a9 3c       	jmp	$+340    	;abs 0xb6e6
    b594:	c2 93 a8 11 	tst.b	&0x11a8	
    b598:	1c 24       	jz	$+58     	;abs 0xb5d2
    b59a:	c2 43 a8 11 	mov.b	#0,	&0x11a8	;r3 As==00
    b59e:	5f 42 9a 11 	mov.b	&0x119a,r15	
    b5a2:	5f 92 20 11 	cmp.b	&0x1120,r15	
    b5a6:	09 2c       	jc	$+20     	;abs 0xb5ba
    b5a8:	5f 53       	inc.b	r15		
    b5aa:	c2 4f 9a 11 	mov.b	r15,	&0x119a	
    b5ae:	92 52 6c 12 6c 12 	rla	&0x126c	
    b5b4:	92 62 6e 12 6e 12 	rlc	&0x126e	
    b5ba:	e2 b3 ac 1b 	bit.b	#2,	&0x1bac	;r3 As==10
    b5be:	0f 43       	clr	r15		
    b5c0:	0f 6f       	rlc	r15		
    b5c2:	4f 93       	tst.b	r15		
    b5c4:	90 20       	jnz	$+290    	;abs 0xb6e6
    b5c6:	c2 93 a2 11 	tst.b	&0x11a2	
    b5ca:	8d 24       	jz	$+284    	;abs 0xb6e6
    b5cc:	b0 12 80 8b 	call	#0x8b80	
    b5d0:	8a 3c       	jmp	$+278    	;abs 0xb6e6
    b5d2:	7f 40 1d 00 	mov.b	#29,	r15	;#0x001d
    b5d6:	b0 12 14 6b 	call	#0x6b14	
    b5da:	7f 40 21 00 	mov.b	#33,	r15	;#0x0021
    b5de:	0a 3c       	jmp	$+22     	;abs 0xb5f4
    b5e0:	7f 40 1e 00 	mov.b	#30,	r15	;#0x001e
    b5e4:	07 3c       	jmp	$+16     	;abs 0xb5f4
    b5e6:	d2 53 9c 11 	inc.b	&0x119c	
    b5ea:	b0 12 d0 8b 	call	#0x8bd0	
    b5ee:	7b 3c       	jmp	$+248    	;abs 0xb6e6
    b5f0:	7f 40 23 00 	mov.b	#35,	r15	;#0x0023
    b5f4:	b0 12 14 6b 	call	#0x6b14	
    b5f8:	76 3c       	jmp	$+238    	;abs 0xb6e6
    b5fa:	b0 12 12 70 	call	#0x7012	
    b5fe:	08 4e       	mov	r14,	r8	
    b600:	1a 42 14 11 	mov	&0x1114,r10	
    b604:	1b 42 16 11 	mov	&0x1116,r11	
    b608:	3c 40 0a 00 	mov	#10,	r12	;#0x000a
    b60c:	0d 43       	clr	r13		
    b60e:	0e 4a       	mov	r10,	r14	
    b610:	0f 4b       	mov	r11,	r15	
    b612:	b0 12 40 ef 	call	#0xef40	
    b616:	0c 4e       	mov	r14,	r12	
    b618:	0d 4f       	mov	r15,	r13	
    b61a:	0e 48       	mov	r8,	r14	
    b61c:	0f 43       	clr	r15		
    b61e:	b0 12 76 ef 	call	#0xef76	
    b622:	0a 5e       	add	r14,	r10	
    b624:	0b 6f       	addc	r15,	r11	
    b626:	7f 40 22 00 	mov.b	#34,	r15	;#0x0022
    b62a:	b0 12 14 6b 	call	#0x6b14	
    b62e:	0d 4a       	mov	r10,	r13	
    b630:	0e 4b       	mov	r11,	r14	
    b632:	7f 42       	mov.b	#8,	r15	;r2 As==11
    b634:	b0 12 3a 8b 	call	#0x8b3a	
    b638:	56 3c       	jmp	$+174    	;abs 0xb6e6
    b63a:	46 48       	mov.b	r8,	r6	
    b63c:	1c 42 0c 11 	mov	&0x110c,r12	
    b640:	1d 42 0e 11 	mov	&0x110e,r13	
    b644:	0e 46       	mov	r6,	r14	
    b646:	0e 5e       	rla	r14		
    b648:	0e 56       	add	r6,	r14	
    b64a:	0e 5e       	rla	r14		
    b64c:	0a 4e       	mov	r14,	r10	
    b64e:	3a 50 90 24 	add	#9360,	r10	;#0x2490
    b652:	2a 53       	incd	r10		
    b654:	2e 4a       	mov	@r10,	r14	
    b656:	1f 4a 02 00 	mov	2(r10),	r15	;0x0002(r10)
    b65a:	0e 8c       	sub	r12,	r14	
    b65c:	0f 7d       	subc	r13,	r15	
    b65e:	8a 4e 00 00 	mov	r14,	0(r10)	;0x0000(r10)
    b662:	8a 4f 02 00 	mov	r15,	2(r10)	;0x0002(r10)
    b666:	0d 9f       	cmp	r15,	r13	
    b668:	31 28       	jnc	$+100    	;abs 0xb6cc
    b66a:	02 20       	jnz	$+6      	;abs 0xb670
    b66c:	0c 9e       	cmp	r14,	r12	
    b66e:	2e 28       	jnc	$+94     	;abs 0xb6cc
    b670:	0f 46       	mov	r6,	r15	
    b672:	0f 5f       	rla	r15		
    b674:	0f 56       	add	r6,	r15	
    b676:	0f 5f       	rla	r15		
    b678:	1f 4f 90 24 	mov	9360(r15),r15	;0x2490(r15)
    b67c:	b0 12 48 54 	call	#0x5448	
    b680:	4a 48       	mov.b	r8,	r10	
    b682:	12 3c       	jmp	$+38     	;abs 0xb6a8
    b684:	0f 4e       	mov	r14,	r15	
    b686:	0f 5f       	rla	r15		
    b688:	0f 5e       	add	r14,	r15	
    b68a:	0f 5f       	rla	r15		
    b68c:	1e 53       	inc	r14		
    b68e:	0d 4e       	mov	r14,	r13	
    b690:	0d 5d       	rla	r13		
    b692:	0e 5d       	add	r13,	r14	
    b694:	0e 5e       	rla	r14		
    b696:	3d 40 06 00 	mov	#6,	r13	;#0x0006
    b69a:	3e 50 90 24 	add	#9360,	r14	;#0x2490
    b69e:	3f 50 90 24 	add	#9360,	r15	;#0x2490
    b6a2:	b0 12 a0 ef 	call	#0xefa0	
    b6a6:	5a 53       	inc.b	r10		
    b6a8:	4e 4a       	mov.b	r10,	r14	
    b6aa:	5c 42 8e 11 	mov.b	&0x118e,r12	
    b6ae:	4d 4c       	mov.b	r12,	r13	
    b6b0:	3d 53       	add	#-1,	r13	;r3 As==11
    b6b2:	0e 9d       	cmp	r13,	r14	
    b6b4:	e7 3b       	jl	$-48     	;abs 0xb684
    b6b6:	0f 4d       	mov	r13,	r15	
    b6b8:	0f 5f       	rla	r15		
    b6ba:	0f 5d       	add	r13,	r15	
    b6bc:	0f 5f       	rla	r15		
    b6be:	8f 43 92 24 	mov	#0,	9362(r15);r3 As==00, 0x2492(r15)
    b6c2:	8f 43 94 24 	mov	#0,	9364(r15);r3 As==00, 0x2494(r15)
    b6c6:	7c 53       	add.b	#-1,	r12	;r3 As==11
    b6c8:	c2 4c 8e 11 	mov.b	r12,	&0x118e	
    b6cc:	58 53       	inc.b	r8		
    b6ce:	01 3c       	jmp	$+4      	;abs 0xb6d2
    b6d0:	48 43       	clr.b	r8		
    b6d2:	58 92 8e 11 	cmp.b	&0x118e,r8	
    b6d6:	b1 2b       	jnc	$-156    	;abs 0xb63a
    b6d8:	06 3c       	jmp	$+14     	;abs 0xb6e6
    b6da:	15 53       	inc	r5		
    b6dc:	35 90 0a 00 	cmp	#10,	r5	;#0x000a
    b6e0:	02 24       	jz	$+6      	;abs 0xb6e6
    b6e2:	30 40 e4 b4 	br	#0xb4e4	
    b6e6:	7f 40 14 00 	mov.b	#20,	r15	;#0x0014
    b6ea:	b0 12 14 6b 	call	#0x6b14	
    b6ee:	35 41       	pop	r5		
    b6f0:	36 41       	pop	r6		
    b6f2:	37 41       	pop	r7		
    b6f4:	38 41       	pop	r8		
    b6f6:	39 41       	pop	r9		
    b6f8:	3a 41       	pop	r10		
    b6fa:	3b 41       	pop	r11		
    b6fc:	30 41       	ret			

0000b6fe <CC2420CsmaP__SplitControlState__forceState>:
    b6fe:	0b 12       	push	r11		
    b700:	4b 4f       	mov.b	r15,	r11	
    b702:	b0 12 04 6a 	call	#0x6a04	
    b706:	c2 4b 8d 1c 	mov.b	r11,	&0x1c8d	
    b70a:	b0 12 16 6a 	call	#0x6a16	
    b70e:	3b 41       	pop	r11		
    b710:	30 41       	ret			

0000b712 <CC2420ControlP__RSTN__clr>:
    b712:	b0 12 04 6a 	call	#0x6a04	
    b716:	f2 f0 bf ff 1d 00 	and.b	#-65,	&0x001d	;#0xffbf
    b71c:	b0 12 16 6a 	call	#0x6a16	
    b720:	30 41       	ret			

0000b722 <CC2420ControlP__RSTN__set>:
    b722:	b0 12 04 6a 	call	#0x6a04	
    b726:	f2 d0 40 00 1d 00 	bis.b	#64,	&0x001d	;#0x0040
    b72c:	b0 12 16 6a 	call	#0x6a16	
    b730:	30 41       	ret			

0000b732 <CC2420CsmaP__shutdown>:
    b732:	0b 12       	push	r11		
    b734:	21 83       	decd	r1		
    b736:	b0 12 04 6a 	call	#0x6a04	
    b73a:	4b 4f       	mov.b	r15,	r11	
    b73c:	82 43 c2 11 	mov	#0,	&0x11c2	;r3 As==00
    b740:	b2 f0 ef ff 88 01 	and	#-17,	&0x0188	;#0xffef
    b746:	b2 f0 ef ff 84 01 	and	#-17,	&0x0184	;#0xffef
    b74c:	f2 f0 fd ff 1f 00 	and.b	#-3,	&0x001f	;#0xfffd
    b752:	7f 40 03 00 	mov.b	#3,	r15	;#0x0003
    b756:	b0 12 50 6f 	call	#0x6f50	
    b75a:	b0 12 42 6f 	call	#0x6f42	
    b75e:	4f 4b       	mov.b	r11,	r15	
    b760:	b0 12 16 6a 	call	#0x6a16	
    b764:	b0 12 04 6a 	call	#0x6a04	
    b768:	82 43 98 12 	mov	#0,	&0x1298	;r3 As==00
    b76c:	81 4f 00 00 	mov	r15,	0(r1)	;0x0000(r1)
    b770:	b0 12 66 4c 	call	#0x4c66	
    b774:	b0 12 42 6f 	call	#0x6f42	
    b778:	f2 f0 fe ff 25 00 	and.b	#-2,	&0x0025	;#0xfffe
    b77e:	f2 f0 fe ff 23 00 	and.b	#-2,	&0x0023	;#0xfffe
    b784:	2f 41       	mov	@r1,	r15	
    b786:	b0 12 16 6a 	call	#0x6a16	
    b78a:	82 43 cc 11 	mov	#0,	&0x11cc	;r3 As==00
    b78e:	b0 12 12 b7 	call	#0xb712	
    b792:	b0 12 04 6a 	call	#0x6a04	
    b796:	f2 f0 df ff 1d 00 	and.b	#-33,	&0x001d	;#0xffdf
    b79c:	b0 12 16 6a 	call	#0x6a16	
    b7a0:	b0 12 22 b7 	call	#0xb722	
    b7a4:	7f 40 17 00 	mov.b	#23,	r15	;#0x0017
    b7a8:	b0 12 14 6b 	call	#0x6b14	
    b7ac:	21 53       	incd	r1		
    b7ae:	3b 41       	pop	r11		
    b7b0:	30 41       	ret			

0000b7b2 <PacketLinkP__signalDone.isra.345>:
    b7b2:	0b 12       	push	r11		
    b7b4:	0a 12       	push	r10		
    b7b6:	f2 f0 fd ff 98 1b 	and.b	#-3,	&0x1b98	;#0xfffd
    b7bc:	6f 42       	mov.b	#4,	r15	;r2 As==10
    b7be:	b0 12 2c 6f 	call	#0x6f2c	
    b7c2:	1a 42 24 15 	mov	&0x1524,r10	
    b7c6:	5f 4a 88 00 	mov.b	136(r10),r15	;0x0088(r10)
    b7ca:	8f 10       	swpb	r15		
    b7cc:	5e 4a 89 00 	mov.b	137(r10),r14	;0x0089(r10)
    b7d0:	0f de       	bis	r14,	r15	
    b7d2:	0f 93       	tst	r15		
    b7d4:	07 24       	jz	$+16     	;abs 0xb7e4
    b7d6:	1f 42 a6 23 	mov	&0x23a6,r15	
    b7da:	ca 4f 89 00 	mov.b	r15,	137(r10);0x0089(r10)
    b7de:	8f 10       	swpb	r15		
    b7e0:	ca 4f 88 00 	mov.b	r15,	136(r10);0x0088(r10)
    b7e4:	6f 43       	mov.b	#2,	r15	;r3 As==10
    b7e6:	b0 12 2c 6f 	call	#0x6f2c	
    b7ea:	82 93 0a 25 	tst	&0x250a	
    b7ee:	5a 24       	jz	$+182    	;abs 0xb8a4
    b7f0:	5f 42 bc 11 	mov.b	&0x11bc,r15	
    b7f4:	0f 5f       	rla	r15		
    b7f6:	1b 4f 84 23 	mov	9092(r15),r11	;0x2384(r15)
    b7fa:	c2 43 78 1c 	mov.b	#0,	&0x1c78	;r3 As==00
    b7fe:	e2 93 36 11 	cmp.b	#2,	&0x1136	;r3 As==10
    b802:	21 20       	jnz	$+68     	;abs 0xb846
    b804:	6f 43       	mov.b	#2,	r15	;r3 As==10
    b806:	b0 12 e4 6a 	call	#0x6ae4	
    b80a:	4f 93       	tst.b	r15		
    b80c:	07 24       	jz	$+16     	;abs 0xb81c
    b80e:	7f 40 03 00 	mov.b	#3,	r15	;#0x0003
    b812:	b0 12 fe b6 	call	#0xb6fe	
    b816:	b0 12 32 b7 	call	#0xb732	
    b81a:	12 3c       	jmp	$+38     	;abs 0xb840
    b81c:	b0 12 e4 6a 	call	#0x6ae4	
    b820:	4f 93       	tst.b	r15		
    b822:	0e 20       	jnz	$+30     	;abs 0xb840
    b824:	6f 42       	mov.b	#4,	r15	;r2 As==10
    b826:	b0 12 e4 6a 	call	#0x6ae4	
    b82a:	4f 93       	tst.b	r15		
    b82c:	05 24       	jz	$+12     	;abs 0xb838
    b82e:	7f 40 03 00 	mov.b	#3,	r15	;#0x0003
    b832:	b0 12 fe b6 	call	#0xb6fe	
    b836:	04 3c       	jmp	$+10     	;abs 0xb840
    b838:	7f 40 03 00 	mov.b	#3,	r15	;#0x0003
    b83c:	b0 12 e4 6a 	call	#0x6ae4	
    b840:	d2 43 36 11 	mov.b	#1,	&0x1136	;r3 As==01
    b844:	1c 3c       	jmp	$+58     	;abs 0xb87e
    b846:	2e 4b       	mov	@r11,	r14	
    b848:	5f 4a 88 00 	mov.b	136(r10),r15	;0x0088(r10)
    b84c:	8f 10       	swpb	r15		
    b84e:	5f da 89 00 	bis.b	137(r10),r15	;0x0089(r10)
    b852:	ce 5f 03 00 	add.b	r15,	3(r14)	;0x0003(r14)
    b856:	2f 4b       	mov	@r11,	r15	
    b858:	df 53 04 00 	inc.b	4(r15)		;0x0004(r15)
    b85c:	2f 4b       	mov	@r11,	r15	
    b85e:	ca 93 80 00 	tst.b	128(r10)	;0x0080(r10)
    b862:	07 20       	jnz	$+16     	;abs 0xb872
    b864:	c2 93 35 11 	tst.b	&0x1135	
    b868:	04 24       	jz	$+10     	;abs 0xb872
    b86a:	df 43 05 00 	mov.b	#1,	5(r15)	;r3 As==01, 0x0005(r15)
    b86e:	2f 4b       	mov	@r11,	r15	
    b870:	04 3c       	jmp	$+10     	;abs 0xb87a
    b872:	df 9f 02 00 04 00 	cmp.b	2(r15),	4(r15)	;0x0002(r15), 0x0004(r15)
    b878:	02 20       	jnz	$+6      	;abs 0xb87e
    b87a:	b0 12 78 8f 	call	#0x8f78	
    b87e:	2f 4b       	mov	@r11,	r15	
    b880:	b0 12 e4 59 	call	#0x59e4	
    b884:	1f 4b 02 00 	mov	2(r11),	r15	;0x0002(r11)
    b888:	b0 12 b4 59 	call	#0x59b4	
    b88c:	0f 4b       	mov	r11,	r15	
    b88e:	b0 12 84 59 	call	#0x5984	
    b892:	c2 93 b8 11 	tst.b	&0x11b8	
    b896:	02 24       	jz	$+6      	;abs 0xb89c
    b898:	b0 12 7e 5a 	call	#0x5a7e	
    b89c:	7f 40 15 00 	mov.b	#21,	r15	;#0x0015
    b8a0:	b0 12 14 6b 	call	#0x6b14	
    b8a4:	3a 41       	pop	r10		
    b8a6:	3b 41       	pop	r11		
    b8a8:	30 41       	ret			

0000b8aa <StateImplP__State__requestState.constprop.355>:
    b8aa:	0b 12       	push	r11		
    b8ac:	4b 4f       	mov.b	r15,	r11	
    b8ae:	b0 12 04 6a 	call	#0x6a04	
    b8b2:	4e 4b       	mov.b	r11,	r14	
    b8b4:	3e 50 8c 1c 	add	#7308,	r14	;#0x1c8c
    b8b8:	ce 93 00 00 	tst.b	0(r14)		;0x0000(r14)
    b8bc:	04 20       	jnz	$+10     	;abs 0xb8c6
    b8be:	de 43 00 00 	mov.b	#1,	0(r14)	;r3 As==01, 0x0000(r14)
    b8c2:	4b 43       	clr.b	r11		
    b8c4:	01 3c       	jmp	$+4      	;abs 0xb8c8
    b8c6:	5b 43       	mov.b	#1,	r11	;r3 As==01
    b8c8:	b0 12 16 6a 	call	#0x6a16	
    b8cc:	4f 4b       	mov.b	r11,	r15	
    b8ce:	3b 41       	pop	r11		
    b8d0:	30 41       	ret			

0000b8d2 <CC2420SpiP__Resource__request>:
    b8d2:	0b 12       	push	r11		
    b8d4:	0a 12       	push	r10		
    b8d6:	4b 4f       	mov.b	r15,	r11	
    b8d8:	b0 12 04 6a 	call	#0x6a04	
    b8dc:	4a 4f       	mov.b	r15,	r10	
    b8de:	4f 43       	clr.b	r15		
    b8e0:	b0 12 aa b8 	call	#0xb8aa	
    b8e4:	4f 93       	tst.b	r15		
    b8e6:	2f 20       	jnz	$+96     	;abs 0xb946
    b8e8:	c2 4b 3d 11 	mov.b	r11,	&0x113d	
    b8ec:	c2 93 3a 11 	tst.b	&0x113a	
    b8f0:	3c 20       	jnz	$+122    	;abs 0xb96a
    b8f2:	f2 90 03 00 c8 11 	cmp.b	#3,	&0x11c8	;#0x0003
    b8f8:	38 20       	jnz	$+114    	;abs 0xb96a
    b8fa:	7f 40 10 00 	mov.b	#16,	r15	;#0x0010
    b8fe:	b0 12 14 6b 	call	#0x6b14	
    b902:	2c 3c       	jmp	$+90     	;abs 0xb95c
    b904:	d2 43 c8 11 	mov.b	#1,	&0x11c8	;r3 As==01
    b908:	c2 43 ce 14 	mov.b	#0,	&0x14ce	;r3 As==00
    b90c:	b0 12 ea 6b 	call	#0x6bea	
    b910:	25 3c       	jmp	$+76     	;abs 0xb95c
    b912:	c2 93 ce 14 	tst.b	&0x14ce	
    b916:	22 24       	jz	$+70     	;abs 0xb95c
    b918:	1e 43       	mov	#1,	r14	;r3 As==01
    b91a:	f2 93 8a 24 	cmp.b	#-1,	&0x248a	;r3 As==11
    b91e:	04 20       	jnz	$+10     	;abs 0xb928
    b920:	c2 93 3b 11 	tst.b	&0x113b	
    b924:	01 24       	jz	$+4      	;abs 0xb928
    b926:	0e 43       	clr	r14		
    b928:	0e 93       	tst	r14		
    b92a:	18 20       	jnz	$+50     	;abs 0xb95c
    b92c:	f2 93 3c 11 	cmp.b	#-1,	&0x113c	;r3 As==11
    b930:	03 20       	jnz	$+8      	;abs 0xb938
    b932:	c2 43 3c 11 	mov.b	#0,	&0x113c	;r3 As==00
    b936:	04 3c       	jmp	$+10     	;abs 0xb940
    b938:	5e 42 3b 11 	mov.b	&0x113b,r14	
    b93c:	ce 43 8a 24 	mov.b	#0,	9354(r14);r3 As==00, 0x248a(r14)
    b940:	c2 43 3b 11 	mov.b	#0,	&0x113b	;r3 As==00
    b944:	0b 3c       	jmp	$+24     	;abs 0xb95c
    b946:	1e 43       	mov	#1,	r14	;r3 As==01
    b948:	4d 4b       	mov.b	r11,	r13	
    b94a:	7d f0 0f 00 	and.b	#15,	r13	;#0x000f
    b94e:	4d 93       	tst.b	r13		
    b950:	03 24       	jz	$+8      	;abs 0xb958
    b952:	0e 5e       	rla	r14		
    b954:	7d 53       	add.b	#-1,	r13	;r3 As==11
    b956:	fb 3f       	jmp	$-8      	;abs 0xb94e
    b958:	c2 de ca 11 	bis.b	r14,	&0x11ca	
    b95c:	4f 4a       	mov.b	r10,	r15	
    b95e:	b0 12 16 6a 	call	#0x6a16	
    b962:	4f 43       	clr.b	r15		
    b964:	3a 41       	pop	r10		
    b966:	3b 41       	pop	r11		
    b968:	30 41       	ret			
    b96a:	c2 93 c8 11 	tst.b	&0x11c8	
    b96e:	d1 23       	jnz	$-92     	;abs 0xb912
    b970:	c9 3f       	jmp	$-108    	;abs 0xb904

0000b972 <HplMsp430Usart0P__Usart__setModeSpi.constprop.356>:
    b972:	0b 12       	push	r11		
    b974:	b0 12 04 6a 	call	#0x6a04	
    b978:	4b 4f       	mov.b	r15,	r11	
    b97a:	5f 43       	mov.b	#1,	r15	;r3 As==01
    b97c:	b0 12 10 58 	call	#0x5810	
    b980:	f2 f0 da ff 70 00 	and.b	#-38,	&0x0070	;#0xffda
    b986:	5f 43       	mov.b	#1,	r15	;r3 As==01
    b988:	b0 12 10 58 	call	#0x5810	
    b98c:	f2 f0 3f 00 04 00 	and.b	#63,	&0x0004	;#0x003f
    b992:	3e 40 1b 00 	mov	#27,	r14	;#0x001b
    b996:	fe f0 ef ff 00 00 	and.b	#-17,	0(r14)	;#0xffef, 0x0000(r14)
    b99c:	fe f0 df ff 00 00 	and.b	#-33,	0(r14)	;#0xffdf, 0x0000(r14)
    b9a2:	3d 40 80 11 	mov	#4480,	r13	;#0x1180
    b9a6:	6f 4d       	mov.b	@r13,	r15	
    b9a8:	7f d0 05 00 	bis.b	#5,	r15	;#0x0005
    b9ac:	c2 4f 70 00 	mov.b	r15,	&0x0070	
    b9b0:	d2 4d 01 00 71 00 	mov.b	1(r13),	&0x0071	;0x0001(r13)
    b9b6:	1d 42 7e 11 	mov	&0x117e,r13	
    b9ba:	c2 4d 74 00 	mov.b	r13,	&0x0074	
    b9be:	8d 10       	swpb	r13		
    b9c0:	4d 4d       	mov.b	r13,	r13	
    b9c2:	c2 4d 75 00 	mov.b	r13,	&0x0075	
    b9c6:	c2 43 73 00 	mov.b	#0,	&0x0073	;r3 As==00
    b9ca:	ee d3 00 00 	bis.b	#2,	0(r14)	;r3 As==10, 0x0000(r14)
    b9ce:	ee d2 00 00 	bis.b	#4,	0(r14)	;r2 As==10, 0x0000(r14)
    b9d2:	fe d2 00 00 	bis.b	#8,	0(r14)	;r2 As==11, 0x0000(r14)
    b9d6:	f2 d0 40 00 04 00 	bis.b	#64,	&0x0004	;#0x0040
    b9dc:	4f 43       	clr.b	r15		
    b9de:	b0 12 10 58 	call	#0x5810	
    b9e2:	f2 f0 3f 00 02 00 	and.b	#63,	&0x0002	;#0x003f
    b9e8:	f2 f0 3f 00 00 00 	and.b	#63,	&0x0000	;#0x003f
    b9ee:	4f 4b       	mov.b	r11,	r15	
    b9f0:	b0 12 16 6a 	call	#0x6a16	
    b9f4:	3b 41       	pop	r11		
    b9f6:	30 41       	ret			

0000b9f8 <CC2420SpiP__Resource__immediateRequest>:
    b9f8:	0b 12       	push	r11		
    b9fa:	0a 12       	push	r10		
    b9fc:	4b 4f       	mov.b	r15,	r11	
    b9fe:	b0 12 04 6a 	call	#0x6a04	
    ba02:	4a 4f       	mov.b	r15,	r10	
    ba04:	4f 43       	clr.b	r15		
    ba06:	b0 12 aa b8 	call	#0xb8aa	
    ba0a:	4f 93       	tst.b	r15		
    ba0c:	06 24       	jz	$+14     	;abs 0xba1a
    ba0e:	4f 4a       	mov.b	r10,	r15	
    ba10:	b0 12 16 6a 	call	#0x6a16	
    ba14:	7f 40 05 00 	mov.b	#5,	r15	;#0x0005
    ba18:	1e 3c       	jmp	$+62     	;abs 0xba56
    ba1a:	c2 93 3a 11 	tst.b	&0x113a	
    ba1e:	1e 20       	jnz	$+62     	;abs 0xba5c
    ba20:	f2 90 03 00 c8 11 	cmp.b	#3,	&0x11c8	;#0x0003
    ba26:	1a 20       	jnz	$+54     	;abs 0xba5c
    ba28:	0b 3c       	jmp	$+24     	;abs 0xba40
    ba2a:	e2 43 c8 11 	mov.b	#2,	&0x11c8	;r3 As==10
    ba2e:	c2 43 ce 14 	mov.b	#0,	&0x14ce	;r3 As==00
    ba32:	b0 12 ea 6b 	call	#0x6bea	
    ba36:	c2 93 3a 11 	tst.b	&0x113a	
    ba3a:	06 20       	jnz	$+14     	;abs 0xba48
    ba3c:	b0 12 72 b9 	call	#0xb972	
    ba40:	c2 4b 3d 11 	mov.b	r11,	&0x113d	
    ba44:	4b 43       	clr.b	r11		
    ba46:	03 3c       	jmp	$+8      	;abs 0xba4e
    ba48:	c2 43 c8 11 	mov.b	#0,	&0x11c8	;r3 As==00
    ba4c:	0a 3c       	jmp	$+22     	;abs 0xba62
    ba4e:	4f 4a       	mov.b	r10,	r15	
    ba50:	b0 12 16 6a 	call	#0x6a16	
    ba54:	4f 4b       	mov.b	r11,	r15	
    ba56:	3a 41       	pop	r10		
    ba58:	3b 41       	pop	r11		
    ba5a:	30 41       	ret			
    ba5c:	c2 93 c8 11 	tst.b	&0x11c8	
    ba60:	e4 27       	jz	$-54     	;abs 0xba2a
    ba62:	4f 43       	clr.b	r15		
    ba64:	b0 12 2c 6f 	call	#0x6f2c	
    ba68:	5b 43       	mov.b	#1,	r11	;r3 As==01
    ba6a:	f1 3f       	jmp	$-28     	;abs 0xba4e

0000ba6c <CC2420ReceiveP__beginReceive>:
    ba6c:	a2 43 98 12 	mov	#2,	&0x1298	;r3 As==10
    ba70:	d2 43 e2 12 	mov.b	#1,	&0x12e2	;r3 As==01
    ba74:	e2 92 3d 11 	cmp.b	#4,	&0x113d	;r2 As==10
    ba78:	05 24       	jz	$+12     	;abs 0xba84
    ba7a:	6f 42       	mov.b	#4,	r15	;r2 As==10
    ba7c:	b0 12 f8 b9 	call	#0xb9f8	
    ba80:	4f 93       	tst.b	r15		
    ba82:	03 20       	jnz	$+8      	;abs 0xba8a
    ba84:	b0 12 e6 6e 	call	#0x6ee6	
    ba88:	30 41       	ret			
    ba8a:	6f 42       	mov.b	#4,	r15	;r2 As==10
    ba8c:	b0 12 d2 b8 	call	#0xb8d2	
    ba90:	30 41       	ret			

0000ba92 <CC2420ReceiveP__waitForNextPacket>:
    ba92:	0b 12       	push	r11		
    ba94:	b0 12 04 6a 	call	#0x6a04	
    ba98:	4b 4f       	mov.b	r15,	r11	
    ba9a:	82 93 98 12 	tst	&0x1298	
    ba9e:	18 24       	jz	$+50     	;abs 0xbad0
    baa0:	c2 43 e2 12 	mov.b	#0,	&0x12e2	;r3 As==00
    baa4:	5e 42 b2 12 	mov.b	&0x12b2,r14	
    baa8:	4e 93       	tst.b	r14		
    baaa:	03 24       	jz	$+8      	;abs 0xbab2
    baac:	f2 b2 20 00 	bit.b	#8,	&0x0020	;r2 As==11
    bab0:	05 20       	jnz	$+12     	;abs 0xbabc
    bab2:	d2 b3 20 00 	bit.b	#1,	&0x0020	;r3 As==01
    bab6:	08 20       	jnz	$+18     	;abs 0xbac8
    bab8:	4e 93       	tst.b	r14		
    baba:	03 24       	jz	$+8      	;abs 0xbac2
    babc:	7e 53       	add.b	#-1,	r14	;r3 As==11
    babe:	c2 4e b2 12 	mov.b	r14,	&0x12b2	
    bac2:	b0 12 6c ba 	call	#0xba6c	
    bac6:	07 3c       	jmp	$+16     	;abs 0xbad6
    bac8:	92 43 98 12 	mov	#1,	&0x1298	;r3 As==01
    bacc:	c2 43 b2 12 	mov.b	#0,	&0x12b2	;r3 As==00
    bad0:	6f 42       	mov.b	#4,	r15	;r2 As==10
    bad2:	b0 12 50 6f 	call	#0x6f50	
    bad6:	4f 4b       	mov.b	r11,	r15	
    bad8:	b0 12 16 6a 	call	#0x6a16	
    badc:	3b 41       	pop	r11		
    bade:	30 41       	ret			

0000bae0 <CC2420ReceiveP__flush>:
    bae0:	b0 12 66 4c 	call	#0x4c66	
    bae4:	b0 12 42 6f 	call	#0x6f42	
    bae8:	b0 12 04 6b 	call	#0x6b04	
    baec:	7f 42       	mov.b	#8,	r15	;r2 As==11
    baee:	b0 12 b4 6a 	call	#0x6ab4	
    baf2:	7f 42       	mov.b	#8,	r15	;r2 As==11
    baf4:	b0 12 b4 6a 	call	#0x6ab4	
    baf8:	b0 12 42 6f 	call	#0x6f42	
    bafc:	6f 42       	mov.b	#4,	r15	;r2 As==10
    bafe:	b0 12 50 6f 	call	#0x6f50	
    bb02:	b0 12 92 ba 	call	#0xba92	
    bb06:	30 41       	ret			

0000bb08 <Msp430SpiNoDmaP__0__signalDone>:
    bb08:	0b 12       	push	r11		
    bb0a:	0a 12       	push	r10		
    bb0c:	09 12       	push	r9		
    bb0e:	08 12       	push	r8		
    bb10:	07 12       	push	r7		
    bb12:	17 42 e4 1b 	mov	&0x1be4,r7	
    bb16:	c2 93 94 15 	tst.b	&0x1594	
    bb1a:	02 24       	jz	$+6      	;abs 0xbb20
    bb1c:	30 40 0c be 	br	#0xbe0c	
    bb20:	1f 42 96 15 	mov	&0x1596,r15	
    bb24:	3f b0 40 00 	bit	#64,	r15	;#0x0040
    bb28:	02 20       	jnz	$+6      	;abs 0xbb2e
    bb2a:	30 40 a2 bd 	br	#0xbda2	
    bb2e:	7f f0 bf ff 	and.b	#-65,	r15	;#0xffbf
    bb32:	7f 90 3f 00 	cmp.b	#63,	r15	;#0x003f
    bb36:	02 24       	jz	$+6      	;abs 0xbb3c
    bb38:	30 40 0c be 	br	#0xbe0c	
    bb3c:	1b 42 f0 11 	mov	&0x11f0,r11	
    bb40:	6e 4b       	mov.b	@r11,	r14	
    bb42:	c2 4e 9a 12 	mov.b	r14,	&0x129a	
    bb46:	1f 42 98 12 	mov	&0x1298,r15	
    bb4a:	3f 90 05 00 	cmp	#5,	r15	;#0x0005
    bb4e:	39 24       	jz	$+116    	;abs 0xbbc2
    bb50:	3f 90 06 00 	cmp	#6,	r15	;#0x0006
    bb54:	84 24       	jz	$+266    	;abs 0xbc5e
    bb56:	2f 93       	cmp	#2,	r15	;r3 As==10
    bb58:	02 24       	jz	$+6      	;abs 0xbb5e
    bb5a:	30 40 92 bd 	br	#0xbd92	
    bb5e:	b2 40 05 00 98 12 	mov	#5,	&0x1298	;#0x0005
    bb64:	5d 42 60 12 	mov.b	&0x1260,r13	
    bb68:	4d 9e       	cmp.b	r14,	r13	
    bb6a:	27 24       	jz	$+80     	;abs 0xbbba
    bb6c:	26 28       	jnc	$+78     	;abs 0xbbba
    bb6e:	f2 b2 20 00 	bit.b	#8,	&0x0020	;r2 As==11
    bb72:	08 20       	jnz	$+18     	;abs 0xbb84
    bb74:	d2 b3 20 00 	bit.b	#1,	&0x0020	;r3 As==01
    bb78:	05 20       	jnz	$+12     	;abs 0xbb84
    bb7a:	4f 4e       	mov.b	r14,	r15	
    bb7c:	7f e3       	xor.b	#-1,	r15	;r3 As==11
    bb7e:	4f 5d       	add.b	r13,	r15	
    bb80:	c2 4f 60 12 	mov.b	r15,	&0x1260	
    bb84:	7e 90 7e 00 	cmp.b	#126,	r14	;#0x007e
    bb88:	18 2c       	jc	$+50     	;abs 0xbbba
    bb8a:	4e 93       	tst.b	r14		
    bb8c:	0e 24       	jz	$+30     	;abs 0xbbaa
    bb8e:	0f 4b       	mov	r11,	r15	
    bb90:	1f 53       	inc	r15		
    bb92:	7e 92       	cmp.b	#8,	r14	;r2 As==11
    bb94:	03 28       	jnc	$+8      	;abs 0xbb9c
    bb96:	7e 40 07 00 	mov.b	#7,	r14	;#0x0007
    bb9a:	03 3c       	jmp	$+8      	;abs 0xbba2
    bb9c:	b2 40 06 00 98 12 	mov	#6,	&0x1298	;#0x0006
    bba2:	b0 12 50 6e 	call	#0x6e50	
    bba6:	30 40 0c be 	br	#0xbe0c	
    bbaa:	c2 43 e2 12 	mov.b	#0,	&0x12e2	;r3 As==00
    bbae:	b0 12 42 6f 	call	#0x6f42	
    bbb2:	6f 42       	mov.b	#4,	r15	;r2 As==10
    bbb4:	b0 12 50 6f 	call	#0x6f50	
    bbb8:	e9 3c       	jmp	$+468    	;abs 0xbd8c
    bbba:	b0 12 e0 ba 	call	#0xbae0	
    bbbe:	30 40 0c be 	br	#0xbe0c	
    bbc2:	b2 40 06 00 98 12 	mov	#6,	&0x1298	;#0x0006
    bbc8:	c2 93 cf 14 	tst.b	&0x14cf	
    bbcc:	41 24       	jz	$+132    	;abs 0xbc50
    bbce:	c2 93 b3 1c 	tst.b	&0x1cb3	
    bbd2:	3e 20       	jnz	$+126    	;abs 0xbc50
    bbd4:	5f 4b 02 00 	mov.b	2(r11),	r15	;0x0002(r11)
    bbd8:	8f 10       	swpb	r15		
    bbda:	5e 4b 01 00 	mov.b	1(r11),	r14	;0x0001(r11)
    bbde:	0f de       	bis	r14,	r15	
    bbe0:	3f f0 20 00 	and	#32,	r15	;#0x0020
    bbe4:	35 24       	jz	$+108    	;abs 0xbc50
    bbe6:	5a 4b 07 00 	mov.b	7(r11),	r10	;0x0007(r11)
    bbea:	8a 10       	swpb	r10		
    bbec:	5f 4b 06 00 	mov.b	6(r11),	r15	;0x0006(r11)
    bbf0:	0a df       	bis	r15,	r10	
    bbf2:	b0 12 04 6a 	call	#0x6a04	
    bbf6:	19 42 92 15 	mov	&0x1592,r9	
    bbfa:	b0 12 16 6a 	call	#0x6a16	
    bbfe:	0a 99       	cmp	r9,	r10	
    bc00:	08 24       	jz	$+18     	;abs 0xbc12
    bc02:	5f 4b 07 00 	mov.b	7(r11),	r15	;0x0007(r11)
    bc06:	8f 10       	swpb	r15		
    bc08:	5e 4b 06 00 	mov.b	6(r11),	r14	;0x0006(r11)
    bc0c:	0f de       	bis	r14,	r15	
    bc0e:	3f 93       	cmp	#-1,	r15	;r3 As==11
    bc10:	1f 20       	jnz	$+64     	;abs 0xbc50
    bc12:	5f 4b 02 00 	mov.b	2(r11),	r15	;0x0002(r11)
    bc16:	8f 10       	swpb	r15		
    bc18:	5e 4b 01 00 	mov.b	1(r11),	r14	;0x0001(r11)
    bc1c:	0f de       	bis	r14,	r15	
    bc1e:	3f f0 07 00 	and	#7,	r15	;#0x0007
    bc22:	1f 93       	cmp	#1,	r15	;r3 As==01
    bc24:	15 20       	jnz	$+44     	;abs 0xbc50
    bc26:	b0 12 42 6f 	call	#0x6f42	
    bc2a:	b0 12 04 6b 	call	#0x6b04	
    bc2e:	7f 40 0a 00 	mov.b	#10,	r15	;#0x000a
    bc32:	b0 12 b4 6a 	call	#0x6ab4	
    bc36:	b0 12 42 6f 	call	#0x6f42	
    bc3a:	b0 12 04 6b 	call	#0x6b04	
    bc3e:	5e 42 9a 12 	mov.b	&0x129a,r14	
    bc42:	7e 50 f9 ff 	add.b	#-7,	r14	;#0xfff9
    bc46:	0f 4b       	mov	r11,	r15	
    bc48:	3f 52       	add	#8,	r15	;r2 As==11
    bc4a:	b0 12 7c 6e 	call	#0x6e7c	
    bc4e:	de 3c       	jmp	$+446    	;abs 0xbe0c
    bc50:	5e 42 9a 12 	mov.b	&0x129a,r14	
    bc54:	7e 50 f9 ff 	add.b	#-7,	r14	;#0xfff9
    bc58:	0f 4b       	mov	r11,	r15	
    bc5a:	3f 52       	add	#8,	r15	;r2 As==11
    bc5c:	a2 3f       	jmp	$-186    	;abs 0xbba2
    bc5e:	b0 12 42 6f 	call	#0x6f42	
    bc62:	c2 93 b2 12 	tst.b	&0x12b2	
    bc66:	03 20       	jnz	$+8      	;abs 0xbc6e
    bc68:	6f 42       	mov.b	#4,	r15	;r2 As==10
    bc6a:	b0 12 50 6f 	call	#0x6f50	
    bc6e:	c2 93 b2 12 	tst.b	&0x12b2	
    bc72:	03 24       	jz	$+8      	;abs 0xbc7a
    bc74:	f2 b2 20 00 	bit.b	#8,	&0x0020	;r2 As==11
    bc78:	0b 20       	jnz	$+24     	;abs 0xbc90
    bc7a:	d2 b3 20 00 	bit.b	#1,	&0x0020	;r3 As==01
    bc7e:	08 24       	jz	$+18     	;abs 0xbc90
    bc80:	5a 42 60 24 	mov.b	&0x2460,r10	
    bc84:	4a 93       	tst.b	r10		
    bc86:	04 24       	jz	$+10     	;abs 0xbc90
    bc88:	f2 90 0b 00 9a 12 	cmp.b	#11,	&0x129a	;#0x000b
    bc8e:	0e 2c       	jc	$+30     	;abs 0xbcac
    bc90:	1f 42 f0 11 	mov	&0x11f0,r15	
    bc94:	cf 43 81 00 	mov.b	#0,	129(r15);r3 As==00, 0x0081(r15)
    bc98:	cf 43 85 00 	mov.b	#0,	133(r15);r3 As==00, 0x0085(r15)
    bc9c:	cf 43 84 00 	mov.b	#0,	132(r15);r3 As==00, 0x0084(r15)
    bca0:	cf 43 83 00 	mov.b	#0,	131(r15);r3 As==00, 0x0083(r15)
    bca4:	ff 40 80 ff 82 00 	mov.b	#-128,	130(r15);#0xff80, 0x0082(r15)
    bcaa:	37 3c       	jmp	$+112    	;abs 0xbd1a
    bcac:	59 42 86 24 	mov.b	&0x2486,r9	
    bcb0:	5a 93       	cmp.b	#1,	r10	;r3 As==01
    bcb2:	19 20       	jnz	$+52     	;abs 0xbce6
    bcb4:	0f 49       	mov	r9,	r15	
    bcb6:	0f 5f       	rla	r15		
    bcb8:	0f 5f       	rla	r15		
    bcba:	3f 50 b0 23 	add	#9136,	r15	;#0x23b0
    bcbe:	28 4f       	mov	@r15,	r8	
    bcc0:	1c 4f 02 00 	mov	2(r15),	r12	;0x0002(r15)
    bcc4:	1d 42 f0 11 	mov	&0x11f0,r13	
    bcc8:	cd 48 85 00 	mov.b	r8,	133(r13);0x0085(r13)
    bccc:	0e 4c       	mov	r12,	r14	
    bcce:	0f 48       	mov	r8,	r15	
    bcd0:	8f 10       	swpb	r15		
    bcd2:	8e 10       	swpb	r14		
    bcd4:	4f ee       	xor.b	r14,	r15	
    bcd6:	0f ee       	xor	r14,	r15	
    bcd8:	cd 4f 84 00 	mov.b	r15,	132(r13);0x0084(r13)
    bcdc:	cd 4c 83 00 	mov.b	r12,	131(r13);0x0083(r13)
    bce0:	8c 10       	swpb	r12		
    bce2:	cd 4c 82 00 	mov.b	r12,	130(r13);0x0082(r13)
    bce6:	19 53       	inc	r9		
    bce8:	79 f0 07 00 	and.b	#7,	r9	;#0x0007
    bcec:	c2 49 86 24 	mov.b	r9,	&0x2486	
    bcf0:	7a 53       	add.b	#-1,	r10	;r3 As==11
    bcf2:	c2 4a 60 24 	mov.b	r10,	&0x2460	
    bcf6:	11 24       	jz	$+36     	;abs 0xbd1a
    bcf8:	1f 42 f0 11 	mov	&0x11f0,r15	
    bcfc:	cf 43 81 00 	mov.b	#0,	129(r15);r3 As==00, 0x0081(r15)
    bd00:	cf 43 85 00 	mov.b	#0,	133(r15);r3 As==00, 0x0085(r15)
    bd04:	cf 43 84 00 	mov.b	#0,	132(r15);r3 As==00, 0x0084(r15)
    bd08:	cf 43 83 00 	mov.b	#0,	131(r15);r3 As==00, 0x0083(r15)
    bd0c:	ff 40 80 ff 82 00 	mov.b	#-128,	130(r15);#0xff80, 0x0082(r15)
    bd12:	c2 43 86 24 	mov.b	#0,	&0x2486	;r3 As==00
    bd16:	c2 43 60 24 	mov.b	#0,	&0x2460	;r3 As==00
    bd1a:	5f 42 9a 12 	mov.b	&0x129a,r15	
    bd1e:	0f 5b       	add	r11,	r15	
    bd20:	cf 93 00 00 	tst.b	0(r15)		;0x0000(r15)
    bd24:	33 34       	jge	$+104    	;abs 0xbd8c
    bd26:	07 93       	tst	r7		
    bd28:	31 24       	jz	$+100    	;abs 0xbd8c
    bd2a:	5f 4b 02 00 	mov.b	2(r11),	r15	;0x0002(r11)
    bd2e:	8f 10       	swpb	r15		
    bd30:	5f db 01 00 	bis.b	1(r11),	r15	;0x0001(r11)
    bd34:	7f f0 07 00 	and.b	#7,	r15	;#0x0007
    bd38:	1d 42 f0 11 	mov	&0x11f0,r13	
    bd3c:	6f 93       	cmp.b	#2,	r15	;r3 As==10
    bd3e:	1f 20       	jnz	$+64     	;abs 0xbd7e
    bd40:	1f 42 d8 14 	mov	&0x14d8,r15	
    bd44:	0f 93       	tst	r15		
    bd46:	22 24       	jz	$+70     	;abs 0xbd8c
    bd48:	b2 90 07 00 c2 11 	cmp	#7,	&0x11c2	;#0x0007
    bd4e:	1e 20       	jnz	$+62     	;abs 0xbd8c
    bd50:	df 9d 03 00 03 00 	cmp.b	3(r13),	3(r15)	;0x0003(r13), 0x0003(r15)
    bd56:	1a 20       	jnz	$+54     	;abs 0xbd8c
    bd58:	b2 f0 ef ff 88 01 	and	#-17,	&0x0188	;#0xffef
    bd5e:	6e 4d       	mov.b	@r13,	r14	
    bd60:	df 43 80 00 	mov.b	#1,	128(r15);r3 As==01, 0x0080(r15)
    bd64:	0e 5d       	add	r13,	r14	
    bd66:	df 4e ff ff 7c 00 	mov.b	-1(r14),124(r15);0xffff(r14), 0x007c(r15)
    bd6c:	6e 4e       	mov.b	@r14,	r14	
    bd6e:	7e f0 7f 00 	and.b	#127,	r14	;#0x007f
    bd72:	cf 4e 7d 00 	mov.b	r14,	125(r15);0x007d(r15)
    bd76:	4f 43       	clr.b	r15		
    bd78:	b0 12 12 6f 	call	#0x6f12	
    bd7c:	07 3c       	jmp	$+16     	;abs 0xbd8c
    bd7e:	5f 93       	cmp.b	#1,	r15	;r3 As==01
    bd80:	05 20       	jnz	$+12     	;abs 0xbd8c
    bd82:	7f 40 19 00 	mov.b	#25,	r15	;#0x0019
    bd86:	b0 12 14 6b 	call	#0x6b14	
    bd8a:	40 3c       	jmp	$+130    	;abs 0xbe0c
    bd8c:	b0 12 92 ba 	call	#0xba92	
    bd90:	3d 3c       	jmp	$+124    	;abs 0xbe0c
    bd92:	c2 43 e2 12 	mov.b	#0,	&0x12e2	;r3 As==00
    bd96:	b0 12 42 6f 	call	#0x6f42	
    bd9a:	6f 42       	mov.b	#4,	r15	;r2 As==10
    bd9c:	b0 12 50 6f 	call	#0x6f50	
    bda0:	35 3c       	jmp	$+108    	;abs 0xbe0c
    bda2:	7f 90 3e 00 	cmp.b	#62,	r15	;#0x003e
    bda6:	32 20       	jnz	$+102    	;abs 0xbe0c
    bda8:	b0 12 42 6f 	call	#0x6f42	
    bdac:	b2 92 c2 11 	cmp	#8,	&0x11c2	;r2 As==11
    bdb0:	11 20       	jnz	$+36     	;abs 0xbdd4
    bdb2:	b0 12 04 6b 	call	#0x6b04	
    bdb6:	7f 40 09 00 	mov.b	#9,	r15	;#0x0009
    bdba:	b0 12 b4 6a 	call	#0x6ab4	
    bdbe:	b0 12 42 6f 	call	#0x6f42	
    bdc2:	b0 12 06 70 	call	#0x7006	
    bdc6:	92 43 c2 11 	mov	#1,	&0x11c2	;r3 As==01
    bdca:	7f 40 03 00 	mov.b	#3,	r15	;#0x0003
    bdce:	b0 12 f6 6e 	call	#0x6ef6	
    bdd2:	1c 3c       	jmp	$+58     	;abs 0xbe0c
    bdd4:	c2 93 34 2a 	tst.b	&0x2a34	
    bdd8:	05 20       	jnz	$+12     	;abs 0xbde4
    bdda:	a2 42 c2 11 	mov	#4,	&0x11c2	;r2 As==10
    bdde:	b0 12 20 72 	call	#0x7220	
    bde2:	14 3c       	jmp	$+42     	;abs 0xbe0c
    bde4:	b0 12 06 70 	call	#0x7006	
    bde8:	b2 40 03 00 c2 11 	mov	#3,	&0x11c2	;#0x0003
    bdee:	b0 12 12 70 	call	#0x7012	
    bdf2:	0f 4e       	mov	r14,	r15	
    bdf4:	3e 40 36 01 	mov	#310,	r14	;#0x0136
    bdf8:	b0 12 fe ee 	call	#0xeefe	
    bdfc:	0e 4f       	mov	r15,	r14	
    bdfe:	3e 50 0b 00 	add	#11,	r14	;#0x000b
    be02:	82 4e 52 12 	mov	r14,	&0x1252	
    be06:	0f 43       	clr	r15		
    be08:	b0 12 aa 71 	call	#0x71aa	
    be0c:	37 41       	pop	r7		
    be0e:	38 41       	pop	r8		
    be10:	39 41       	pop	r9		
    be12:	3a 41       	pop	r10		
    be14:	3b 41       	pop	r11		
    be16:	30 41       	ret			

0000be18 <CC2420CsmaP__Send__send.isra.337>:
    be18:	0b 12       	push	r11		
    be1a:	0a 12       	push	r10		
    be1c:	0b 4f       	mov	r15,	r11	
    be1e:	b0 12 04 6a 	call	#0x6a04	
    be22:	4a 4f       	mov.b	r15,	r10	
    be24:	6f 43       	mov.b	#2,	r15	;r3 As==10
    be26:	b0 12 e4 6a 	call	#0x6ae4	
    be2a:	4f 93       	tst.b	r15		
    be2c:	05 20       	jnz	$+12     	;abs 0xbe38
    be2e:	4f 4a       	mov.b	r10,	r15	
    be30:	b0 12 16 6a 	call	#0x6a16	
    be34:	5f 43       	mov.b	#1,	r15	;r3 As==01
    be36:	52 3c       	jmp	$+166    	;abs 0xbedc
    be38:	6f 42       	mov.b	#4,	r15	;r2 As==10
    be3a:	b0 12 fe b6 	call	#0xb6fe	
    be3e:	82 4b f6 17 	mov	r11,	&0x17f6	
    be42:	4f 4a       	mov.b	r10,	r15	
    be44:	b0 12 16 6a 	call	#0x6a16	
    be48:	5f 4b 02 00 	mov.b	2(r11),	r15	;0x0002(r11)
    be4c:	8f 10       	swpb	r15		
    be4e:	5e 4b 01 00 	mov.b	1(r11),	r14	;0x0001(r11)
    be52:	0f de       	bis	r14,	r15	
    be54:	3f f0 20 cc 	and	#-13280,r15	;#0xcc20
    be58:	4e 4f       	mov.b	r15,	r14	
    be5a:	3e d0 41 00 	bis	#65,	r14	;#0x0041
    be5e:	8f 10       	swpb	r15		
    be60:	4f 4f       	mov.b	r15,	r15	
    be62:	8f 10       	swpb	r15		
    be64:	0e df       	bis	r15,	r14	
    be66:	cb 4e 01 00 	mov.b	r14,	1(r11)	;0x0001(r11)
    be6a:	8e 10       	swpb	r14		
    be6c:	cb 4e 02 00 	mov.b	r14,	2(r11)	;0x0002(r11)
    be70:	cb 43 80 00 	mov.b	#0,	128(r11);r3 As==00, 0x0080(r11)
    be74:	cb 43 7c 00 	mov.b	#0,	124(r11);r3 As==00, 0x007c(r11)
    be78:	cb 43 7d 00 	mov.b	#0,	125(r11);r3 As==00, 0x007d(r11)
    be7c:	cb 43 85 00 	mov.b	#0,	133(r11);r3 As==00, 0x0085(r11)
    be80:	cb 43 84 00 	mov.b	#0,	132(r11);r3 As==00, 0x0084(r11)
    be84:	cb 43 83 00 	mov.b	#0,	131(r11);r3 As==00, 0x0083(r11)
    be88:	fb 40 80 ff 82 00 	mov.b	#-128,	130(r11);#0xff80, 0x0082(r11)
    be8e:	d2 43 91 1c 	mov.b	#1,	&0x1c91	;r3 As==01
    be92:	1b 42 f6 17 	mov	&0x17f6,r11	
    be96:	b0 12 04 6a 	call	#0x6a04	
    be9a:	1e 42 c2 11 	mov	&0x11c2,r14	
    be9e:	3e 92       	cmp	#8,	r14	;r2 As==11
    bea0:	02 24       	jz	$+6      	;abs 0xbea6
    bea2:	1e 93       	cmp	#1,	r14	;r3 As==01
    bea4:	03 24       	jz	$+8      	;abs 0xbeac
    bea6:	b0 12 16 6a 	call	#0x6a16	
    beaa:	17 3c       	jmp	$+48     	;abs 0xbeda
    beac:	a2 43 c2 11 	mov	#2,	&0x11c2	;r3 As==10
    beb0:	d2 43 34 2a 	mov.b	#1,	&0x2a34	;r3 As==01
    beb4:	82 4b d8 14 	mov	r11,	&0x14d8	
    beb8:	c2 43 14 12 	mov.b	#0,	&0x1214	;r3 As==00
    bebc:	b0 12 16 6a 	call	#0x6a16	
    bec0:	7f 40 03 00 	mov.b	#3,	r15	;#0x0003
    bec4:	b0 12 f8 b9 	call	#0xb9f8	
    bec8:	4f 93       	tst.b	r15		
    beca:	05 24       	jz	$+12     	;abs 0xbed6
    becc:	7f 40 03 00 	mov.b	#3,	r15	;#0x0003
    bed0:	b0 12 d2 b8 	call	#0xb8d2	
    bed4:	02 3c       	jmp	$+6      	;abs 0xbeda
    bed6:	b0 12 3e b4 	call	#0xb43e	
    beda:	4f 43       	clr.b	r15		
    bedc:	3a 41       	pop	r10		
    bede:	3b 41       	pop	r11		
    bee0:	30 41       	ret			

0000bee2 <SchedulerBasicP__TaskBasic__runTask>:
    bee2:	0b 12       	push	r11		
    bee4:	0a 12       	push	r10		
    bee6:	09 12       	push	r9		
    bee8:	08 12       	push	r8		
    beea:	07 12       	push	r7		
    beec:	06 12       	push	r6		
    beee:	05 12       	push	r5		
    bef0:	04 12       	push	r4		
    bef2:	31 50 1a fe 	add	#-486,	r1	;#0xfe1a
    bef6:	7f 90 24 00 	cmp.b	#36,	r15	;#0x0024
    befa:	02 28       	jnc	$+6      	;abs 0xbf00
    befc:	30 40 cc de 	br	#0xdecc	
    bf00:	4f 4f       	mov.b	r15,	r15	
    bf02:	0f 5f       	rla	r15		
    bf04:	10 4f 72 f2 	br	-3470(r15)	;0xf272(r15)
    bf08:	5f 42 0e 25 	mov.b	&0x250e,r15	
    bf0c:	6f 93       	cmp.b	#2,	r15	;r3 As==10
    bf0e:	08 20       	jnz	$+18     	;abs 0xbf20
    bf10:	c2 93 e3 14 	tst.b	&0x14e3	
    bf14:	02 24       	jz	$+6      	;abs 0xbf1a
    bf16:	30 40 cc de 	br	#0xdecc	
    bf1a:	0e 43       	clr	r14		
    bf1c:	0f 43       	clr	r15		
    bf1e:	41 3c       	jmp	$+132    	;abs 0xbfa2
    bf20:	4f 93       	tst.b	r15		
    bf22:	02 24       	jz	$+6      	;abs 0xbf28
    bf24:	30 40 cc de 	br	#0xdecc	
    bf28:	b0 12 04 6a 	call	#0x6a04	
    bf2c:	4b 4f       	mov.b	r15,	r11	
    bf2e:	f2 90 03 00 ec 11 	cmp.b	#3,	&0x11ec	;#0x0003
    bf34:	29 20       	jnz	$+84     	;abs 0xbf88
    bf36:	c2 93 40 11 	tst.b	&0x1140	
    bf3a:	26 20       	jnz	$+78     	;abs 0xbf88
    bf3c:	5d 42 42 11 	mov.b	&0x1142,r13	
    bf40:	7d 93       	cmp.b	#-1,	r13	;r3 As==11
    bf42:	18 24       	jz	$+50     	;abs 0xbf74
    bf44:	4e 4d       	mov.b	r13,	r14	
    bf46:	5f 4e 38 15 	mov.b	5432(r14),r15	;0x1538(r14)
    bf4a:	c2 4f 42 11 	mov.b	r15,	&0x1142	
    bf4e:	7f 93       	cmp.b	#-1,	r15	;r3 As==11
    bf50:	02 20       	jnz	$+6      	;abs 0xbf56
    bf52:	f2 43 41 11 	mov.b	#-1,	&0x1141	;r3 As==11
    bf56:	fe 43 38 15 	mov.b	#-1,	5432(r14);r3 As==11, 0x1538(r14)
    bf5a:	c2 4d cc 1c 	mov.b	r13,	&0x1ccc	
    bf5e:	f2 43 40 11 	mov.b	#-1,	&0x1140	;r3 As==11
    bf62:	d2 43 ec 11 	mov.b	#1,	&0x11ec	;r3 As==01
    bf66:	7f 40 0b 00 	mov.b	#11,	r15	;#0x000b
    bf6a:	b0 12 14 6b 	call	#0x6b14	
    bf6e:	b0 12 c4 5a 	call	#0x5ac4	
    bf72:	0a 3c       	jmp	$+22     	;abs 0xbf88
    bf74:	d2 43 40 11 	mov.b	#1,	&0x1140	;r3 As==01
    bf78:	c2 43 ec 11 	mov.b	#0,	&0x11ec	;r3 As==00
    bf7c:	b0 12 c4 5a 	call	#0x5ac4	
    bf80:	b0 12 7e 4c 	call	#0x4c7e	
    bf84:	b0 12 9c 4c 	call	#0x4c9c	
    bf88:	4f 4b       	mov.b	r11,	r15	
    bf8a:	b0 12 16 6a 	call	#0x6a16	
    bf8e:	b2 f0 ef ff 86 01 	and	#-17,	&0x0186	;#0xffef
    bf94:	c2 93 e3 14 	tst.b	&0x14e3	
    bf98:	02 24       	jz	$+6      	;abs 0xbf9e
    bf9a:	30 40 cc de 	br	#0xdecc	
    bf9e:	0e 43       	clr	r14		
    bfa0:	1f 43       	mov	#1,	r15	;r3 As==01
    bfa2:	b0 12 74 a2 	call	#0xa274	
    bfa6:	30 40 cc de 	br	#0xdecc	
    bfaa:	5d 42 38 1c 	mov.b	&0x1c38,r13	
    bfae:	4d 93       	tst.b	r13		
    bfb0:	02 20       	jnz	$+6      	;abs 0xbfb6
    bfb2:	30 40 cc de 	br	#0xdecc	
    bfb6:	82 93 34 1c 	tst	&0x1c34	
    bfba:	02 24       	jz	$+6      	;abs 0xbfc0
    bfbc:	30 40 cc de 	br	#0xdecc	
    bfc0:	19 42 7a 1c 	mov	&0x1c7a,r9	
    bfc4:	7d 53       	add.b	#-1,	r13	;r3 As==11
    bfc6:	c2 4d 38 1c 	mov.b	r13,	&0x1c38	
    bfca:	08 24       	jz	$+18     	;abs 0xbfdc
    bfcc:	4d 4d       	mov.b	r13,	r13	
    bfce:	0d 5d       	rla	r13		
    bfd0:	3e 40 7c 1c 	mov	#7292,	r14	;#0x1c7c
    bfd4:	3f 40 7a 1c 	mov	#7290,	r15	;#0x1c7a
    bfd8:	b0 12 9a f0 	call	#0xf09a	
    bfdc:	58 49 04 00 	mov.b	4(r9),	r8	;0x0004(r9)
    bfe0:	1e 49 02 00 	mov	2(r9),	r14	;0x0002(r9)
    bfe4:	2f 49       	mov	@r9,	r15	
    bfe6:	c2 93 b3 12 	tst.b	&0x12b3	
    bfea:	79 20       	jnz	$+244    	;abs 0xc0de
    bfec:	d2 43 b3 12 	mov.b	#1,	&0x12b3	;r3 As==01
    bff0:	b2 43 3a 1b 	mov	#-1,	&0x1b3a	;r3 As==11
    bff4:	82 4f d6 12 	mov	r15,	&0x12d6	
    bff8:	82 4f e6 17 	mov	r15,	&0x17e6	
    bffc:	0a 4e       	mov	r14,	r10	
    bffe:	8e 10       	swpb	r14		
    c000:	8e 11       	sxt	r14		
    c002:	8e 10       	swpb	r14		
    c004:	8e 11       	sxt	r14		
    c006:	0b 4e       	mov	r14,	r11	
    c008:	0c 4f       	mov	r15,	r12	
    c00a:	0e 4f       	mov	r15,	r14	
    c00c:	8e 10       	swpb	r14		
    c00e:	8e 11       	sxt	r14		
    c010:	8e 10       	swpb	r14		
    c012:	8e 11       	sxt	r14		
    c014:	0d 4e       	mov	r14,	r13	
    c016:	0a 8c       	sub	r12,	r10	
    c018:	0b 7d       	subc	r13,	r11	
    c01a:	0f 5a       	add	r10,	r15	
    c01c:	82 4f cc 14 	mov	r15,	&0x14cc	
    c020:	f2 40 7e 00 9a 15 	mov.b	#126,	&0x159a	;#0x007e
    c026:	48 93       	tst.b	r8		
    c028:	03 38       	jl	$+8      	;abs 0xc030
    c02a:	c2 93 6a 11 	tst.b	&0x116a	
    c02e:	2a 20       	jnz	$+86     	;abs 0xc084
    c030:	7e 43       	mov.b	#-1,	r14	;r3 As==11
    c032:	3f 43       	mov	#-1,	r15	;r3 As==11
    c034:	b0 12 b4 4c 	call	#0x4cb4	
    c038:	7e 40 03 00 	mov.b	#3,	r14	;#0x0003
    c03c:	b0 12 b4 4c 	call	#0x4cb4	
    c040:	82 4f 3a 1b 	mov	r15,	&0x1b3a	
    c044:	f2 43 9b 15 	mov.b	#-1,	&0x159b	;r3 As==11
    c048:	1e 42 6c 11 	mov	&0x116c,r14	
    c04c:	1f 42 6e 11 	mov	&0x116e,r15	
    c050:	12 c3       	clrc			
    c052:	0f 10       	rrc	r15		
    c054:	0e 10       	rrc	r14		
    c056:	12 c3       	clrc			
    c058:	0f 10       	rrc	r15		
    c05a:	0e 10       	rrc	r14		
    c05c:	12 c3       	clrc			
    c05e:	0f 10       	rrc	r15		
    c060:	0e 10       	rrc	r14		
    c062:	1e f3       	and	#1,	r14	;r3 As==01
    c064:	09 24       	jz	$+20     	;abs 0xc078
    c066:	f2 40 7d 00 9c 15 	mov.b	#125,	&0x159c	;#0x007d
    c06c:	f2 40 23 00 9d 15 	mov.b	#35,	&0x159d	;#0x0023
    c072:	3e 40 9e 15 	mov	#5534,	r14	;#0x159e
    c076:	08 3c       	jmp	$+18     	;abs 0xc088
    c078:	f2 40 03 00 9c 15 	mov.b	#3,	&0x159c	;#0x0003
    c07e:	3e 40 9d 15 	mov	#5533,	r14	;#0x159d
    c082:	02 3c       	jmp	$+6      	;abs 0xc088
    c084:	3e 40 9b 15 	mov	#5531,	r14	;#0x159b
    c088:	0a 4e       	mov	r14,	r10	
    c08a:	8e 10       	swpb	r14		
    c08c:	8e 11       	sxt	r14		
    c08e:	8e 10       	swpb	r14		
    c090:	8e 11       	sxt	r14		
    c092:	0b 4e       	mov	r14,	r11	
    c094:	3c 40 9a 15 	mov	#5530,	r12	;#0x159a
    c098:	0e 4c       	mov	r12,	r14	
    c09a:	8e 10       	swpb	r14		
    c09c:	8e 11       	sxt	r14		
    c09e:	8e 10       	swpb	r14		
    c0a0:	8e 11       	sxt	r14		
    c0a2:	0d 4e       	mov	r14,	r13	
    c0a4:	0a 8c       	sub	r12,	r10	
    c0a6:	0b 7d       	subc	r13,	r11	
    c0a8:	0a 93       	tst	r10		
    c0aa:	12 24       	jz	$+38     	;abs 0xc0d0
    c0ac:	82 93 1e 12 	tst	&0x121e	
    c0b0:	11 20       	jnz	$+36     	;abs 0xc0d4
    c0b2:	82 4c 1e 12 	mov	r12,	&0x121e	
    c0b6:	82 4a d8 12 	mov	r10,	&0x12d8	
    c0ba:	92 43 52 2a 	mov	#1,	&0x2a52	;r3 As==01
    c0be:	d2 42 9a 15 7f 00 	mov.b	&0x159a,&0x007f	
    c0c4:	e9 42 04 00 	mov.b	#4,	4(r9)	;r2 As==10, 0x0004(r9)
    c0c8:	82 49 34 1c 	mov	r9,	&0x1c34	
    c0cc:	30 40 cc de 	br	#0xdecc	
    c0d0:	5e 43       	mov.b	#1,	r14	;r3 As==01
    c0d2:	02 3c       	jmp	$+6      	;abs 0xc0d8
    c0d4:	7e 40 05 00 	mov.b	#5,	r14	;#0x0005
    c0d8:	c2 43 b3 12 	mov.b	#0,	&0x12b3	;r3 As==00
    c0dc:	02 3c       	jmp	$+6      	;abs 0xc0e2
    c0de:	7e 40 05 00 	mov.b	#5,	r14	;#0x0005
    c0e2:	5d 43       	mov.b	#1,	r13	;r3 As==01
    c0e4:	0f 49       	mov	r9,	r15	
    c0e6:	b0 12 6c 93 	call	#0x936c	
    c0ea:	30 40 cc de 	br	#0xdecc	
    c0ee:	b0 12 04 6a 	call	#0x6a04	
    c0f2:	c2 93 e2 1b 	tst.b	&0x1be2	
    c0f6:	02 20       	jnz	$+6      	;abs 0xc0fc
    c0f8:	30 40 fa c7 	br	#0xc7fa	
    c0fc:	b0 12 16 6a 	call	#0x6a16	
    c100:	1b 42 0e 12 	mov	&0x120e,r11	
    c104:	6f 4b       	mov.b	@r11,	r15	
    c106:	1f b3       	bit	#1,	r15	;r3 As==01
    c108:	02 24       	jz	$+6      	;abs 0xc10e
    c10a:	1b 53       	inc	r11		
    c10c:	06 3c       	jmp	$+14     	;abs 0xc11a
    c10e:	4f 4f       	mov.b	r15,	r15	
    c110:	8f 10       	swpb	r15		
    c112:	5e 4b 01 00 	mov.b	1(r11),	r14	;0x0001(r11)
    c116:	0f 5e       	add	r14,	r15	
    c118:	2b 53       	incd	r11		
    c11a:	3f 90 57 80 	cmp	#-32681,r15	;#0x8057
    c11e:	08 24       	jz	$+18     	;abs 0xc130
    c120:	3f 90 21 c0 	cmp	#-16351,r15	;#0xc021
    c124:	05 24       	jz	$+12     	;abs 0xc130
    c126:	3f 90 57 00 	cmp	#87,	r15	;#0x0057
    c12a:	02 24       	jz	$+6      	;abs 0xc130
    c12c:	30 40 c2 dd 	br	#0xddc2	
    c130:	1c 42 10 12 	mov	&0x1210,r12	
    c134:	0e 4c       	mov	r12,	r14	
    c136:	8e 10       	swpb	r14		
    c138:	8e 11       	sxt	r14		
    c13a:	8e 10       	swpb	r14		
    c13c:	8e 11       	sxt	r14		
    c13e:	0d 4e       	mov	r14,	r13	
    c140:	08 4b       	mov	r11,	r8	
    c142:	0e 4b       	mov	r11,	r14	
    c144:	8e 10       	swpb	r14		
    c146:	8e 11       	sxt	r14		
    c148:	8e 10       	swpb	r14		
    c14a:	8e 11       	sxt	r14		
    c14c:	09 4e       	mov	r14,	r9	
    c14e:	0c 88       	sub	r8,	r12	
    c150:	0d 79       	subc	r9,	r13	
    c152:	3f 90 57 80 	cmp	#-32681,r15	;#0x8057
    c156:	1a 24       	jz	$+54     	;abs 0xc18c
    c158:	3f 90 21 c0 	cmp	#-16351,r15	;#0xc021
    c15c:	02 20       	jnz	$+6      	;abs 0xc162
    c15e:	30 40 5a c4 	br	#0xc45a	
    c162:	3f 90 57 00 	cmp	#87,	r15	;#0x0057
    c166:	02 24       	jz	$+6      	;abs 0xc16c
    c168:	30 40 b8 c7 	br	#0xc7b8	
    c16c:	b0 12 04 6a 	call	#0x6a04	
    c170:	f2 e0 10 00 31 00 	xor.b	#16,	&0x0031	;#0x0010
    c176:	b0 12 16 6a 	call	#0x6a16	
    c17a:	0d 4b       	mov	r11,	r13	
    c17c:	3d 50 28 00 	add	#40,	r13	;#0x0028
    c180:	0e 4b       	mov	r11,	r14	
    c182:	6f 43       	mov.b	#2,	r15	;r3 As==10
    c184:	b0 12 d0 a4 	call	#0xa4d0	
    c188:	30 40 b8 c7 	br	#0xc7b8	
    c18c:	06 4b       	mov	r11,	r6	
    c18e:	06 5c       	add	r12,	r6	
    c190:	6f 4b       	mov.b	@r11,	r15	
    c192:	58 4b 01 00 	mov.b	1(r11),	r8	;0x0001(r11)
    c196:	4e 4f       	mov.b	r15,	r14	
    c198:	7e 53       	add.b	#-1,	r14	;r3 As==11
    c19a:	7e 90 06 00 	cmp.b	#6,	r14	;#0x0006
    c19e:	04 2c       	jc	$+10     	;abs 0xc1a8
    c1a0:	4e 4e       	mov.b	r14,	r14	
    c1a2:	ce 93 22 f3 	tst.b	-3294(r14)	;0xf322(r14)
    c1a6:	4a 20       	jnz	$+150    	;abs 0xc23c
    c1a8:	81 43 08 00 	mov	#0,	8(r1)	;r3 As==00, 0x0008(r1)
    c1ac:	0c 41       	mov	r1,	r12	
    c1ae:	3c 50 06 00 	add	#6,	r12	;#0x0006
    c1b2:	5d 43       	mov.b	#1,	r13	;r3 As==01
    c1b4:	0e 41       	mov	r1,	r14	
    c1b6:	3e 52       	add	#8,	r14	;r2 As==11
    c1b8:	3f 40 57 80 	mov	#-32681,r15	;#0x8057
    c1bc:	b0 12 c6 74 	call	#0x74c6	
    c1c0:	0f 93       	tst	r15		
    c1c2:	02 20       	jnz	$+6      	;abs 0xc1c8
    c1c4:	30 40 b8 c7 	br	#0xc7b8	
    c1c8:	ff 40 07 00 00 00 	mov.b	#7,	0(r15)	;#0x0007, 0x0000(r15)
    c1ce:	5e 42 d5 12 	mov.b	&0x12d5,r14	
    c1d2:	cf 4e 01 00 	mov.b	r14,	1(r15)	;0x0001(r15)
    c1d6:	5e 53       	inc.b	r14		
    c1d8:	c2 4e d5 12 	mov.b	r14,	&0x12d5	
    c1dc:	0e 4f       	mov	r15,	r14	
    c1de:	2e 52       	add	#4,	r14	;r2 As==10
    c1e0:	03 3c       	jmp	$+8      	;abs 0xc1e8
    c1e2:	fe 4b 00 00 	mov.b	@r11+,	0(r14)	;0x0000(r14)
    c1e6:	1e 53       	inc	r14		
    c1e8:	1e 91 08 00 	cmp	8(r1),	r14	;0x0008(r1)
    c1ec:	02 2c       	jc	$+6      	;abs 0xc1f2
    c1ee:	0b 96       	cmp	r6,	r11	
    c1f0:	f8 2b       	jnc	$-14     	;abs 0xc1e2
    c1f2:	08 4e       	mov	r14,	r8	
    c1f4:	0d 4e       	mov	r14,	r13	
    c1f6:	8d 10       	swpb	r13		
    c1f8:	8d 11       	sxt	r13		
    c1fa:	8d 10       	swpb	r13		
    c1fc:	8d 11       	sxt	r13		
    c1fe:	09 4d       	mov	r13,	r9	
    c200:	0a 4f       	mov	r15,	r10	
    c202:	0d 4f       	mov	r15,	r13	
    c204:	8d 10       	swpb	r13		
    c206:	8d 11       	sxt	r13		
    c208:	8d 10       	swpb	r13		
    c20a:	8d 11       	sxt	r13		
    c20c:	0b 4d       	mov	r13,	r11	
    c20e:	08 8a       	sub	r10,	r8	
    c210:	09 7b       	subc	r11,	r9	
    c212:	0d 48       	mov	r8,	r13	
    c214:	8d 10       	swpb	r13		
    c216:	cf 4d 02 00 	mov.b	r13,	2(r15)	;0x0002(r15)
    c21a:	cf 48 03 00 	mov.b	r8,	3(r15)	;0x0003(r15)
    c21e:	1f 41 06 00 	mov	6(r1),	r15	;0x0006(r1)
    c222:	b0 12 de 93 	call	#0x93de	
    c226:	4e 4f       	mov.b	r15,	r14	
    c228:	4f 93       	tst.b	r15		
    c22a:	02 24       	jz	$+6      	;abs 0xc230
    c22c:	30 40 ac c7 	br	#0xc7ac	
    c230:	1f 41 06 00 	mov	6(r1),	r15	;0x0006(r1)
    c234:	b0 12 1e 6c 	call	#0x6c1e	
    c238:	30 40 aa c7 	br	#0xc7aa	
    c23c:	2b 52       	add	#4,	r11	;r2 As==10
    c23e:	6f 83       	decd.b	r15		
    c240:	7f 90 05 00 	cmp.b	#5,	r15	;#0x0005
    c244:	04 2c       	jc	$+10     	;abs 0xc24e
    c246:	4f 4f       	mov.b	r15,	r15	
    c248:	0f 5f       	rla	r15		
    c24a:	10 4f ba f2 	br	-3398(r15)	;0xf2ba(r15)
    c24e:	0c 41       	mov	r1,	r12	
    c250:	3c 52       	add	#8,	r12	;r2 As==11
    c252:	4d 43       	clr.b	r13		
    c254:	0e 41       	mov	r1,	r14	
    c256:	3e 50 06 00 	add	#6,	r14	;#0x0006
    c25a:	3f 40 57 80 	mov	#-32681,r15	;#0x8057
    c25e:	b0 12 c6 74 	call	#0x74c6	
    c262:	09 4f       	mov	r15,	r9	
    c264:	0f 93       	tst	r15		
    c266:	02 20       	jnz	$+6      	;abs 0xc26c
    c268:	30 40 b8 c7 	br	#0xc7b8	
    c26c:	0a 43       	clr	r10		
    c26e:	54 43       	mov.b	#1,	r4	;r3 As==01
    c270:	07 4f       	mov	r15,	r7	
    c272:	27 52       	add	#4,	r7	;r2 As==10
    c274:	0f 4a       	mov	r10,	r15	
    c276:	31 3c       	jmp	$+100    	;abs 0xc2da
    c278:	65 4b       	mov.b	@r11,	r5	
    c27a:	5c 4b 01 00 	mov.b	1(r11),	r12	;0x0001(r11)
    c27e:	4b 4c       	mov.b	r12,	r11	
    c280:	6b 83       	decd.b	r11		
    c282:	55 93       	cmp.b	#1,	r5	;r3 As==01
    c284:	02 20       	jnz	$+6      	;abs 0xc28a
    c286:	6d 43       	mov.b	#2,	r13	;r3 As==10
    c288:	01 3c       	jmp	$+4      	;abs 0xc28c
    c28a:	6d 42       	mov.b	#4,	r13	;r2 As==10
    c28c:	44 9d       	cmp.b	r13,	r4	
    c28e:	05 2c       	jc	$+12     	;abs 0xc29a
    c290:	0f 47       	mov	r7,	r15	
    c292:	81 47 32 00 	mov	r7,	50(r1)	;0x0032(r1)
    c296:	44 4d       	mov.b	r13,	r4	
    c298:	02 3c       	jmp	$+6      	;abs 0xc29e
    c29a:	4d 94       	cmp.b	r4,	r13	
    c29c:	14 20       	jnz	$+42     	;abs 0xc2c6
    c29e:	0e 4f       	mov	r15,	r14	
    c2a0:	2e 53       	incd	r14		
    c2a2:	81 9e 06 00 	cmp	r14,	6(r1)	;0x0006(r1)
    c2a6:	11 28       	jnc	$+36     	;abs 0xc2ca
    c2a8:	cf 45 00 00 	mov.b	r5,	0(r15)	;0x0000(r15)
    c2ac:	cf 4c 01 00 	mov.b	r12,	1(r15)	;0x0001(r15)
    c2b0:	0f 4e       	mov	r14,	r15	
    c2b2:	4d 4b       	mov.b	r11,	r13	
    c2b4:	05 4e       	mov	r14,	r5	
    c2b6:	05 5d       	add	r13,	r5	
    c2b8:	81 95 06 00 	cmp	r5,	6(r1)	;0x0006(r1)
    c2bc:	06 28       	jnc	$+14     	;abs 0xc2ca
    c2be:	0e 4a       	mov	r10,	r14	
    c2c0:	b0 12 9a f0 	call	#0xf09a	
    c2c4:	0f 45       	mov	r5,	r15	
    c2c6:	4e 43       	clr.b	r14		
    c2c8:	02 3c       	jmp	$+6      	;abs 0xc2ce
    c2ca:	7e 40 0a 00 	mov.b	#10,	r14	;#0x000a
    c2ce:	4b 4b       	mov.b	r11,	r11	
    c2d0:	0b 5a       	add	r10,	r11	
    c2d2:	4e 93       	tst.b	r14		
    c2d4:	02 24       	jz	$+6      	;abs 0xc2da
    c2d6:	30 40 1c c6 	br	#0xc61c	
    c2da:	0a 4b       	mov	r11,	r10	
    c2dc:	2a 53       	incd	r10		
    c2de:	06 9a       	cmp	r10,	r6	
    c2e0:	cb 2f       	jc	$-104    	;abs 0xc278
    c2e2:	30 40 d6 dd 	br	#0xddd6	
    c2e6:	5f 43       	mov.b	#1,	r15	;r3 As==01
    c2e8:	64 93       	cmp.b	#2,	r4	;r3 As==10
    c2ea:	01 24       	jz	$+4      	;abs 0xc2ee
    c2ec:	4f 43       	clr.b	r15		
    c2ee:	c1 4f 30 00 	mov.b	r15,	48(r1)	;0x0030(r1)
    c2f2:	c1 44 31 00 	mov.b	r4,	49(r1)	;0x0031(r1)
    c2f6:	81 4a 34 00 	mov	r10,	52(r1)	;0x0034(r1)
    c2fa:	91 41 08 00 36 00 	mov	8(r1),	54(r1)	;0x0008(r1), 0x0036(r1)
    c300:	0e 41       	mov	r1,	r14	
    c302:	3e 50 30 00 	add	#48,	r14	;#0x0030
    c306:	3f 40 05 00 	mov	#5,	r15	;#0x0005
    c30a:	8d 3c       	jmp	$+284    	;abs 0xc426
    c30c:	c2 98 9c 23 	cmp.b	r8,	&0x239c	
    c310:	02 24       	jz	$+6      	;abs 0xc316
    c312:	30 40 b8 c7 	br	#0xc7b8	
    c316:	e1 43 20 00 	mov.b	#2,	32(r1)	;r3 As==10, 0x0020(r1)
    c31a:	81 4b 1c 00 	mov	r11,	28(r1)	;0x001c(r1)
    c31e:	81 46 1e 00 	mov	r6,	30(r1)	;0x001e(r1)
    c322:	0e 41       	mov	r1,	r14	
    c324:	3e 50 1c 00 	add	#28,	r14	;#0x001c
    c328:	3f 40 06 00 	mov	#6,	r15	;#0x0006
    c32c:	92 3c       	jmp	$+294    	;abs 0xc452
    c32e:	c2 98 9c 23 	cmp.b	r8,	&0x239c	
    c332:	02 24       	jz	$+6      	;abs 0xc338
    c334:	30 40 b8 c7 	br	#0xc7b8	
    c338:	f1 40 03 00 20 00 	mov.b	#3,	32(r1)	;#0x0003, 0x0020(r1)
    c33e:	07 3c       	jmp	$+16     	;abs 0xc34e
    c340:	c2 98 9c 23 	cmp.b	r8,	&0x239c	
    c344:	02 24       	jz	$+6      	;abs 0xc34a
    c346:	30 40 b8 c7 	br	#0xc7b8	
    c34a:	e1 42 20 00 	mov.b	#4,	32(r1)	;r2 As==10, 0x0020(r1)
    c34e:	81 4b 1c 00 	mov	r11,	28(r1)	;0x001c(r1)
    c352:	81 46 1e 00 	mov	r6,	30(r1)	;0x001e(r1)
    c356:	0e 41       	mov	r1,	r14	
    c358:	3e 50 1c 00 	add	#28,	r14	;#0x001c
    c35c:	3f 40 07 00 	mov	#7,	r15	;#0x0007
    c360:	78 3c       	jmp	$+242    	;abs 0xc452
    c362:	0c 41       	mov	r1,	r12	
    c364:	3c 52       	add	#8,	r12	;r2 As==11
    c366:	4d 43       	clr.b	r13		
    c368:	0e 41       	mov	r1,	r14	
    c36a:	3e 50 06 00 	add	#6,	r14	;#0x0006
    c36e:	3f 40 57 80 	mov	#-32681,r15	;#0x8057
    c372:	b0 12 c6 74 	call	#0x74c6	
    c376:	0a 4f       	mov	r15,	r10	
    c378:	0f 93       	tst	r15		
    c37a:	02 20       	jnz	$+6      	;abs 0xc380
    c37c:	30 40 b8 c7 	br	#0xc7b8	
    c380:	ff 40 06 00 00 00 	mov.b	#6,	0(r15)	;#0x0006, 0x0000(r15)
    c386:	cf 48 01 00 	mov.b	r8,	1(r15)	;0x0001(r15)
    c38a:	0e 46       	mov	r6,	r14	
    c38c:	0c 46       	mov	r6,	r12	
    c38e:	8c 10       	swpb	r12		
    c390:	8c 11       	sxt	r12		
    c392:	8c 10       	swpb	r12		
    c394:	8c 11       	sxt	r12		
    c396:	0f 4c       	mov	r12,	r15	
    c398:	08 4b       	mov	r11,	r8	
    c39a:	0c 4b       	mov	r11,	r12	
    c39c:	8c 10       	swpb	r12		
    c39e:	8c 11       	sxt	r12		
    c3a0:	8c 10       	swpb	r12		
    c3a2:	8c 11       	sxt	r12		
    c3a4:	09 4c       	mov	r12,	r9	
    c3a6:	0e 88       	sub	r8,	r14	
    c3a8:	0f 79       	subc	r9,	r15	
    c3aa:	09 4e       	mov	r14,	r9	
    c3ac:	29 52       	add	#4,	r9	;r2 As==10
    c3ae:	1c 41 06 00 	mov	6(r1),	r12	;0x0006(r1)
    c3b2:	0f 4a       	mov	r10,	r15	
    c3b4:	0f 59       	add	r9,	r15	
    c3b6:	0c 9f       	cmp	r15,	r12	
    c3b8:	10 2c       	jc	$+34     	;abs 0xc3da
    c3ba:	0e 4c       	mov	r12,	r14	
    c3bc:	8c 10       	swpb	r12		
    c3be:	8c 11       	sxt	r12		
    c3c0:	8c 10       	swpb	r12		
    c3c2:	8c 11       	sxt	r12		
    c3c4:	0f 4c       	mov	r12,	r15	
    c3c6:	08 4a       	mov	r10,	r8	
    c3c8:	0c 4a       	mov	r10,	r12	
    c3ca:	8c 10       	swpb	r12		
    c3cc:	8c 11       	sxt	r12		
    c3ce:	8c 10       	swpb	r12		
    c3d0:	8c 11       	sxt	r12		
    c3d2:	09 4c       	mov	r12,	r9	
    c3d4:	0e 88       	sub	r8,	r14	
    c3d6:	0f 79       	subc	r9,	r15	
    c3d8:	09 4e       	mov	r14,	r9	
    c3da:	0d 49       	mov	r9,	r13	
    c3dc:	2d 82       	sub	#4,	r13	;r2 As==10
    c3de:	0e 4b       	mov	r11,	r14	
    c3e0:	0f 4a       	mov	r10,	r15	
    c3e2:	2f 52       	add	#4,	r15	;r2 As==10
    c3e4:	b0 12 a0 ef 	call	#0xefa0	
    c3e8:	0f 49       	mov	r9,	r15	
    c3ea:	8f 10       	swpb	r15		
    c3ec:	ca 4f 02 00 	mov.b	r15,	2(r10)	;0x0002(r10)
    c3f0:	ca 49 03 00 	mov.b	r9,	3(r10)	;0x0003(r10)
    c3f4:	0e 4a       	mov	r10,	r14	
    c3f6:	0e 59       	add	r9,	r14	
    c3f8:	1f 41 08 00 	mov	8(r1),	r15	;0x0008(r1)
    c3fc:	b0 12 de 93 	call	#0x93de	
    c400:	4e 4f       	mov.b	r15,	r14	
    c402:	4f 93       	tst.b	r15		
    c404:	02 24       	jz	$+6      	;abs 0xc40a
    c406:	30 40 ac c7 	br	#0xc7ac	
    c40a:	f1 40 05 00 3c 00 	mov.b	#5,	60(r1)	;#0x0005, 0x003c(r1)
    c410:	81 4b 38 00 	mov	r11,	56(r1)	;0x0038(r1)
    c414:	81 46 3a 00 	mov	r6,	58(r1)	;0x003a(r1)
    c418:	91 41 08 00 3e 00 	mov	8(r1),	62(r1)	;0x0008(r1), 0x003e(r1)
    c41e:	0e 41       	mov	r1,	r14	
    c420:	3e 50 38 00 	add	#56,	r14	;#0x0038
    c424:	3f 42       	mov	#8,	r15	;r2 As==11
    c426:	b0 12 e0 99 	call	#0x99e0	
    c42a:	30 40 42 c7 	br	#0xc742	
    c42e:	c2 98 f2 11 	cmp.b	r8,	&0x11f2	
    c432:	02 24       	jz	$+6      	;abs 0xc438
    c434:	30 40 b8 c7 	br	#0xc7b8	
    c438:	f1 40 05 00 3c 00 	mov.b	#5,	60(r1)	;#0x0005, 0x003c(r1)
    c43e:	81 4b 38 00 	mov	r11,	56(r1)	;0x0038(r1)
    c442:	81 46 3a 00 	mov	r6,	58(r1)	;0x003a(r1)
    c446:	81 43 3e 00 	mov	#0,	62(r1)	;r3 As==00, 0x003e(r1)
    c44a:	0e 41       	mov	r1,	r14	
    c44c:	3e 50 38 00 	add	#56,	r14	;#0x0038
    c450:	3f 42       	mov	#8,	r15	;r2 As==11
    c452:	b0 12 e0 99 	call	#0x99e0	
    c456:	30 40 aa c7 	br	#0xc7aa	
    c45a:	0c 5b       	add	r11,	r12	
    c45c:	81 4c d6 01 	mov	r12,	470(r1)	;0x01d6(r1)
    c460:	d1 4b 01 00 d8 01 	mov.b	1(r11),	472(r1)	;0x0001(r11), 0x01d8(r1)
    c466:	6f 4b       	mov.b	@r11,	r15	
    c468:	7f 53       	add.b	#-1,	r15	;r3 As==11
    c46a:	7f 92       	cmp.b	#8,	r15	;r2 As==11
    c46c:	04 2c       	jc	$+10     	;abs 0xc476
    c46e:	4f 4f       	mov.b	r15,	r15	
    c470:	cf 93 28 f3 	tst.b	-3288(r15)	;0xf328(r15)
    c474:	06 20       	jnz	$+14     	;abs 0xc482
    c476:	1d 41 d6 01 	mov	470(r1),r13	;0x01d6(r1)
    c47a:	0e 4b       	mov	r11,	r14	
    c47c:	0f 43       	clr	r15		
    c47e:	30 40 a6 c7 	br	#0xc7a6	
    c482:	2b 52       	add	#4,	r11	;r2 As==10
    c484:	0f 5f       	rla	r15		
    c486:	10 4f c4 f2 	br	-3388(r15)	;0xf2c4(r15)
    c48a:	0c 41       	mov	r1,	r12	
    c48c:	3c 52       	add	#8,	r12	;r2 As==11
    c48e:	5d 43       	mov.b	#1,	r13	;r3 As==01
    c490:	0e 41       	mov	r1,	r14	
    c492:	3e 50 06 00 	add	#6,	r14	;#0x0006
    c496:	3f 40 21 c0 	mov	#-16351,r15	;#0xc021
    c49a:	b0 12 c6 74 	call	#0x74c6	
    c49e:	06 4f       	mov	r15,	r6	
    c4a0:	0f 93       	tst	r15		
    c4a2:	02 20       	jnz	$+6      	;abs 0xc4a8
    c4a4:	30 40 b8 c7 	br	#0xc7b8	
    c4a8:	04 43       	clr	r4		
    c4aa:	57 43       	mov.b	#1,	r7	;r3 As==01
    c4ac:	0a 4f       	mov	r15,	r10	
    c4ae:	2a 52       	add	#4,	r10	;r2 As==10
    c4b0:	81 4a e2 01 	mov	r10,	482(r1)	;0x01e2(r1)
    c4b4:	0f 44       	mov	r4,	r15	
    c4b6:	48 47       	mov.b	r7,	r8	
    c4b8:	97 3c       	jmp	$+304    	;abs 0xc5e8
    c4ba:	6a 4b       	mov.b	@r11,	r10	
    c4bc:	59 4b 01 00 	mov.b	1(r11),	r9	;0x0001(r11)
    c4c0:	45 49       	mov.b	r9,	r5	
    c4c2:	65 83       	decd.b	r5		
    c4c4:	4d 4a       	mov.b	r10,	r13	
    c4c6:	7d 53       	add.b	#-1,	r13	;r3 As==11
    c4c8:	7d 92       	cmp.b	#8,	r13	;r2 As==11
    c4ca:	17 2c       	jc	$+48     	;abs 0xc4fa
    c4cc:	4d 4d       	mov.b	r13,	r13	
    c4ce:	cd 93 1a f3 	tst.b	-3302(r13)	;0xf31a(r13)
    c4d2:	13 24       	jz	$+40     	;abs 0xc4fa
    c4d4:	6a 93       	cmp.b	#2,	r10	;r3 As==10
    c4d6:	13 24       	jz	$+40     	;abs 0xc4fe
    c4d8:	7a 92       	cmp.b	#8,	r10	;r2 As==11
    c4da:	11 24       	jz	$+36     	;abs 0xc4fe
    c4dc:	5a 93       	cmp.b	#1,	r10	;r3 As==01
    c4de:	0d 20       	jnz	$+28     	;abs 0xc4fa
    c4e0:	5c 4b 02 00 	mov.b	2(r11),	r12	;0x0002(r11)
    c4e4:	8c 10       	swpb	r12		
    c4e6:	5d 4b 03 00 	mov.b	3(r11),	r13	;0x0003(r11)
    c4ea:	0c dd       	bis	r13,	r12	
    c4ec:	3c 90 01 05 	cmp	#1281,	r12	;#0x0501
    c4f0:	06 28       	jnc	$+14     	;abs 0xc4fe
    c4f2:	82 9c 66 11 	cmp	r12,	&0x1166	
    c4f6:	05 20       	jnz	$+12     	;abs 0xc502
    c4f8:	02 3c       	jmp	$+6      	;abs 0xc4fe
    c4fa:	6d 42       	mov.b	#4,	r13	;r2 As==10
    c4fc:	04 3c       	jmp	$+10     	;abs 0xc506
    c4fe:	6d 43       	mov.b	#2,	r13	;r3 As==10
    c500:	02 3c       	jmp	$+6      	;abs 0xc506
    c502:	7d 40 03 00 	mov.b	#3,	r13	;#0x0003
    c506:	48 9d       	cmp.b	r13,	r8	
    c508:	05 2c       	jc	$+12     	;abs 0xc514
    c50a:	1f 41 e2 01 	mov	482(r1),r15	;0x01e2(r1)
    c50e:	81 4f 32 00 	mov	r15,	50(r1)	;0x0032(r1)
    c512:	02 3c       	jmp	$+6      	;abs 0xc518
    c514:	4d 98       	cmp.b	r8,	r13	
    c516:	60 20       	jnz	$+194    	;abs 0xc5d8
    c518:	48 4d       	mov.b	r13,	r8	
    c51a:	0b 4f       	mov	r15,	r11	
    c51c:	2b 53       	incd	r11		
    c51e:	81 9b 06 00 	cmp	r11,	6(r1)	;0x0006(r1)
    c522:	5c 28       	jnc	$+186    	;abs 0xc5dc
    c524:	cf 4a 00 00 	mov.b	r10,	0(r15)	;0x0000(r15)
    c528:	7d 90 03 00 	cmp.b	#3,	r13	;#0x0003
    c52c:	49 20       	jnz	$+148    	;abs 0xc5c0
    c52e:	1c 41 06 00 	mov	6(r1),	r12	;0x0006(r1)
    c532:	6a 93       	cmp.b	#2,	r10	;r3 As==10
    c534:	0d 24       	jz	$+28     	;abs 0xc550
    c536:	7a 92       	cmp.b	#8,	r10	;r2 As==11
    c538:	1b 24       	jz	$+56     	;abs 0xc570
    c53a:	5a 93       	cmp.b	#1,	r10	;r3 As==01
    c53c:	1d 20       	jnz	$+60     	;abs 0xc578
    c53e:	2b 53       	incd	r11		
    c540:	0c 9b       	cmp	r11,	r12	
    c542:	1a 28       	jnc	$+54     	;abs 0xc578
    c544:	ff 40 05 00 02 00 	mov.b	#5,	2(r15)	;#0x0005, 0x0002(r15)
    c54a:	cf 43 03 00 	mov.b	#0,	3(r15)	;r3 As==00, 0x0003(r15)
    c54e:	10 3c       	jmp	$+34     	;abs 0xc570
    c550:	0d 4f       	mov	r15,	r13	
    c552:	3d 50 03 00 	add	#3,	r13	;#0x0003
    c556:	0c 9d       	cmp	r13,	r12	
    c558:	0f 28       	jnc	$+32     	;abs 0xc578
    c55a:	cf 43 05 00 	mov.b	#0,	5(r15)	;r3 As==00, 0x0005(r15)
    c55e:	cf 43 04 00 	mov.b	#0,	4(r15)	;r3 As==00, 0x0004(r15)
    c562:	cf 43 03 00 	mov.b	#0,	3(r15)	;r3 As==00, 0x0003(r15)
    c566:	cf 43 02 00 	mov.b	#0,	2(r15)	;r3 As==00, 0x0002(r15)
    c56a:	0b 4f       	mov	r15,	r11	
    c56c:	3b 50 06 00 	add	#6,	r11	;#0x0006
    c570:	0b 93       	tst	r11		
    c572:	03 24       	jz	$+8      	;abs 0xc57a
    c574:	4e 43       	clr.b	r14		
    c576:	03 3c       	jmp	$+8      	;abs 0xc57e
    c578:	0b 43       	clr	r11		
    c57a:	7e 40 0a 00 	mov.b	#10,	r14	;#0x000a
    c57e:	81 4b da 01 	mov	r11,	474(r1)	;0x01da(r1)
    c582:	0d 4b       	mov	r11,	r13	
    c584:	8d 10       	swpb	r13		
    c586:	8d 11       	sxt	r13		
    c588:	8d 10       	swpb	r13		
    c58a:	8d 11       	sxt	r13		
    c58c:	81 4d dc 01 	mov	r13,	476(r1)	;0x01dc(r1)
    c590:	0d 4f       	mov	r15,	r13	
    c592:	1d 53       	inc	r13		
    c594:	81 4d de 01 	mov	r13,	478(r1)	;0x01de(r1)
    c598:	8d 10       	swpb	r13		
    c59a:	8d 11       	sxt	r13		
    c59c:	8d 10       	swpb	r13		
    c59e:	8d 11       	sxt	r13		
    c5a0:	81 4d e0 01 	mov	r13,	480(r1)	;0x01e0(r1)
    c5a4:	1c 41 da 01 	mov	474(r1),r12	;0x01da(r1)
    c5a8:	1d 41 dc 01 	mov	476(r1),r13	;0x01dc(r1)
    c5ac:	1c 81 de 01 	sub	478(r1),r12	;0x01de(r1)
    c5b0:	1d 71 e0 01 	subc	480(r1),r13	;0x01e0(r1)
    c5b4:	4a 4c       	mov.b	r12,	r10	
    c5b6:	5a 53       	inc.b	r10		
    c5b8:	cf 4a 01 00 	mov.b	r10,	1(r15)	;0x0001(r15)
    c5bc:	0f 4b       	mov	r11,	r15	
    c5be:	10 3c       	jmp	$+34     	;abs 0xc5e0
    c5c0:	cf 49 01 00 	mov.b	r9,	1(r15)	;0x0001(r15)
    c5c4:	0f 4b       	mov	r11,	r15	
    c5c6:	4d 45       	mov.b	r5,	r13	
    c5c8:	0b 5d       	add	r13,	r11	
    c5ca:	81 9b 06 00 	cmp	r11,	6(r1)	;0x0006(r1)
    c5ce:	06 28       	jnc	$+14     	;abs 0xc5dc
    c5d0:	0e 47       	mov	r7,	r14	
    c5d2:	b0 12 9a f0 	call	#0xf09a	
    c5d6:	0f 4b       	mov	r11,	r15	
    c5d8:	4e 43       	clr.b	r14		
    c5da:	02 3c       	jmp	$+6      	;abs 0xc5e0
    c5dc:	7e 40 0a 00 	mov.b	#10,	r14	;#0x000a
    c5e0:	4b 45       	mov.b	r5,	r11	
    c5e2:	0b 57       	add	r7,	r11	
    c5e4:	4e 93       	tst.b	r14		
    c5e6:	1a 20       	jnz	$+54     	;abs 0xc61c
    c5e8:	07 4b       	mov	r11,	r7	
    c5ea:	27 53       	incd	r7		
    c5ec:	81 97 d6 01 	cmp	r7,	470(r1)	;0x01d6(r1)
    c5f0:	64 2f       	jc	$-310    	;abs 0xc4ba
    c5f2:	30 40 24 de 	br	#0xde24	
    c5f6:	5d 43       	mov.b	#1,	r13	;r3 As==01
    c5f8:	67 93       	cmp.b	#2,	r7	;r3 As==10
    c5fa:	01 24       	jz	$+4      	;abs 0xc5fe
    c5fc:	4d 43       	clr.b	r13		
    c5fe:	c1 4d 30 00 	mov.b	r13,	48(r1)	;0x0030(r1)
    c602:	c1 47 31 00 	mov.b	r7,	49(r1)	;0x0031(r1)
    c606:	81 44 34 00 	mov	r4,	52(r1)	;0x0034(r1)
    c60a:	91 41 08 00 36 00 	mov	8(r1),	54(r1)	;0x0008(r1), 0x0036(r1)
    c610:	0e 41       	mov	r1,	r14	
    c612:	3e 50 30 00 	add	#48,	r14	;#0x0030
    c616:	3f 40 05 00 	mov	#5,	r15	;#0x0005
    c61a:	91 3c       	jmp	$+292    	;abs 0xc73e
    c61c:	1f 41 08 00 	mov	8(r1),	r15	;0x0008(r1)
    c620:	81 4e e4 01 	mov	r14,	484(r1)	;0x01e4(r1)
    c624:	b0 12 fa 94 	call	#0x94fa	
    c628:	1e 41 e4 01 	mov	484(r1),r14	;0x01e4(r1)
    c62c:	bf 3c       	jmp	$+384    	;abs 0xc7ac
    c62e:	d2 91 d8 01 0c 25 	cmp.b	472(r1),&0x250c	;0x01d8(r1)
    c634:	c1 20       	jnz	$+388    	;abs 0xc7b8
    c636:	e1 43 20 00 	mov.b	#2,	32(r1)	;r3 As==10, 0x0020(r1)
    c63a:	81 4b 1c 00 	mov	r11,	28(r1)	;0x001c(r1)
    c63e:	91 41 d6 01 1e 00 	mov	470(r1),30(r1)	;0x01d6(r1), 0x001e(r1)
    c644:	0e 41       	mov	r1,	r14	
    c646:	3e 50 1c 00 	add	#28,	r14	;#0x001c
    c64a:	3f 40 06 00 	mov	#6,	r15	;#0x0006
    c64e:	94 3c       	jmp	$+298    	;abs 0xc778
    c650:	d2 91 d8 01 0c 25 	cmp.b	472(r1),&0x250c	;0x01d8(r1)
    c656:	b0 20       	jnz	$+354    	;abs 0xc7b8
    c658:	f1 40 03 00 20 00 	mov.b	#3,	32(r1)	;#0x0003, 0x0020(r1)
    c65e:	06 3c       	jmp	$+14     	;abs 0xc66c
    c660:	d2 91 d8 01 0c 25 	cmp.b	472(r1),&0x250c	;0x01d8(r1)
    c666:	a8 20       	jnz	$+338    	;abs 0xc7b8
    c668:	e1 42 20 00 	mov.b	#4,	32(r1)	;r2 As==10, 0x0020(r1)
    c66c:	81 4b 1c 00 	mov	r11,	28(r1)	;0x001c(r1)
    c670:	91 41 d6 01 1e 00 	mov	470(r1),30(r1)	;0x01d6(r1), 0x001e(r1)
    c676:	0e 41       	mov	r1,	r14	
    c678:	3e 50 1c 00 	add	#28,	r14	;#0x001c
    c67c:	3f 40 07 00 	mov	#7,	r15	;#0x0007
    c680:	7b 3c       	jmp	$+248    	;abs 0xc778
    c682:	0c 41       	mov	r1,	r12	
    c684:	3c 52       	add	#8,	r12	;r2 As==11
    c686:	5d 43       	mov.b	#1,	r13	;r3 As==01
    c688:	0e 41       	mov	r1,	r14	
    c68a:	3e 50 06 00 	add	#6,	r14	;#0x0006
    c68e:	3f 40 21 c0 	mov	#-16351,r15	;#0xc021
    c692:	b0 12 c6 74 	call	#0x74c6	
    c696:	0a 4f       	mov	r15,	r10	
    c698:	0f 93       	tst	r15		
    c69a:	8e 24       	jz	$+286    	;abs 0xc7b8
    c69c:	ff 40 06 00 00 00 	mov.b	#6,	0(r15)	;#0x0006, 0x0000(r15)
    c6a2:	df 41 d8 01 01 00 	mov.b	472(r1),1(r15)	;0x01d8(r1), 0x0001(r15)
    c6a8:	16 41 d6 01 	mov	470(r1),r6	;0x01d6(r1)
    c6ac:	0c 46       	mov	r6,	r12	
    c6ae:	8c 10       	swpb	r12		
    c6b0:	8c 11       	sxt	r12		
    c6b2:	8c 10       	swpb	r12		
    c6b4:	8c 11       	sxt	r12		
    c6b6:	07 4c       	mov	r12,	r7	
    c6b8:	08 4b       	mov	r11,	r8	
    c6ba:	0c 4b       	mov	r11,	r12	
    c6bc:	8c 10       	swpb	r12		
    c6be:	8c 11       	sxt	r12		
    c6c0:	8c 10       	swpb	r12		
    c6c2:	8c 11       	sxt	r12		
    c6c4:	09 4c       	mov	r12,	r9	
    c6c6:	06 88       	sub	r8,	r6	
    c6c8:	07 79       	subc	r9,	r7	
    c6ca:	26 52       	add	#4,	r6	;r2 As==10
    c6cc:	1c 41 06 00 	mov	6(r1),	r12	;0x0006(r1)
    c6d0:	0f 56       	add	r6,	r15	
    c6d2:	0c 9f       	cmp	r15,	r12	
    c6d4:	0f 2c       	jc	$+32     	;abs 0xc6f4
    c6d6:	06 4c       	mov	r12,	r6	
    c6d8:	8c 10       	swpb	r12		
    c6da:	8c 11       	sxt	r12		
    c6dc:	8c 10       	swpb	r12		
    c6de:	8c 11       	sxt	r12		
    c6e0:	07 4c       	mov	r12,	r7	
    c6e2:	08 4a       	mov	r10,	r8	
    c6e4:	0c 4a       	mov	r10,	r12	
    c6e6:	8c 10       	swpb	r12		
    c6e8:	8c 11       	sxt	r12		
    c6ea:	8c 10       	swpb	r12		
    c6ec:	8c 11       	sxt	r12		
    c6ee:	09 4c       	mov	r12,	r9	
    c6f0:	06 88       	sub	r8,	r6	
    c6f2:	07 79       	subc	r9,	r7	
    c6f4:	0d 46       	mov	r6,	r13	
    c6f6:	2d 82       	sub	#4,	r13	;r2 As==10
    c6f8:	0e 4b       	mov	r11,	r14	
    c6fa:	0f 4a       	mov	r10,	r15	
    c6fc:	2f 52       	add	#4,	r15	;r2 As==10
    c6fe:	b0 12 a0 ef 	call	#0xefa0	
    c702:	0f 46       	mov	r6,	r15	
    c704:	8f 10       	swpb	r15		
    c706:	ca 4f 02 00 	mov.b	r15,	2(r10)	;0x0002(r10)
    c70a:	ca 46 03 00 	mov.b	r6,	3(r10)	;0x0003(r10)
    c70e:	0e 4a       	mov	r10,	r14	
    c710:	0e 56       	add	r6,	r14	
    c712:	1f 41 08 00 	mov	8(r1),	r15	;0x0008(r1)
    c716:	b0 12 de 93 	call	#0x93de	
    c71a:	4e 4f       	mov.b	r15,	r14	
    c71c:	4f 93       	tst.b	r15		
    c71e:	46 20       	jnz	$+142    	;abs 0xc7ac
    c720:	f1 40 05 00 3c 00 	mov.b	#5,	60(r1)	;#0x0005, 0x003c(r1)
    c726:	81 4b 38 00 	mov	r11,	56(r1)	;0x0038(r1)
    c72a:	91 41 d6 01 3a 00 	mov	470(r1),58(r1)	;0x01d6(r1), 0x003a(r1)
    c730:	91 41 08 00 3e 00 	mov	8(r1),	62(r1)	;0x0008(r1), 0x003e(r1)
    c736:	0e 41       	mov	r1,	r14	
    c738:	3e 50 38 00 	add	#56,	r14	;#0x0038
    c73c:	3f 42       	mov	#8,	r15	;r2 As==11
    c73e:	b0 12 74 a2 	call	#0xa274	
    c742:	4e 4f       	mov.b	r15,	r14	
    c744:	7f 90 07 00 	cmp.b	#7,	r15	;#0x0007
    c748:	31 20       	jnz	$+100    	;abs 0xc7ac
    c74a:	1f 41 08 00 	mov	8(r1),	r15	;0x0008(r1)
    c74e:	b0 12 fa 94 	call	#0x94fa	
    c752:	2f 3c       	jmp	$+96     	;abs 0xc7b2
    c754:	d2 91 d8 01 92 1c 	cmp.b	472(r1),&0x1c92	;0x01d8(r1)
    c75a:	2e 20       	jnz	$+94     	;abs 0xc7b8
    c75c:	f1 40 05 00 3c 00 	mov.b	#5,	60(r1)	;#0x0005, 0x003c(r1)
    c762:	81 4b 38 00 	mov	r11,	56(r1)	;0x0038(r1)
    c766:	91 41 d6 01 3a 00 	mov	470(r1),58(r1)	;0x01d6(r1), 0x003a(r1)
    c76c:	81 43 3e 00 	mov	#0,	62(r1)	;r3 As==00, 0x003e(r1)
    c770:	0e 41       	mov	r1,	r14	
    c772:	3e 50 38 00 	add	#56,	r14	;#0x0038
    c776:	3f 42       	mov	#8,	r15	;r2 As==11
    c778:	b0 12 74 a2 	call	#0xa274	
    c77c:	16 3c       	jmp	$+46     	;abs 0xc7aa
    c77e:	0f 93       	tst	r15		
    c780:	1b 24       	jz	$+56     	;abs 0xc7b8
    c782:	08 4e       	mov	r14,	r8	
    c784:	8e 10       	swpb	r14		
    c786:	8e 11       	sxt	r14		
    c788:	8e 10       	swpb	r14		
    c78a:	8e 11       	sxt	r14		
    c78c:	09 4e       	mov	r14,	r9	
    c78e:	0c 4b       	mov	r11,	r12	
    c790:	0e 4b       	mov	r11,	r14	
    c792:	8e 10       	swpb	r14		
    c794:	8e 11       	sxt	r14		
    c796:	8e 10       	swpb	r14		
    c798:	8e 11       	sxt	r14		
    c79a:	0d 4e       	mov	r14,	r13	
    c79c:	08 8c       	sub	r12,	r8	
    c79e:	09 7d       	subc	r13,	r9	
    c7a0:	0d 4b       	mov	r11,	r13	
    c7a2:	0d 58       	add	r8,	r13	
    c7a4:	0e 4b       	mov	r11,	r14	
    c7a6:	b0 12 2e 94 	call	#0x942e	
    c7aa:	4e 4f       	mov.b	r15,	r14	
    c7ac:	7e 90 07 00 	cmp.b	#7,	r14	;#0x0007
    c7b0:	03 20       	jnz	$+8      	;abs 0xc7b8
    c7b2:	6f 43       	mov.b	#2,	r15	;r3 As==10
    c7b4:	30 40 bc dd 	br	#0xddbc	
    c7b8:	1b 42 0e 12 	mov	&0x120e,r11	
    c7bc:	b0 12 04 6a 	call	#0x6a04	
    c7c0:	1b 92 d2 14 	cmp	&0x14d2,r11	
    c7c4:	02 20       	jnz	$+6      	;abs 0xc7ca
    c7c6:	30 40 b2 de 	br	#0xdeb2	
    c7ca:	b0 12 16 6a 	call	#0x6a16	
    c7ce:	b0 12 04 6a 	call	#0x6a04	
    c7d2:	4b 4f       	mov.b	r15,	r11	
    c7d4:	5d 42 e2 1b 	mov.b	&0x1be2,r13	
    c7d8:	7d 53       	add.b	#-1,	r13	;r3 As==11
    c7da:	c2 4d e2 1b 	mov.b	r13,	&0x1be2	
    c7de:	0c 24       	jz	$+26     	;abs 0xc7f8
    c7e0:	4d 4d       	mov.b	r13,	r13	
    c7e2:	0d 5d       	rla	r13		
    c7e4:	0d 5d       	rla	r13		
    c7e6:	3e 40 12 12 	mov	#4626,	r14	;#0x1212
    c7ea:	3f 40 0e 12 	mov	#4622,	r15	;#0x120e
    c7ee:	b0 12 9a f0 	call	#0xf09a	
    c7f2:	6f 43       	mov.b	#2,	r15	;r3 As==10
    c7f4:	b0 12 14 6b 	call	#0x6b14	
    c7f8:	4f 4b       	mov.b	r11,	r15	
    c7fa:	b0 12 16 6a 	call	#0x6a16	
    c7fe:	30 40 cc de 	br	#0xdecc	
    c802:	b0 12 04 6a 	call	#0x6a04	
    c806:	82 43 b8 1c 	mov	#0,	&0x1cb8	;r3 As==00
    c80a:	82 43 ae 23 	mov	#0,	&0x23ae	;r3 As==00
    c80e:	f5 3f       	jmp	$-20     	;abs 0xc7fa
    c810:	b0 12 04 6a 	call	#0x6a04	
    c814:	48 4f       	mov.b	r15,	r8	
    c816:	5d 42 39 1c 	mov.b	&0x1c39,r13	
    c81a:	4d 93       	tst.b	r13		
    c81c:	25 24       	jz	$+76     	;abs 0xc868
    c81e:	1b 42 12 12 	mov	&0x1212,r11	
    c822:	7d 53       	add.b	#-1,	r13	;r3 As==11
    c824:	c2 4d 39 1c 	mov.b	r13,	&0x1c39	
    c828:	08 24       	jz	$+18     	;abs 0xc83a
    c82a:	4d 4d       	mov.b	r13,	r13	
    c82c:	0d 5d       	rla	r13		
    c82e:	3e 40 14 12 	mov	#4628,	r14	;#0x1214
    c832:	3f 40 12 12 	mov	#4626,	r15	;#0x1212
    c836:	b0 12 9a f0 	call	#0xf09a	
    c83a:	fb 40 03 00 04 00 	mov.b	#3,	4(r11)	;#0x0003, 0x0004(r11)
    c840:	29 4b       	mov	@r11,	r9	
    c842:	1c 4b 02 00 	mov	2(r11),	r12	;0x0002(r11)
    c846:	0e 4c       	mov	r12,	r14	
    c848:	8e 10       	swpb	r14		
    c84a:	8e 11       	sxt	r14		
    c84c:	8e 10       	swpb	r14		
    c84e:	8e 11       	sxt	r14		
    c850:	0d 4e       	mov	r14,	r13	
    c852:	0a 49       	mov	r9,	r10	
    c854:	0e 49       	mov	r9,	r14	
    c856:	8e 10       	swpb	r14		
    c858:	8e 11       	sxt	r14		
    c85a:	8e 10       	swpb	r14		
    c85c:	8e 11       	sxt	r14		
    c85e:	0b 4e       	mov	r14,	r11	
    c860:	0c 8a       	sub	r10,	r12	
    c862:	0d 7b       	subc	r11,	r13	
    c864:	0a 4c       	mov	r12,	r10	
    c866:	10 3c       	jmp	$+34     	;abs 0xc888
    c868:	e2 92 d6 14 	cmp.b	#4,	&0x14d6	;r2 As==10
    c86c:	0b 20       	jnz	$+24     	;abs 0xc884
    c86e:	1b 42 d2 14 	mov	&0x14d2,r11	
    c872:	c2 43 d6 14 	mov.b	#0,	&0x14d6	;r3 As==00
    c876:	82 43 d4 14 	mov	#0,	&0x14d4	;r3 As==00
    c87a:	82 43 d2 14 	mov	#0,	&0x14d2	;r3 As==00
    c87e:	0a 43       	clr	r10		
    c880:	09 43       	clr	r9		
    c882:	03 3c       	jmp	$+8      	;abs 0xc88a
    c884:	0a 43       	clr	r10		
    c886:	09 43       	clr	r9		
    c888:	0b 43       	clr	r11		
    c88a:	4f 48       	mov.b	r8,	r15	
    c88c:	b0 12 16 6a 	call	#0x6a16	
    c890:	09 93       	tst	r9		
    c892:	18 24       	jz	$+50     	;abs 0xc8c4
    c894:	b0 12 04 6a 	call	#0x6a04	
    c898:	5e 42 e2 1b 	mov.b	&0x1be2,r14	
    c89c:	4d 4e       	mov.b	r14,	r13	
    c89e:	0d 5d       	rla	r13		
    c8a0:	0d 5d       	rla	r13		
    c8a2:	3d 50 0e 12 	add	#4622,	r13	;#0x120e
    c8a6:	5e 53       	inc.b	r14		
    c8a8:	c2 4e e2 1b 	mov.b	r14,	&0x1be2	
    c8ac:	8d 49 00 00 	mov	r9,	0(r13)	;0x0000(r13)
    c8b0:	09 5a       	add	r10,	r9	
    c8b2:	8d 49 02 00 	mov	r9,	2(r13)	;0x0002(r13)
    c8b6:	b0 12 16 6a 	call	#0x6a16	
    c8ba:	6f 43       	mov.b	#2,	r15	;r3 As==10
    c8bc:	b0 12 14 6b 	call	#0x6b14	
    c8c0:	5f 43       	mov.b	#1,	r15	;r3 As==01
    c8c2:	01 3c       	jmp	$+4      	;abs 0xc8c6
    c8c4:	4f 43       	clr.b	r15		
    c8c6:	0b 93       	tst	r11		
    c8c8:	05 24       	jz	$+12     	;abs 0xc8d4
    c8ca:	0e 4b       	mov	r11,	r14	
    c8cc:	1f 43       	mov	#1,	r15	;r3 As==01
    c8ce:	b0 12 82 75 	call	#0x7582	
    c8d2:	04 3c       	jmp	$+10     	;abs 0xc8dc
    c8d4:	4f 93       	tst.b	r15		
    c8d6:	02 20       	jnz	$+6      	;abs 0xc8dc
    c8d8:	30 40 cc de 	br	#0xdecc	
    c8dc:	6f 42       	mov.b	#4,	r15	;r2 As==10
    c8de:	30 40 bc dd 	br	#0xddbc	
    c8e2:	1b 42 d6 12 	mov	&0x12d6,r11	
    c8e6:	b0 12 04 6a 	call	#0x6a04	
    c8ea:	5a 42 a8 1c 	mov.b	&0x1ca8,r10	
    c8ee:	16 42 6c 11 	mov	&0x116c,r6	
    c8f2:	17 42 6e 11 	mov	&0x116e,r7	
    c8f6:	b0 12 16 6a 	call	#0x6a16	
    c8fa:	54 42 b3 12 	mov.b	&0x12b3,r4	
    c8fe:	4a 93       	tst.b	r10		
    c900:	03 20       	jnz	$+8      	;abs 0xc908
    c902:	15 43       	mov	#1,	r5	;r3 As==01
    c904:	64 93       	cmp.b	#2,	r4	;r3 As==10
    c906:	01 24       	jz	$+4      	;abs 0xc90a
    c908:	05 43       	clr	r5		
    c90a:	45 45       	mov.b	r5,	r5	
    c90c:	45 93       	tst.b	r5		
    c90e:	02 24       	jz	$+6      	;abs 0xc914
    c910:	30 40 de ca 	br	#0xcade	
    c914:	4a 93       	tst.b	r10		
    c916:	02 24       	jz	$+6      	;abs 0xc91c
    c918:	30 40 de ca 	br	#0xcade	
    c91c:	1c 42 cc 14 	mov	&0x14cc,r12	
    c920:	01 3c       	jmp	$+4      	;abs 0xc924
    c922:	1b 53       	inc	r11		
    c924:	0b 9c       	cmp	r12,	r11	
    c926:	1d 2c       	jc	$+60     	;abs 0xc962
    c928:	6d 4b       	mov.b	@r11,	r13	
    c92a:	4f 4d       	mov.b	r13,	r15	
    c92c:	7f 50 83 ff 	add.b	#-125,	r15	;#0xff83
    c930:	6f 93       	cmp.b	#2,	r15	;r3 As==10
    c932:	12 28       	jnc	$+38     	;abs 0xc958
    c934:	7d 90 20 00 	cmp.b	#32,	r13	;#0x0020
    c938:	11 2c       	jc	$+36     	;abs 0xc95c
    c93a:	0e 46       	mov	r6,	r14	
    c93c:	0f 47       	mov	r7,	r15	
    c93e:	7d f0 1f 00 	and.b	#31,	r13	;#0x001f
    c942:	4d 93       	tst.b	r13		
    c944:	05 24       	jz	$+12     	;abs 0xc950
    c946:	12 c3       	clrc			
    c948:	0f 10       	rrc	r15		
    c94a:	0e 10       	rrc	r14		
    c94c:	7d 53       	add.b	#-1,	r13	;r3 As==11
    c94e:	f9 3f       	jmp	$-12     	;abs 0xc942
    c950:	1e f3       	and	#1,	r14	;r3 As==01
    c952:	1f 43       	mov	#1,	r15	;r3 As==01
    c954:	04 20       	jnz	$+10     	;abs 0xc95e
    c956:	02 3c       	jmp	$+6      	;abs 0xc95c
    c958:	1f 43       	mov	#1,	r15	;r3 As==01
    c95a:	01 3c       	jmp	$+4      	;abs 0xc95e
    c95c:	0f 43       	clr	r15		
    c95e:	4f 93       	tst.b	r15		
    c960:	e0 27       	jz	$-62     	;abs 0xc922
    c962:	19 42 d6 12 	mov	&0x12d6,r9	
    c966:	0b 99       	cmp	r9,	r11	
    c968:	29 20       	jnz	$+84     	;abs 0xc9bc
    c96a:	0b 9c       	cmp	r12,	r11	
    c96c:	39 2c       	jc	$+116    	;abs 0xc9e0
    c96e:	6e 4b       	mov.b	@r11,	r14	
    c970:	1f 42 3a 1b 	mov	&0x1b3a,r15	
    c974:	b0 12 b4 4c 	call	#0x4cb4	
    c978:	82 4f 3a 1b 	mov	r15,	&0x1b3a	
    c97c:	3e 40 9a 15 	mov	#5530,	r14	;#0x159a
    c980:	f2 40 7d 00 9a 15 	mov.b	#125,	&0x159a	;#0x007d
    c986:	6f 4b       	mov.b	@r11,	r15	
    c988:	7f e0 20 00 	xor.b	#32,	r15	;#0x0020
    c98c:	c2 4f 9b 15 	mov.b	r15,	&0x159b	
    c990:	0c 4e       	mov	r14,	r12	
    c992:	2c 53       	incd	r12		
    c994:	0f 4c       	mov	r12,	r15	
    c996:	8f 10       	swpb	r15		
    c998:	8f 11       	sxt	r15		
    c99a:	8f 10       	swpb	r15		
    c99c:	8f 11       	sxt	r15		
    c99e:	0d 4f       	mov	r15,	r13	
    c9a0:	08 4e       	mov	r14,	r8	
    c9a2:	0f 4e       	mov	r14,	r15	
    c9a4:	8f 10       	swpb	r15		
    c9a6:	8f 11       	sxt	r15		
    c9a8:	8f 10       	swpb	r15		
    c9aa:	8f 11       	sxt	r15		
    c9ac:	09 4f       	mov	r15,	r9	
    c9ae:	0c 88       	sub	r8,	r12	
    c9b0:	0d 79       	subc	r9,	r13	
    c9b2:	1b 53       	inc	r11		
    c9b4:	82 4b d6 12 	mov	r11,	&0x12d6	
    c9b8:	30 40 c4 de 	br	#0xdec4	
    c9bc:	09 9c       	cmp	r12,	r9	
    c9be:	0b 28       	jnc	$+24     	;abs 0xc9d6
    c9c0:	0f 3c       	jmp	$+32     	;abs 0xc9e0
    c9c2:	6e 4f       	mov.b	@r15,	r14	
    c9c4:	1f 53       	inc	r15		
    c9c6:	82 4f d6 12 	mov	r15,	&0x12d6	
    c9ca:	1f 42 3a 1b 	mov	&0x1b3a,r15	
    c9ce:	b0 12 b4 4c 	call	#0x4cb4	
    c9d2:	82 4f 3a 1b 	mov	r15,	&0x1b3a	
    c9d6:	1f 42 d6 12 	mov	&0x12d6,r15	
    c9da:	0f 9b       	cmp	r11,	r15	
    c9dc:	f2 2b       	jnc	$-26     	;abs 0xc9c2
    c9de:	57 3c       	jmp	$+176    	;abs 0xca8e
    c9e0:	b2 e3 3a 1b 	xor	#-1,	&0x1b3a	;r3 As==11
    c9e4:	0b 43       	clr	r11		
    c9e6:	3d 40 9a 15 	mov	#5530,	r13	;#0x159a
    c9ea:	1f 42 3a 1b 	mov	&0x1b3a,r15	
    c9ee:	4e 4b       	mov.b	r11,	r14	
    c9f0:	7e f0 0f 00 	and.b	#15,	r14	;#0x000f
    c9f4:	4e 93       	tst.b	r14		
    c9f6:	04 24       	jz	$+10     	;abs 0xca00
    c9f8:	12 c3       	clrc			
    c9fa:	0f 10       	rrc	r15		
    c9fc:	7e 53       	add.b	#-1,	r14	;r3 As==11
    c9fe:	fa 3f       	jmp	$-10     	;abs 0xc9f4
    ca00:	4c 4f       	mov.b	r15,	r12	
    ca02:	4f 4c       	mov.b	r12,	r15	
    ca04:	7f 50 83 ff 	add.b	#-125,	r15	;#0xff83
    ca08:	6f 93       	cmp.b	#2,	r15	;r3 As==10
    ca0a:	13 28       	jnc	$+40     	;abs 0xca32
    ca0c:	7c 90 20 00 	cmp.b	#32,	r12	;#0x0020
    ca10:	12 2c       	jc	$+38     	;abs 0xca36
    ca12:	0e 46       	mov	r6,	r14	
    ca14:	0f 47       	mov	r7,	r15	
    ca16:	4a 4c       	mov.b	r12,	r10	
    ca18:	7a f0 1f 00 	and.b	#31,	r10	;#0x001f
    ca1c:	4a 93       	tst.b	r10		
    ca1e:	05 24       	jz	$+12     	;abs 0xca2a
    ca20:	12 c3       	clrc			
    ca22:	0f 10       	rrc	r15		
    ca24:	0e 10       	rrc	r14		
    ca26:	7a 53       	add.b	#-1,	r10	;r3 As==11
    ca28:	f9 3f       	jmp	$-12     	;abs 0xca1c
    ca2a:	1e f3       	and	#1,	r14	;r3 As==01
    ca2c:	1f 43       	mov	#1,	r15	;r3 As==01
    ca2e:	04 20       	jnz	$+10     	;abs 0xca38
    ca30:	02 3c       	jmp	$+6      	;abs 0xca36
    ca32:	1f 43       	mov	#1,	r15	;r3 As==01
    ca34:	01 3c       	jmp	$+4      	;abs 0xca38
    ca36:	0f 43       	clr	r15		
    ca38:	4f 93       	tst.b	r15		
    ca3a:	09 24       	jz	$+20     	;abs 0xca4e
    ca3c:	fd 40 7d 00 00 00 	mov.b	#125,	0(r13)	;#0x007d, 0x0000(r13)
    ca42:	7c e0 20 00 	xor.b	#32,	r12	;#0x0020
    ca46:	cd 4c 01 00 	mov.b	r12,	1(r13)	;0x0001(r13)
    ca4a:	2d 53       	incd	r13		
    ca4c:	03 3c       	jmp	$+8      	;abs 0xca54
    ca4e:	cd 4c 00 00 	mov.b	r12,	0(r13)	;0x0000(r13)
    ca52:	1d 53       	inc	r13		
    ca54:	3b 52       	add	#8,	r11	;r2 As==11
    ca56:	3b 90 10 00 	cmp	#16,	r11	;#0x0010
    ca5a:	c7 23       	jnz	$-112    	;abs 0xc9ea
    ca5c:	fd 40 7e 00 00 00 	mov.b	#126,	0(r13)	;#0x007e, 0x0000(r13)
    ca62:	0f 4d       	mov	r13,	r15	
    ca64:	1f 53       	inc	r15		
    ca66:	0a 4f       	mov	r15,	r10	
    ca68:	8f 10       	swpb	r15		
    ca6a:	8f 11       	sxt	r15		
    ca6c:	8f 10       	swpb	r15		
    ca6e:	8f 11       	sxt	r15		
    ca70:	0b 4f       	mov	r15,	r11	
    ca72:	3c 40 9a 15 	mov	#5530,	r12	;#0x159a
    ca76:	0f 4c       	mov	r12,	r15	
    ca78:	8f 10       	swpb	r15		
    ca7a:	8f 11       	sxt	r15		
    ca7c:	8f 10       	swpb	r15		
    ca7e:	8f 11       	sxt	r15		
    ca80:	0d 4f       	mov	r15,	r13	
    ca82:	0a 8c       	sub	r12,	r10	
    ca84:	0b 7d       	subc	r13,	r11	
    ca86:	0c 4a       	mov	r10,	r12	
    ca88:	64 43       	mov.b	#2,	r4	;r3 As==10
    ca8a:	30 40 c4 de 	br	#0xdec4	
    ca8e:	09 93       	tst	r9		
    ca90:	24 24       	jz	$+74     	;abs 0xcada
    ca92:	0c 4b       	mov	r11,	r12	
    ca94:	0f 4b       	mov	r11,	r15	
    ca96:	8f 10       	swpb	r15		
    ca98:	8f 11       	sxt	r15		
    ca9a:	8f 10       	swpb	r15		
    ca9c:	8f 11       	sxt	r15		
    ca9e:	0d 4f       	mov	r15,	r13	
    caa0:	0a 49       	mov	r9,	r10	
    caa2:	0f 49       	mov	r9,	r15	
    caa4:	8f 10       	swpb	r15		
    caa6:	8f 11       	sxt	r15		
    caa8:	8f 10       	swpb	r15		
    caaa:	8f 11       	sxt	r15		
    caac:	0b 4f       	mov	r15,	r11	
    caae:	0c 8a       	sub	r10,	r12	
    cab0:	0d 7b       	subc	r11,	r13	
    cab2:	0c 93       	tst	r12		
    cab4:	02 20       	jnz	$+6      	;abs 0xcaba
    cab6:	30 40 76 de 	br	#0xde76	
    caba:	82 93 1e 12 	tst	&0x121e	
    cabe:	02 24       	jz	$+6      	;abs 0xcac4
    cac0:	30 40 7c de 	br	#0xde7c	
    cac4:	82 49 1e 12 	mov	r9,	&0x121e	
    cac8:	82 4c d8 12 	mov	r12,	&0x12d8	
    cacc:	82 43 52 2a 	mov	#0,	&0x2a52	;r3 As==00
    cad0:	6f 49       	mov.b	@r9,	r15	
    cad2:	92 43 52 2a 	mov	#1,	&0x2a52	;r3 As==01
    cad6:	c2 4f 7f 00 	mov.b	r15,	&0x007f	
    cada:	4a 43       	clr.b	r10		
    cadc:	02 3c       	jmp	$+6      	;abs 0xcae2
    cade:	55 43       	mov.b	#1,	r5	;r3 As==01
    cae0:	44 43       	clr.b	r4		
    cae2:	c2 44 b3 12 	mov.b	r4,	&0x12b3	
    cae6:	45 93       	tst.b	r5		
    cae8:	02 20       	jnz	$+6      	;abs 0xcaee
    caea:	30 40 cc de 	br	#0xdecc	
    caee:	1f 42 34 1c 	mov	&0x1c34,r15	
    caf2:	0f 93       	tst	r15		
    caf4:	02 20       	jnz	$+6      	;abs 0xcafa
    caf6:	30 40 cc de 	br	#0xdecc	
    cafa:	5d 43       	mov.b	#1,	r13	;r3 As==01
    cafc:	4e 4a       	mov.b	r10,	r14	
    cafe:	b0 12 6c 93 	call	#0x936c	
    cb02:	82 43 34 1c 	mov	#0,	&0x1c34	;r3 As==00
    cb06:	5f 43       	mov.b	#1,	r15	;r3 As==01
    cb08:	30 40 bc dd 	br	#0xddbc	
    cb0c:	b0 12 32 9d 	call	#0x9d32	
    cb10:	30 40 cc de 	br	#0xdecc	
    cb14:	5f 43       	mov.b	#1,	r15	;r3 As==01
    cb16:	92 93 72 12 	cmp	#1,	&0x1272	;r3 As==01
    cb1a:	01 34       	jge	$+4      	;abs 0xcb1e
    cb1c:	4f 43       	clr.b	r15		
    cb1e:	c1 4f 04 00 	mov.b	r15,	4(r1)	;0x0004(r1)
    cb22:	0e 41       	mov	r1,	r14	
    cb24:	2e 52       	add	#4,	r14	;r2 As==10
    cb26:	2f 42       	mov	#4,	r15	;r2 As==10
    cb28:	b0 12 9e 50 	call	#0x509e	
    cb2c:	4f 93       	tst.b	r15		
    cb2e:	04 20       	jnz	$+10     	;abs 0xcb38
    cb30:	7f 40 06 00 	mov.b	#6,	r15	;#0x0006
    cb34:	30 40 bc dd 	br	#0xddbc	
    cb38:	1d 43       	mov	#1,	r13	;r3 As==01
    cb3a:	0e 43       	clr	r14		
    cb3c:	4f 43       	clr.b	r15		
    cb3e:	18 3c       	jmp	$+50     	;abs 0xcb70
    cb40:	b0 12 da 95 	call	#0x95da	
    cb44:	30 40 cc de 	br	#0xdecc	
    cb48:	5f 43       	mov.b	#1,	r15	;r3 As==01
    cb4a:	92 93 62 12 	cmp	#1,	&0x1262	;r3 As==01
    cb4e:	01 34       	jge	$+4      	;abs 0xcb52
    cb50:	4f 43       	clr.b	r15		
    cb52:	c1 4f 04 00 	mov.b	r15,	4(r1)	;0x0004(r1)
    cb56:	0e 41       	mov	r1,	r14	
    cb58:	2e 52       	add	#4,	r14	;r2 As==10
    cb5a:	2f 42       	mov	#4,	r15	;r2 As==10
    cb5c:	b0 12 f4 4c 	call	#0x4cf4	
    cb60:	4f 93       	tst.b	r15		
    cb62:	03 20       	jnz	$+8      	;abs 0xcb6a
    cb64:	7f 42       	mov.b	#8,	r15	;r2 As==11
    cb66:	30 40 bc dd 	br	#0xddbc	
    cb6a:	1d 43       	mov	#1,	r13	;r3 As==01
    cb6c:	0e 43       	clr	r14		
    cb6e:	5f 43       	mov.b	#1,	r15	;r3 As==01
    cb70:	b0 12 ec 92 	call	#0x92ec	
    cb74:	30 40 cc de 	br	#0xdecc	
    cb78:	6f 4e       	mov.b	@r14,	r15	
    cb7a:	1e 53       	inc	r14		
    cb7c:	82 4e 8c 24 	mov	r14,	&0x248c	
    cb80:	b0 12 0a 78 	call	#0x780a	
    cb84:	1f 42 3a 1c 	mov	&0x1c3a,r15	
    cb88:	0e 4f       	mov	r15,	r14	
    cb8a:	3e 50 40 00 	add	#64,	r14	;#0x0040
    cb8e:	82 9e 8c 24 	cmp	r14,	&0x248c	
    cb92:	02 20       	jnz	$+6      	;abs 0xcb98
    cb94:	82 4f 8c 24 	mov	r15,	&0x248c	
    cb98:	1e 42 8c 24 	mov	&0x248c,r14	
    cb9c:	1e 92 62 24 	cmp	&0x2462,r14	
    cba0:	eb 23       	jnz	$-40     	;abs 0xcb78
    cba2:	30 40 cc de 	br	#0xdecc	
    cba6:	b0 12 04 6a 	call	#0x6a04	
    cbaa:	d2 42 cc 1c 40 11 	mov.b	&0x1ccc,&0x1140	
    cbb0:	f2 40 03 00 ec 11 	mov.b	#3,	&0x11ec	;#0x0003
    cbb6:	b0 12 16 6a 	call	#0x6a16	
    cbba:	c2 93 40 11 	tst.b	&0x1140	
    cbbe:	73 20       	jnz	$+232    	;abs 0xcca6
    cbc0:	1f 42 44 11 	mov	&0x1144,r15	
    cbc4:	12 c3       	clrc			
    cbc6:	0f 10       	rrc	r15		
    cbc8:	12 c3       	clrc			
    cbca:	0f 10       	rrc	r15		
    cbcc:	c2 4f e4 17 	mov.b	r15,	&0x17e4	
    cbd0:	b0 12 04 6a 	call	#0x6a04	
    cbd4:	4b 4f       	mov.b	r15,	r11	
    cbd6:	d2 43 78 00 	mov.b	#1,	&0x0078	;r3 As==01
    cbda:	b0 12 7e 4c 	call	#0x4c7e	
    cbde:	5e 42 47 11 	mov.b	&0x1147,r14	
    cbe2:	7e f0 fa ff 	and.b	#-6,	r14	;#0xfffa
    cbe6:	5e d3       	bis.b	#1,	r14	;r3 As==01
    cbe8:	c2 4e 78 00 	mov.b	r14,	&0x0078	
    cbec:	d2 42 48 11 79 00 	mov.b	&0x1148,&0x0079	
    cbf2:	d2 42 49 11 7a 00 	mov.b	&0x1149,&0x007a	
    cbf8:	1e 42 44 11 	mov	&0x1144,r14	
    cbfc:	c2 4e 7c 00 	mov.b	r14,	&0x007c	
    cc00:	8e 10       	swpb	r14		
    cc02:	4e 4e       	mov.b	r14,	r14	
    cc04:	c2 4e 7d 00 	mov.b	r14,	&0x007d	
    cc08:	d2 42 46 11 7b 00 	mov.b	&0x1146,&0x007b	
    cc0e:	5e 42 4a 11 	mov.b	&0x114a,r14	
    cc12:	7e f0 03 00 	and.b	#3,	r14	;#0x0003
    cc16:	7e 90 03 00 	cmp.b	#3,	r14	;#0x0003
    cc1a:	0b 20       	jnz	$+24     	;abs 0xcc32
    cc1c:	f2 d0 40 00 1b 00 	bis.b	#64,	&0x001b	;#0x0040
    cc22:	f2 d0 80 ff 1b 00 	bis.b	#-128,	&0x001b	;#0xff80
    cc28:	5e 42 05 00 	mov.b	&0x0005,r14	
    cc2c:	7e d0 30 00 	bis.b	#48,	r14	;#0x0030
    cc30:	0f 3c       	jmp	$+32     	;abs 0xcc50
    cc32:	6e 93       	cmp.b	#2,	r14	;r3 As==10
    cc34:	10 20       	jnz	$+34     	;abs 0xcc56
    cc36:	f2 f0 df ff 05 00 	and.b	#-33,	&0x0005	;#0xffdf
    cc3c:	f2 f0 bf ff 1b 00 	and.b	#-65,	&0x001b	;#0xffbf
    cc42:	f2 d0 80 ff 1b 00 	bis.b	#-128,	&0x001b	;#0xff80
    cc48:	5e 42 05 00 	mov.b	&0x0005,r14	
    cc4c:	7e d0 10 00 	bis.b	#16,	r14	;#0x0010
    cc50:	c2 4e 05 00 	mov.b	r14,	&0x0005	
    cc54:	12 3c       	jmp	$+38     	;abs 0xcc7a
    cc56:	5e 93       	cmp.b	#1,	r14	;r3 As==01
    cc58:	0e 20       	jnz	$+30     	;abs 0xcc76
    cc5a:	f2 f0 ef ff 05 00 	and.b	#-17,	&0x0005	;#0xffef
    cc60:	f2 f0 7f 00 1b 00 	and.b	#127,	&0x001b	;#0x007f
    cc66:	f2 d0 40 00 1b 00 	bis.b	#64,	&0x001b	;#0x0040
    cc6c:	5e 42 05 00 	mov.b	&0x0005,r14	
    cc70:	7e d0 20 00 	bis.b	#32,	r14	;#0x0020
    cc74:	ed 3f       	jmp	$-36     	;abs 0xcc50
    cc76:	b0 12 9c 4c 	call	#0x4c9c	
    cc7a:	f2 f0 fe ff 78 00 	and.b	#-2,	&0x0078	;#0xfffe
    cc80:	f2 f0 cf ff 03 00 	and.b	#-49,	&0x0003	;#0xffcf
    cc86:	f2 f0 cf ff 01 00 	and.b	#-49,	&0x0001	;#0xffcf
    cc8c:	4f 4b       	mov.b	r11,	r15	
    cc8e:	b0 12 16 6a 	call	#0x6a16	
    cc92:	b0 12 04 6a 	call	#0x6a04	
    cc96:	f2 f0 cf ff 03 00 	and.b	#-49,	&0x0003	;#0xffcf
    cc9c:	f2 d0 30 00 01 00 	bis.b	#48,	&0x0001	;#0x0030
    cca2:	b0 12 16 6a 	call	#0x6a16	
    cca6:	c2 93 40 11 	tst.b	&0x1140	
    ccaa:	02 24       	jz	$+6      	;abs 0xccb0
    ccac:	30 40 cc de 	br	#0xdecc	
    ccb0:	b0 12 04 6a 	call	#0x6a04	
    ccb4:	4a 4f       	mov.b	r15,	r10	
    ccb6:	82 93 3a 1c 	tst	&0x1c3a	
    ccba:	02 24       	jz	$+6      	;abs 0xccc0
    ccbc:	30 40 fa c7 	br	#0xc7fa	
    ccc0:	b2 40 e4 14 3a 1c 	mov	#5348,	&0x1c3a	;#0x14e4
    ccc6:	f2 f0 ef ff 03 00 	and.b	#-17,	&0x0003	;#0xffef
    cccc:	f2 f0 ef ff 01 00 	and.b	#-17,	&0x0001	;#0xffef
    ccd2:	f2 40 c4 ff 66 12 	mov.b	#-60,	&0x1266	;#0xffc4
    ccd8:	5e 42 67 12 	mov.b	&0x1267,r14	
    ccdc:	7e f0 80 ff 	and.b	#-128,	r14	;#0xff80
    cce0:	7e d0 0c 00 	bis.b	#12,	r14	;#0x000c
    cce4:	7e d0 40 00 	bis.b	#64,	r14	;#0x0040
    cce8:	c2 4e 67 12 	mov.b	r14,	&0x1267	
    ccec:	5f 42 a2 23 	mov.b	&0x23a2,r15	
    ccf0:	7f f0 f0 ff 	and.b	#-16,	r15	;#0xfff0
    ccf4:	7f d0 09 00 	bis.b	#9,	r15	;#0x0009
    ccf8:	c2 4f a2 23 	mov.b	r15,	&0x23a2	
    ccfc:	1f 42 66 12 	mov	&0x1266,r15	
    cd00:	1e 42 a2 23 	mov	&0x23a2,r14	
    cd04:	b2 40 7e 00 f2 01 	mov	#126,	&0x01f2	;#0x007e
    cd0a:	b2 40 e4 14 f4 01 	mov	#5348,	&0x01f4	;#0x14e4
    cd10:	b2 40 40 00 f6 01 	mov	#64,	&0x01f6	;#0x0040
    cd16:	b2 b0 10 00 f0 01 	bit	#16,	&0x01f0	;#0x0010
    cd1c:	0b 20       	jnz	$+24     	;abs 0xcd34
    cd1e:	1d 42 22 01 	mov	&0x0122,r13	
    cd22:	4e 4e       	mov.b	r14,	r14	
    cd24:	8e 10       	swpb	r14		
    cd26:	3e f0 00 0f 	and	#3840,	r14	;#0x0f00
    cd2a:	3d f0 ff f0 	and	#-3841,	r13	;#0xf0ff
    cd2e:	0e dd       	bis	r13,	r14	
    cd30:	82 4e 22 01 	mov	r14,	&0x0122	
    cd34:	82 4f f0 01 	mov	r15,	&0x01f0	
    cd38:	b2 d0 10 00 f0 01 	bis	#16,	&0x01f0	;#0x0010
    cd3e:	b2 40 e4 14 8c 24 	mov	#5348,	&0x248c	;#0x14e4
    cd44:	b2 40 e4 14 62 24 	mov	#5348,	&0x2462	;#0x14e4
    cd4a:	5b 42 e4 17 	mov.b	&0x17e4,r11	
    cd4e:	b0 12 9a 4a 	call	#0x4a9a	
    cd52:	0e 4b       	mov	r11,	r14	
    cd54:	0e 5e       	rla	r14		
    cd56:	0e 5e       	rla	r14		
    cd58:	0e 5e       	rla	r14		
    cd5a:	b0 12 ac 4a 	call	#0x4aac	
    cd5e:	4f 4a       	mov.b	r10,	r15	
    cd60:	30 40 fa c7 	br	#0xc7fa	
    cd64:	f1 40 85 ff 40 00 	mov.b	#-123,	64(r1)	;#0xff85, 0x0040(r1)
    cd6a:	c1 43 41 00 	mov.b	#0,	65(r1)	;r3 As==00, 0x0041(r1)
    cd6e:	c1 43 43 00 	mov.b	#0,	67(r1)	;r3 As==00, 0x0043(r1)
    cd72:	c1 43 42 00 	mov.b	#0,	66(r1)	;r3 As==00, 0x0042(r1)
    cd76:	c1 43 47 00 	mov.b	#0,	71(r1)	;r3 As==00, 0x0047(r1)
    cd7a:	c1 43 46 00 	mov.b	#0,	70(r1)	;r3 As==00, 0x0046(r1)
    cd7e:	c1 43 45 00 	mov.b	#0,	69(r1)	;r3 As==00, 0x0045(r1)
    cd82:	c1 43 44 00 	mov.b	#0,	68(r1)	;r3 As==00, 0x0044(r1)
    cd86:	0b 41       	mov	r1,	r11	
    cd88:	3b 50 22 01 	add	#290,	r11	;#0x0122
    cd8c:	3d 42       	mov	#8,	r13	;r2 As==11
    cd8e:	0e 41       	mov	r1,	r14	
    cd90:	3e 50 40 00 	add	#64,	r14	;#0x0040
    cd94:	0f 4b       	mov	r11,	r15	
    cd96:	b0 12 96 ed 	call	#0xed96	
    cd9a:	0f 41       	mov	r1,	r15	
    cd9c:	3f 50 2a 01 	add	#298,	r15	;#0x012a
    cda0:	b0 12 78 88 	call	#0x8878	
    cda4:	4e 4f       	mov.b	r15,	r14	
    cda6:	3e 52       	add	#8,	r14	;r2 As==11
    cda8:	81 4b 22 00 	mov	r11,	34(r1)	;0x0022(r1)
    cdac:	81 4e 24 00 	mov	r14,	36(r1)	;0x0024(r1)
    cdb0:	81 43 26 00 	mov	#0,	38(r1)	;r3 As==00, 0x0026(r1)
    cdb4:	f1 40 3a 00 00 01 	mov.b	#58,	256(r1)	;#0x003a, 0x0100(r1)
    cdba:	0f 4e       	mov	r14,	r15	
    cdbc:	8f 10       	swpb	r15		
    cdbe:	4f 4f       	mov.b	r15,	r15	
    cdc0:	4e 4e       	mov.b	r14,	r14	
    cdc2:	8e 10       	swpb	r14		
    cdc4:	0e df       	bis	r15,	r14	
    cdc6:	81 4e fe 00 	mov	r14,	254(r1)	;0x00fe(r1)
    cdca:	0a 41       	mov	r1,	r10	
    cdcc:	3a 50 22 00 	add	#34,	r10	;#0x0022
    cdd0:	81 4a f8 00 	mov	r10,	248(r1)	;0x00f8(r1)
    cdd4:	3d 40 10 00 	mov	#16,	r13	;#0x0010
    cdd8:	3e 40 ce 1c 	mov	#7374,	r14	;#0x1cce
    cddc:	0f 41       	mov	r1,	r15	
    cdde:	3f 50 12 01 	add	#274,	r15	;#0x0112
    cde2:	b0 12 a0 ef 	call	#0xefa0	
    cde6:	0f 41       	mov	r1,	r15	
    cde8:	3f 50 02 01 	add	#258,	r15	;#0x0102
    cdec:	b0 12 8c 7c 	call	#0x7c8c	
    cdf0:	0f 41       	mov	r1,	r15	
    cdf2:	3f 50 f6 00 	add	#246,	r15	;#0x00f6
    cdf6:	30 40 ee da 	br	#0xdaee	
    cdfa:	b0 12 04 6a 	call	#0x6a04	
    cdfe:	4b 4f       	mov.b	r15,	r11	
    ce00:	c2 93 32 2a 	tst.b	&0x2a32	
    ce04:	02 24       	jz	$+6      	;abs 0xce0a
    ce06:	30 40 fa c7 	br	#0xc7fa	
    ce0a:	d2 43 32 2a 	mov.b	#1,	&0x2a32	;r3 As==01
    ce0e:	a2 92 cc 11 	cmp	#4,	&0x11cc	;r2 As==10
    ce12:	05 20       	jnz	$+12     	;abs 0xce1e
    ce14:	5f 43       	mov.b	#1,	r15	;r3 As==01
    ce16:	b0 12 d2 b8 	call	#0xb8d2	
    ce1a:	30 40 f8 c7 	br	#0xc7f8	
    ce1e:	7f 40 0f 00 	mov.b	#15,	r15	;#0x000f
    ce22:	30 40 f4 c7 	br	#0xc7f4	
    ce26:	b0 12 04 6a 	call	#0x6a04	
    ce2a:	c2 43 32 2a 	mov.b	#0,	&0x2a32	;r3 As==00
    ce2e:	30 40 fa c7 	br	#0xc7fa	
    ce32:	b0 12 04 6a 	call	#0x6a04	
    ce36:	5b 42 3d 11 	mov.b	&0x113d,r11	
    ce3a:	b0 12 16 6a 	call	#0x6a16	
    ce3e:	7b 90 05 00 	cmp.b	#5,	r11	;#0x0005
    ce42:	02 28       	jnc	$+6      	;abs 0xce48
    ce44:	30 40 cc de 	br	#0xdecc	
    ce48:	4f 4b       	mov.b	r11,	r15	
    ce4a:	0f 5f       	rla	r15		
    ce4c:	10 4f d4 f2 	br	-3372(r15)	;0xf2d4(r15)
    ce50:	b0 12 04 6b 	call	#0x6b04	
    ce54:	b0 12 04 6a 	call	#0x6a04	
    ce58:	4b 4f       	mov.b	r15,	r11	
    ce5a:	a2 93 cc 11 	cmp	#2,	&0x11cc	;r3 As==10
    ce5e:	02 24       	jz	$+6      	;abs 0xce64
    ce60:	30 40 fa c7 	br	#0xc7fa	
    ce64:	b2 40 03 00 cc 11 	mov	#3,	&0x11cc	;#0x0003
    ce6a:	3e 40 18 00 	mov	#24,	r14	;#0x0018
    ce6e:	7f 40 1d 00 	mov.b	#29,	r15	;#0x001d
    ce72:	b0 12 b8 72 	call	#0x72b8	
    ce76:	f2 f0 ef ff 25 00 	and.b	#-17,	&0x0025	;#0xffef
    ce7c:	f2 f0 ef ff 23 00 	and.b	#-17,	&0x0023	;#0xffef
    ce82:	f2 f0 ef ff 24 00 	and.b	#-17,	&0x0024	;#0xffef
    ce88:	f2 d0 10 00 25 00 	bis.b	#16,	&0x0025	;#0x0010
    ce8e:	5f 43       	mov.b	#1,	r15	;r3 As==01
    ce90:	b0 12 b4 6a 	call	#0x6ab4	
    ce94:	3e 40 7f 02 	mov	#639,	r14	;#0x027f
    ce98:	7f 40 1c 00 	mov.b	#28,	r15	;#0x001c
    ce9c:	b0 12 b8 72 	call	#0x72b8	
    cea0:	b0 12 c0 b3 	call	#0xb3c0	
    cea4:	b0 12 ec b3 	call	#0xb3ec	
    cea8:	3e 40 56 2a 	mov	#10838,	r14	;#0x2a56
    ceac:	7f 40 17 00 	mov.b	#23,	r15	;#0x0017
    ceb0:	b0 12 b8 72 	call	#0x72b8	
    ceb4:	3e 40 ff 80 	mov	#-32513,r14	;#0x80ff
    ceb8:	7f 40 15 00 	mov.b	#21,	r15	;#0x0015
    cebc:	b0 12 b8 72 	call	#0x72b8	
    cec0:	30 40 f8 c7 	br	#0xc7f8	
    cec4:	b0 12 04 6b 	call	#0x6b04	
    cec8:	7f 40 06 00 	mov.b	#6,	r15	;#0x0006
    cecc:	b0 12 b4 6a 	call	#0x6ab4	
    ced0:	b0 12 c0 b3 	call	#0xb3c0	
    ced4:	b0 12 ec b3 	call	#0xb3ec	
    ced8:	b0 12 74 73 	call	#0x7374	
    cedc:	b0 12 42 6f 	call	#0x6f42	
    cee0:	b0 12 04 6b 	call	#0x6b04	
    cee4:	7f 40 03 00 	mov.b	#3,	r15	;#0x0003
    cee8:	b0 12 b4 6a 	call	#0x6ab4	
    ceec:	b0 12 42 6f 	call	#0x6f42	
    cef0:	5f 43       	mov.b	#1,	r15	;r3 As==01
    cef2:	b0 12 50 6f 	call	#0x6f50	
    cef6:	7f 40 0f 00 	mov.b	#15,	r15	;#0x000f
    cefa:	30 40 bc dd 	br	#0xddbc	
    cefe:	b0 12 04 6b 	call	#0x6b04	
    cf02:	b0 12 04 6a 	call	#0x6a04	
    cf06:	4b 4f       	mov.b	r15,	r11	
    cf08:	b0 12 9a 6a 	call	#0x6a9a	
    cf0c:	4f 93       	tst.b	r15		
    cf0e:	04 24       	jz	$+10     	;abs 0xcf18
    cf10:	4f 4b       	mov.b	r11,	r15	
    cf12:	b0 12 16 6a 	call	#0x6a16	
    cf16:	0d 3c       	jmp	$+28     	;abs 0xcf32
    cf18:	4f 4b       	mov.b	r11,	r15	
    cf1a:	b0 12 16 6a 	call	#0x6a16	
    cf1e:	7f 40 53 00 	mov.b	#83,	r15	;#0x0053
    cf22:	b0 12 88 49 	call	#0x4988	
    cf26:	4f 43       	clr.b	r15		
    cf28:	b0 12 88 49 	call	#0x4988	
    cf2c:	4f 43       	clr.b	r15		
    cf2e:	b0 12 88 49 	call	#0x4988	
    cf32:	b0 12 42 6f 	call	#0x6f42	
    cf36:	6f 43       	mov.b	#2,	r15	;r3 As==10
    cf38:	b0 12 50 6f 	call	#0x6f50	
    cf3c:	30 40 cc de 	br	#0xdecc	
    cf40:	b0 12 04 6a 	call	#0x6a04	
    cf44:	5b 42 c2 11 	mov.b	&0x11c2,r11	
    cf48:	b0 12 16 6a 	call	#0x6a16	
    cf4c:	6b 92       	cmp.b	#4,	r11	;r2 As==10
    cf4e:	08 24       	jz	$+18     	;abs 0xcf60
    cf50:	7b 92       	cmp.b	#8,	r11	;r2 As==11
    cf52:	0a 24       	jz	$+22     	;abs 0xcf68
    cf54:	6b 93       	cmp.b	#2,	r11	;r3 As==10
    cf56:	1e 20       	jnz	$+62     	;abs 0xcf94
    cf58:	b0 12 3e b4 	call	#0xb43e	
    cf5c:	30 40 cc de 	br	#0xdecc	
    cf60:	b0 12 20 72 	call	#0x7220	
    cf64:	30 40 cc de 	br	#0xdecc	
    cf68:	b0 12 04 6b 	call	#0x6b04	
    cf6c:	7f 40 09 00 	mov.b	#9,	r15	;#0x0009
    cf70:	b0 12 b4 6a 	call	#0x6ab4	
    cf74:	b0 12 42 6f 	call	#0x6f42	
    cf78:	b0 12 06 70 	call	#0x7006	
    cf7c:	b0 12 04 6a 	call	#0x6a04	
    cf80:	92 43 c2 11 	mov	#1,	&0x11c2	;r3 As==01
    cf84:	b0 12 16 6a 	call	#0x6a16	
    cf88:	7f 40 03 00 	mov.b	#3,	r15	;#0x0003
    cf8c:	b0 12 f6 6e 	call	#0x6ef6	
    cf90:	30 40 cc de 	br	#0xdecc	
    cf94:	b0 12 06 70 	call	#0x7006	
    cf98:	30 40 cc de 	br	#0xdecc	
    cf9c:	b0 12 e6 6e 	call	#0x6ee6	
    cfa0:	30 40 cc de 	br	#0xdecc	
    cfa4:	b0 12 04 6a 	call	#0x6a04	
    cfa8:	81 4f e4 01 	mov	r15,	484(r1)	;0x01e4(r1)
    cfac:	b0 12 08 bb 	call	#0xbb08	
    cfb0:	98 3c       	jmp	$+306    	;abs 0xd0e2
    cfb2:	b0 12 04 6a 	call	#0x6a04	
    cfb6:	d2 42 ce 14 3a 11 	mov.b	&0x14ce,&0x113a	
    cfbc:	f2 40 03 00 c8 11 	mov.b	#3,	&0x11c8	;#0x0003
    cfc2:	b0 12 16 6a 	call	#0x6a16	
    cfc6:	c2 93 3a 11 	tst.b	&0x113a	
    cfca:	02 20       	jnz	$+6      	;abs 0xcfd0
    cfcc:	b0 12 72 b9 	call	#0xb972	
    cfd0:	c2 93 3a 11 	tst.b	&0x113a	
    cfd4:	02 24       	jz	$+6      	;abs 0xcfda
    cfd6:	30 40 cc de 	br	#0xdecc	
    cfda:	7f 40 10 00 	mov.b	#16,	r15	;#0x0010
    cfde:	30 40 bc dd 	br	#0xddbc	
    cfe2:	c2 93 af 12 	tst.b	&0x12af	
    cfe6:	28 20       	jnz	$+82     	;abs 0xd038
    cfe8:	1a 42 a8 23 	mov	&0x23a8,r10	
    cfec:	1b 42 aa 23 	mov	&0x23aa,r11	
    cff0:	b0 12 04 6a 	call	#0x6a04	
    cff4:	18 42 e4 12 	mov	&0x12e4,r8	
    cff8:	19 42 e6 12 	mov	&0x12e6,r9	
    cffc:	18 52 b4 1c 	add	&0x1cb4,r8	
    d000:	19 62 b6 1c 	addc	&0x1cb6,r9	
    d004:	b0 12 16 6a 	call	#0x6a16	
    d008:	82 4a a8 23 	mov	r10,	&0x23a8	
    d00c:	82 4b aa 23 	mov	r11,	&0x23aa	
    d010:	c2 43 af 12 	mov.b	#0,	&0x12af	;r3 As==00
    d014:	b0 12 04 6a 	call	#0x6a04	
    d018:	82 48 b4 1c 	mov	r8,	&0x1cb4	
    d01c:	82 49 b6 1c 	mov	r9,	&0x1cb6	
    d020:	82 4a e4 12 	mov	r10,	&0x12e4	
    d024:	82 4b e6 12 	mov	r11,	&0x12e6	
    d028:	81 4f e4 01 	mov	r15,	484(r1)	;0x01e4(r1)
    d02c:	b0 12 f6 91 	call	#0x91f6	
    d030:	1f 41 e4 01 	mov	484(r1),r15	;0x01e4(r1)
    d034:	b0 12 16 6a 	call	#0x6a16	
    d038:	b0 12 c4 88 	call	#0x88c4	
    d03c:	3a 3c       	jmp	$+118    	;abs 0xd0b2
    d03e:	b0 12 c4 88 	call	#0x88c4	
    d042:	08 4e       	mov	r14,	r8	
    d044:	09 4f       	mov	r15,	r9	
    d046:	b2 f0 ef ff 8a 01 	and	#-17,	&0x018a	;#0xffef
    d04c:	45 43       	clr.b	r5		
    d04e:	3a 43       	mov	#-1,	r10	;r3 As==11
    d050:	3b 40 ff 7f 	mov	#32767,	r11	;#0x7fff
    d054:	06 43       	clr	r6		
    d056:	0e 46       	mov	r6,	r14	
    d058:	0e 5e       	rla	r14		
    d05a:	0f 4e       	mov	r14,	r15	
    d05c:	0f 5f       	rla	r15		
    d05e:	0f 5f       	rla	r15		
    d060:	0f 5e       	add	r14,	r15	
    d062:	3f 50 7c 1b 	add	#7036,	r15	;#0x1b7c
    d066:	ef b3 08 00 	bit.b	#2,	8(r15)	;r3 As==10, 0x0008(r15)
    d06a:	13 24       	jz	$+40     	;abs 0xd092
    d06c:	0c 48       	mov	r8,	r12	
    d06e:	0d 49       	mov	r9,	r13	
    d070:	2c 8f       	sub	@r15,	r12	
    d072:	1d 7f 02 00 	subc	2(r15),	r13	;0x0002(r15)
    d076:	1e 4f 04 00 	mov	4(r15),	r14	;0x0004(r15)
    d07a:	1f 4f 06 00 	mov	6(r15),	r15	;0x0006(r15)
    d07e:	0e 8c       	sub	r12,	r14	
    d080:	0f 7d       	subc	r13,	r15	
    d082:	0f 9b       	cmp	r11,	r15	
    d084:	03 38       	jl	$+8      	;abs 0xd08c
    d086:	05 20       	jnz	$+12     	;abs 0xd092
    d088:	0e 9a       	cmp	r10,	r14	
    d08a:	03 2c       	jc	$+8      	;abs 0xd092
    d08c:	0a 4e       	mov	r14,	r10	
    d08e:	0b 4f       	mov	r15,	r11	
    d090:	55 43       	mov.b	#1,	r5	;r3 As==01
    d092:	16 53       	inc	r6		
    d094:	36 90 0a 00 	cmp	#10,	r6	;#0x000a
    d098:	de 23       	jnz	$-66     	;abs 0xd056
    d09a:	45 93       	tst.b	r5		
    d09c:	02 20       	jnz	$+6      	;abs 0xd0a2
    d09e:	30 40 cc de 	br	#0xdecc	
    d0a2:	0b 93       	tst	r11		
    d0a4:	04 38       	jl	$+10     	;abs 0xd0ae
    d0a6:	1b 93       	cmp	#1,	r11	;r3 As==01
    d0a8:	08 34       	jge	$+18     	;abs 0xd0ba
    d0aa:	1a 93       	cmp	#1,	r10	;r3 As==01
    d0ac:	06 2c       	jc	$+14     	;abs 0xd0ba
    d0ae:	0e 48       	mov	r8,	r14	
    d0b0:	0f 49       	mov	r9,	r15	
    d0b2:	b0 12 d0 b4 	call	#0xb4d0	
    d0b6:	30 40 cc de 	br	#0xdecc	
    d0ba:	82 4a a8 23 	mov	r10,	&0x23a8	
    d0be:	82 4b aa 23 	mov	r11,	&0x23aa	
    d0c2:	d2 43 af 12 	mov.b	#1,	&0x12af	;r3 As==01
    d0c6:	b0 12 04 6a 	call	#0x6a04	
    d0ca:	82 48 b4 1c 	mov	r8,	&0x1cb4	
    d0ce:	82 49 b6 1c 	mov	r9,	&0x1cb6	
    d0d2:	82 4a e4 12 	mov	r10,	&0x12e4	
    d0d6:	82 4b e6 12 	mov	r11,	&0x12e6	
    d0da:	81 4f e4 01 	mov	r15,	484(r1)	;0x01e4(r1)
    d0de:	b0 12 f6 91 	call	#0x91f6	
    d0e2:	1f 41 e4 01 	mov	484(r1),r15	;0x01e4(r1)
    d0e6:	30 40 fa c7 	br	#0xc7fa	
    d0ea:	c2 93 78 1c 	tst.b	&0x1c78	
    d0ee:	02 24       	jz	$+6      	;abs 0xd0f4
    d0f0:	30 40 cc de 	br	#0xdecc	
    d0f4:	c2 93 36 11 	tst.b	&0x1136	
    d0f8:	02 24       	jz	$+6      	;abs 0xd0fe
    d0fa:	30 40 cc de 	br	#0xdecc	
    d0fe:	c2 93 b8 11 	tst.b	&0x11b8	
    d102:	02 20       	jnz	$+6      	;abs 0xd108
    d104:	30 40 cc de 	br	#0xdecc	
    d108:	5f 42 bc 11 	mov.b	&0x11bc,r15	
    d10c:	0f 5f       	rla	r15		
    d10e:	1a 4f 84 23 	mov	9092(r15),r10	;0x2384(r15)
    d112:	2f 4a       	mov	@r10,	r15	
    d114:	cf 93 05 00 	tst.b	5(r15)		;0x0005(r15)
    d118:	3e 20       	jnz	$+126    	;abs 0xd196
    d11a:	1b 4a 02 00 	mov	2(r10),	r11	;0x0002(r10)
    d11e:	92 43 0a 25 	mov	#1,	&0x250a	;r3 As==01
    d122:	6f 43       	mov.b	#2,	r15	;r3 As==10
    d124:	b0 12 aa b8 	call	#0xb8aa	
    d128:	4f 93       	tst.b	r15		
    d12a:	35 20       	jnz	$+108    	;abs 0xd196
    d12c:	5f 42 82 23 	mov.b	&0x2382,r15	
    d130:	4e 4f       	mov.b	r15,	r14	
    d132:	5e 53       	inc.b	r14		
    d134:	c2 4e 82 23 	mov.b	r14,	&0x2382	
    d138:	cb 4f 03 00 	mov.b	r15,	3(r11)	;0x0003(r11)
    d13c:	6f 42       	mov.b	#4,	r15	;r2 As==10
    d13e:	b0 12 aa b8 	call	#0xb8aa	
    d142:	4f 93       	tst.b	r15		
    d144:	25 20       	jnz	$+76     	;abs 0xd190
    d146:	82 4b 24 15 	mov	r11,	&0x1524	
    d14a:	c2 43 44 1b 	mov.b	#0,	&0x1b44	;r3 As==00
    d14e:	82 43 a6 23 	mov	#0,	&0x23a6	;r3 As==00
    d152:	5f 4b 88 00 	mov.b	136(r11),r15	;0x0088(r11)
    d156:	8f 10       	swpb	r15		
    d158:	5e 4b 89 00 	mov.b	137(r11),r14	;0x0089(r11)
    d15c:	0f de       	bis	r14,	r15	
    d15e:	0f 93       	tst	r15		
    d160:	0d 24       	jz	$+28     	;abs 0xd17c
    d162:	5f 4b 01 00 	mov.b	1(r11),	r15	;0x0001(r11)
    d166:	3f d0 20 00 	bis	#32,	r15	;#0x0020
    d16a:	5e 4b 02 00 	mov.b	2(r11),	r14	;0x0002(r11)
    d16e:	8e 10       	swpb	r14		
    d170:	0f de       	bis	r14,	r15	
    d172:	cb 4f 01 00 	mov.b	r15,	1(r11)	;0x0001(r11)
    d176:	8f 10       	swpb	r15		
    d178:	cb 4f 02 00 	mov.b	r15,	2(r11)	;0x0002(r11)
    d17c:	0f 4b       	mov	r11,	r15	
    d17e:	b0 12 18 be 	call	#0xbe18	
    d182:	4f 93       	tst.b	r15		
    d184:	02 20       	jnz	$+6      	;abs 0xd18a
    d186:	30 40 84 de 	br	#0xde84	
    d18a:	6f 42       	mov.b	#4,	r15	;r2 As==10
    d18c:	b0 12 2c 6f 	call	#0x6f2c	
    d190:	6f 43       	mov.b	#2,	r15	;r3 As==10
    d192:	b0 12 2c 6f 	call	#0x6f2c	
    d196:	7f 40 15 00 	mov.b	#21,	r15	;#0x0015
    d19a:	b0 12 14 6b 	call	#0x6b14	
    d19e:	2f 4a       	mov	@r10,	r15	
    d1a0:	df 43 05 00 	mov.b	#1,	5(r15)	;r3 As==01, 0x0005(r15)
    d1a4:	2f 4a       	mov	@r10,	r15	
    d1a6:	b0 12 e4 59 	call	#0x59e4	
    d1aa:	1f 4a 02 00 	mov	2(r10),	r15	;0x0002(r10)
    d1ae:	b0 12 b4 59 	call	#0x59b4	
    d1b2:	0f 4a       	mov	r10,	r15	
    d1b4:	b0 12 84 59 	call	#0x5984	
    d1b8:	c2 93 b8 11 	tst.b	&0x11b8	
    d1bc:	02 20       	jnz	$+6      	;abs 0xd1c2
    d1be:	30 40 cc de 	br	#0xdecc	
    d1c2:	b0 12 7e 5a 	call	#0x5a7e	
    d1c6:	30 40 cc de 	br	#0xdecc	
    d1ca:	b0 12 04 6a 	call	#0x6a04	
    d1ce:	4b 4f       	mov.b	r15,	r11	
    d1d0:	5f 43       	mov.b	#1,	r15	;r3 As==01
    d1d2:	b0 12 ea 4a 	call	#0x4aea	
    d1d6:	92 43 c2 11 	mov	#1,	&0x11c2	;r3 As==01
    d1da:	c2 43 c0 11 	mov.b	#0,	&0x11c0	;r3 As==00
    d1de:	c2 43 70 12 	mov.b	#0,	&0x1270	;r3 As==00
    d1e2:	c2 43 b0 12 	mov.b	#0,	&0x12b0	;r3 As==00
    d1e6:	4f 4b       	mov.b	r11,	r15	
    d1e8:	b0 12 16 6a 	call	#0x6a16	
    d1ec:	b0 12 04 6a 	call	#0x6a04	
    d1f0:	81 4f e4 01 	mov	r15,	484(r1)	;0x01e4(r1)
    d1f4:	b0 12 66 4c 	call	#0x4c66	
    d1f8:	92 43 98 12 	mov	#1,	&0x1298	;r3 As==01
    d1fc:	c2 43 e2 12 	mov.b	#0,	&0x12e2	;r3 As==00
    d200:	f2 f0 fe ff 25 00 	and.b	#-2,	&0x0025	;#0xfffe
    d206:	f2 f0 fe ff 23 00 	and.b	#-2,	&0x0023	;#0xfffe
    d20c:	d2 d3 24 00 	bis.b	#1,	&0x0024	;r3 As==01
    d210:	d2 d3 25 00 	bis.b	#1,	&0x0025	;r3 As==01
    d214:	1f 41 e4 01 	mov	484(r1),r15	;0x01e4(r1)
    d218:	b0 12 16 6a 	call	#0x6a16	
    d21c:	b0 12 04 6a 	call	#0x6a04	
    d220:	4b 4f       	mov.b	r15,	r11	
    d222:	a2 92 cc 11 	cmp	#4,	&0x11cc	;r2 As==10
    d226:	05 20       	jnz	$+12     	;abs 0xd232
    d228:	7f 40 03 00 	mov.b	#3,	r15	;#0x0003
    d22c:	b0 12 b4 6a 	call	#0x6ab4	
    d230:	4f 4b       	mov.b	r11,	r15	
    d232:	b0 12 16 6a 	call	#0x6a16	
    d236:	b0 12 04 6a 	call	#0x6a04	
    d23a:	4b 4f       	mov.b	r15,	r11	
    d23c:	b0 12 42 6f 	call	#0x6f42	
    d240:	4f 43       	clr.b	r15		
    d242:	b0 12 50 6f 	call	#0x6f50	
    d246:	4f 4b       	mov.b	r11,	r15	
    d248:	b0 12 16 6a 	call	#0x6a16	
    d24c:	6f 43       	mov.b	#2,	r15	;r3 As==10
    d24e:	b0 12 fe b6 	call	#0xb6fe	
    d252:	3d 40 00 10 	mov	#4096,	r13	;#0x1000
    d256:	0e 43       	clr	r14		
    d258:	7f 40 03 00 	mov.b	#3,	r15	;#0x0003
    d25c:	b0 12 ca 90 	call	#0x90ca	
    d260:	c2 43 36 11 	mov.b	#0,	&0x1136	;r3 As==00
    d264:	c2 43 78 1c 	mov.b	#0,	&0x1c78	;r3 As==00
    d268:	d2 43 b6 11 	mov.b	#1,	&0x11b6	;r3 As==01
    d26c:	3e 40 ce 1c 	mov	#7374,	r14	;#0x1cce
    d270:	3f 40 60 f2 	mov	#-3488,	r15	;#0xf260
    d274:	b0 12 e2 ea 	call	#0xeae2	
    d278:	3d 40 10 00 	mov	#16,	r13	;#0x0010
    d27c:	0e 43       	clr	r14		
    d27e:	3f 40 9c 12 	mov	#4764,	r15	;#0x129c
    d282:	b0 12 94 f1 	call	#0xf194	
    d286:	0f 41       	mov	r1,	r15	
    d288:	3f 50 68 00 	add	#104,	r15	;#0x0068
    d28c:	b0 12 3a 48 	call	#0x483a	
    d290:	4f 93       	tst.b	r15		
    d292:	02 24       	jz	$+6      	;abs 0xd298
    d294:	b0 12 ae 91 	call	#0x91ae	
    d298:	0e 41       	mov	r1,	r14	
    d29a:	3e 50 78 00 	add	#120,	r14	;#0x0078
    d29e:	3f 40 68 f2 	mov	#-3480,	r15	;#0xf268
    d2a2:	b0 12 e2 ea 	call	#0xeae2	
    d2a6:	6c 43       	mov.b	#2,	r12	;r3 As==10
    d2a8:	0d 43       	clr	r13		
    d2aa:	3e 40 80 00 	mov	#128,	r14	;#0x0080
    d2ae:	0f 41       	mov	r1,	r15	
    d2b0:	3f 50 78 00 	add	#120,	r15	;#0x0078
    d2b4:	b0 12 58 6c 	call	#0x6c58	
    d2b8:	6c 43       	mov.b	#2,	r12	;r3 As==10
    d2ba:	0d 43       	clr	r13		
    d2bc:	0e 43       	clr	r14		
    d2be:	0f 43       	clr	r15		
    d2c0:	b0 12 58 6c 	call	#0x6c58	
    d2c4:	30 40 cc de 	br	#0xdecc	
    d2c8:	4f 43       	clr.b	r15		
    d2ca:	b0 12 fe b6 	call	#0xb6fe	
    d2ce:	c2 43 b6 11 	mov.b	#0,	&0x11b6	;r3 As==00
    d2d2:	30 40 cc de 	br	#0xdecc	
    d2d6:	b0 12 04 6a 	call	#0x6a04	
    d2da:	b0 12 16 6a 	call	#0x6a16	
    d2de:	7f 40 03 00 	mov.b	#3,	r15	;#0x0003
    d2e2:	b0 12 e4 6a 	call	#0x6ae4	
    d2e6:	4f 93       	tst.b	r15		
    d2e8:	03 24       	jz	$+8      	;abs 0xd2f0
    d2ea:	b0 12 32 b7 	call	#0xb732	
    d2ee:	03 3c       	jmp	$+8      	;abs 0xd2f6
    d2f0:	6f 43       	mov.b	#2,	r15	;r3 As==10
    d2f2:	b0 12 fe b6 	call	#0xb6fe	
    d2f6:	1b 42 f6 17 	mov	&0x17f6,r11	
    d2fa:	b0 12 04 6a 	call	#0x6a04	
    d2fe:	5a 42 90 1c 	mov.b	&0x1c90,r10	
    d302:	b0 12 16 6a 	call	#0x6a16	
    d306:	5a 93       	cmp.b	#1,	r10	;r3 As==01
    d308:	20 20       	jnz	$+66     	;abs 0xd34a
    d30a:	1d 42 a6 23 	mov	&0x23a6,r13	
    d30e:	1d 53       	inc	r13		
    d310:	82 4d a6 23 	mov	r13,	&0x23a6	
    d314:	cb 93 80 00 	tst.b	128(r11)	;0x0080(r11)
    d318:	18 20       	jnz	$+50     	;abs 0xd34a
    d31a:	1f 42 24 15 	mov	&0x1524,r15	
    d31e:	5e 4f 88 00 	mov.b	136(r15),r14	;0x0088(r15)
    d322:	8e 10       	swpb	r14		
    d324:	5c 4f 89 00 	mov.b	137(r15),r12	;0x0089(r15)
    d328:	0e dc       	bis	r12,	r14	
    d32a:	0d 9e       	cmp	r14,	r13	
    d32c:	0e 2c       	jc	$+30     	;abs 0xd34a
    d32e:	5d 4f 8a 00 	mov.b	138(r15),r13	;0x008a(r15)
    d332:	8d 10       	swpb	r13		
    d334:	5f 4f 8b 00 	mov.b	139(r15),r15	;0x008b(r15)
    d338:	0d df       	bis	r15,	r13	
    d33a:	0d 93       	tst	r13		
    d33c:	02 20       	jnz	$+6      	;abs 0xd342
    d33e:	30 40 8e d8 	br	#0xd88e	
    d342:	0e 43       	clr	r14		
    d344:	6f 43       	mov.b	#2,	r15	;r3 As==10
    d346:	30 40 0a dd 	br	#0xdd0a	
    d34a:	b0 12 b2 b7 	call	#0xb7b2	
    d34e:	30 40 cc de 	br	#0xdecc	
    d352:	1b 42 f0 11 	mov	&0x11f0,r11	
    d356:	66 4b       	mov.b	@r11,	r6	
    d358:	4e 46       	mov.b	r6,	r14	
    d35a:	0e 5b       	add	r11,	r14	
    d35c:	6f 4e       	mov.b	@r14,	r15	
    d35e:	4f 5f       	rla.b	r15		
    d360:	0f 43       	clr	r15		
    d362:	0f 6f       	rlc	r15		
    d364:	cb 4f 7f 00 	mov.b	r15,	127(r11);0x007f(r11)
    d368:	6f 4e       	mov.b	@r14,	r15	
    d36a:	7f f0 7f 00 	and.b	#127,	r15	;#0x007f
    d36e:	cb 4f 7d 00 	mov.b	r15,	125(r11);0x007d(r11)
    d372:	db 4e ff ff 7c 00 	mov.b	-1(r14),124(r11);0xffff(r14), 0x007c(r11)
    d378:	59 4b 02 00 	mov.b	2(r11),	r9	;0x0002(r11)
    d37c:	5a 4b 01 00 	mov.b	1(r11),	r10	;0x0001(r11)
    d380:	b0 12 04 6a 	call	#0x6a04	
    d384:	58 42 b1 12 	mov.b	&0x12b1,r8	
    d388:	b0 12 16 6a 	call	#0x6a16	
    d38c:	48 93       	tst.b	r8		
    d38e:	4a 24       	jz	$+150    	;abs 0xd424
    d390:	4e 49       	mov.b	r9,	r14	
    d392:	8e 10       	swpb	r14		
    d394:	4f 4a       	mov.b	r10,	r15	
    d396:	0e df       	bis	r15,	r14	
    d398:	8e 10       	swpb	r14		
    d39a:	4e 4e       	mov.b	r14,	r14	
    d39c:	12 c3       	clrc			
    d39e:	0e 10       	rrc	r14		
    d3a0:	12 c3       	clrc			
    d3a2:	0e 10       	rrc	r14		
    d3a4:	3e f0 03 00 	and	#3,	r14	;#0x0003
    d3a8:	2e 93       	cmp	#2,	r14	;r3 As==10
    d3aa:	1e 20       	jnz	$+62     	;abs 0xd3e8
    d3ac:	5a 4b 07 00 	mov.b	7(r11),	r10	;0x0007(r11)
    d3b0:	8a 10       	swpb	r10		
    d3b2:	5f 4b 06 00 	mov.b	6(r11),	r15	;0x0006(r11)
    d3b6:	0a df       	bis	r15,	r10	
    d3b8:	b0 12 04 6a 	call	#0x6a04	
    d3bc:	19 42 92 15 	mov	&0x1592,r9	
    d3c0:	b0 12 16 6a 	call	#0x6a16	
    d3c4:	0a 99       	cmp	r9,	r10	
    d3c6:	0b 24       	jz	$+24     	;abs 0xd3de
    d3c8:	5f 4b 07 00 	mov.b	7(r11),	r15	;0x0007(r11)
    d3cc:	8f 10       	swpb	r15		
    d3ce:	5e 4b 06 00 	mov.b	6(r11),	r14	;0x0006(r11)
    d3d2:	0f de       	bis	r14,	r15	
    d3d4:	1e 43       	mov	#1,	r14	;r3 As==01
    d3d6:	3f 93       	cmp	#-1,	r15	;r3 As==11
    d3d8:	03 24       	jz	$+8      	;abs 0xd3e0
    d3da:	0e 43       	clr	r14		
    d3dc:	01 3c       	jmp	$+4      	;abs 0xd3e0
    d3de:	1e 43       	mov	#1,	r14	;r3 As==01
    d3e0:	0e 93       	tst	r14		
    d3e2:	20 20       	jnz	$+66     	;abs 0xd424
    d3e4:	30 40 28 d8 	br	#0xd828	
    d3e8:	3e 90 03 00 	cmp	#3,	r14	;#0x0003
    d3ec:	02 24       	jz	$+6      	;abs 0xd3f2
    d3ee:	30 40 28 d8 	br	#0xd828	
    d3f2:	91 42 ba 1c 28 00 	mov	&0x1cba,40(r1)	;0x0028(r1)
    d3f8:	91 42 bc 1c 2a 00 	mov	&0x1cbc,42(r1)	;0x002a(r1)
    d3fe:	91 42 be 1c 2c 00 	mov	&0x1cbe,44(r1)	;0x002c(r1)
    d404:	91 42 c0 1c 2e 00 	mov	&0x1cc0,46(r1)	;0x002e(r1)
    d40a:	3d 42       	mov	#8,	r13	;r2 As==11
    d40c:	0e 41       	mov	r1,	r14	
    d40e:	3e 50 28 00 	add	#40,	r14	;#0x0028
    d412:	0f 4b       	mov	r11,	r15	
    d414:	3f 50 06 00 	add	#6,	r15	;#0x0006
    d418:	b0 12 80 ef 	call	#0xef80	
    d41c:	0f 93       	tst	r15		
    d41e:	02 24       	jz	$+6      	;abs 0xd424
    d420:	30 40 28 d8 	br	#0xd828	
    d424:	76 90 0d 00 	cmp.b	#13,	r6	;#0x000d
    d428:	02 2c       	jc	$+6      	;abs 0xd42e
    d42a:	30 40 28 d8 	br	#0xd828	
    d42e:	1b 42 f0 11 	mov	&0x11f0,r11	
    d432:	5e 4b 02 00 	mov.b	2(r11),	r14	;0x0002(r11)
    d436:	8e 10       	swpb	r14		
    d438:	5f 4b 01 00 	mov.b	1(r11),	r15	;0x0001(r11)
    d43c:	0e df       	bis	r15,	r14	
    d43e:	0f 4e       	mov	r14,	r15	
    d440:	8f 10       	swpb	r15		
    d442:	4f 4f       	mov.b	r15,	r15	
    d444:	12 c3       	clrc			
    d446:	0f 10       	rrc	r15		
    d448:	12 c3       	clrc			
    d44a:	0f 10       	rrc	r15		
    d44c:	3f f0 03 00 	and	#3,	r15	;#0x0003
    d450:	0c 4b       	mov	r11,	r12	
    d452:	3c 50 06 00 	add	#6,	r12	;#0x0006
    d456:	8e 10       	swpb	r14		
    d458:	4e 4e       	mov.b	r14,	r14	
    d45a:	7d 40 06 00 	mov.b	#6,	r13	;#0x0006
    d45e:	12 c3       	clrc			
    d460:	0e 10       	rrc	r14		
    d462:	7d 53       	add.b	#-1,	r13	;r3 As==11
    d464:	fc 23       	jnz	$-6      	;abs 0xd45e
    d466:	3e 90 03 00 	cmp	#3,	r14	;#0x0003
    d46a:	02 24       	jz	$+6      	;abs 0xd470
    d46c:	2e 43       	mov	#2,	r14	;r3 As==10
    d46e:	01 3c       	jmp	$+4      	;abs 0xd472
    d470:	3e 42       	mov	#8,	r14	;r2 As==11
    d472:	3f 90 03 00 	cmp	#3,	r15	;#0x0003
    d476:	02 24       	jz	$+6      	;abs 0xd47c
    d478:	2f 43       	mov	#2,	r15	;r3 As==10
    d47a:	01 3c       	jmp	$+4      	;abs 0xd47e
    d47c:	3f 42       	mov	#8,	r15	;r2 As==11
    d47e:	0c 5f       	add	r15,	r12	
    d480:	09 43       	clr	r9		
    d482:	0f 43       	clr	r15		
    d484:	0d 4c       	mov	r12,	r13	
    d486:	0d 5f       	add	r15,	r13	
    d488:	6d 4d       	mov.b	@r13,	r13	
    d48a:	09 5d       	add	r13,	r9	
    d48c:	1f 53       	inc	r15		
    d48e:	0f 9e       	cmp	r14,	r15	
    d490:	f9 3b       	jl	$-12     	;abs 0xd484
    d492:	5a 4b 03 00 	mov.b	3(r11),	r10	;0x0003(r11)
    d496:	f2 43 0d 25 	mov.b	#-1,	&0x250d	;r3 As==11
    d49a:	b0 12 04 6a 	call	#0x6a04	
    d49e:	5c 42 0d 25 	mov.b	&0x250d,r12	
    d4a2:	3e 40 40 12 	mov	#4672,	r14	;#0x1240
    d4a6:	0d 43       	clr	r13		
    d4a8:	29 9e       	cmp	@r14,	r9	
    d4aa:	0a 20       	jnz	$+22     	;abs 0xd4c0
    d4ac:	ce 9a 02 00 	cmp.b	r10,	2(r14)	;0x0002(r14)
    d4b0:	06 20       	jnz	$+14     	;abs 0xd4be
    d4b2:	c2 4c 0d 25 	mov.b	r12,	&0x250d	
    d4b6:	b0 12 16 6a 	call	#0x6a16	
    d4ba:	30 40 24 d8 	br	#0xd824	
    d4be:	4c 4d       	mov.b	r13,	r12	
    d4c0:	1d 53       	inc	r13		
    d4c2:	2e 52       	add	#4,	r14	;r2 As==10
    d4c4:	2d 92       	cmp	#4,	r13	;r2 As==10
    d4c6:	f0 23       	jnz	$-30     	;abs 0xd4a8
    d4c8:	c2 4c 0d 25 	mov.b	r12,	&0x250d	
    d4cc:	b0 12 16 6a 	call	#0x6a16	
    d4d0:	58 42 0d 25 	mov.b	&0x250d,r8	
    d4d4:	b0 12 04 6a 	call	#0x6a04	
    d4d8:	78 93       	cmp.b	#-1,	r8	;r3 As==11
    d4da:	03 24       	jz	$+8      	;abs 0xd4e2
    d4dc:	c2 98 be 11 	cmp.b	r8,	&0x11be	
    d4e0:	04 20       	jnz	$+10     	;abs 0xd4ea
    d4e2:	58 42 be 11 	mov.b	&0x11be,r8	
    d4e6:	5d 43       	mov.b	#1,	r13	;r3 As==01
    d4e8:	01 3c       	jmp	$+4      	;abs 0xd4ec
    d4ea:	4d 43       	clr.b	r13		
    d4ec:	4e 48       	mov.b	r8,	r14	
    d4ee:	0e 5e       	rla	r14		
    d4f0:	0e 5e       	rla	r14		
    d4f2:	8e 49 40 12 	mov	r9,	4672(r14);0x1240(r14)
    d4f6:	ce 4a 42 12 	mov.b	r10,	4674(r14);0x1242(r14)
    d4fa:	4d 93       	tst.b	r13		
    d4fc:	07 24       	jz	$+16     	;abs 0xd50c
    d4fe:	5e 42 be 11 	mov.b	&0x11be,r14	
    d502:	5e 53       	inc.b	r14		
    d504:	7e f0 03 00 	and.b	#3,	r14	;#0x0003
    d508:	c2 4e be 11 	mov.b	r14,	&0x11be	
    d50c:	b0 12 16 6a 	call	#0x6a16	
    d510:	b0 12 04 6a 	call	#0x6a04	
    d514:	5c 4b 02 00 	mov.b	2(r11),	r12	;0x0002(r11)
    d518:	8c 10       	swpb	r12		
    d51a:	5e 4b 01 00 	mov.b	1(r11),	r14	;0x0001(r11)
    d51e:	0c de       	bis	r14,	r12	
    d520:	0e 4c       	mov	r12,	r14	
    d522:	8e 10       	swpb	r14		
    d524:	4e 4e       	mov.b	r14,	r14	
    d526:	12 c3       	clrc			
    d528:	0e 10       	rrc	r14		
    d52a:	12 c3       	clrc			
    d52c:	0e 10       	rrc	r14		
    d52e:	3e f0 03 00 	and	#3,	r14	;#0x0003
    d532:	5d 4e 30 f3 	mov.b	-3280(r14),r13	;0xf330(r14)
    d536:	8d 11       	sxt	r13		
    d538:	0e 4c       	mov	r12,	r14	
    d53a:	8e 10       	swpb	r14		
    d53c:	4e 4e       	mov.b	r14,	r14	
    d53e:	7c 40 06 00 	mov.b	#6,	r12	;#0x0006
    d542:	12 c3       	clrc			
    d544:	0e 10       	rrc	r14		
    d546:	7c 53       	add.b	#-1,	r12	;r3 As==11
    d548:	fc 23       	jnz	$-6      	;abs 0xd542
    d54a:	5e 4e 30 f3 	mov.b	-3280(r14),r14	;0xf330(r14)
    d54e:	8e 11       	sxt	r14		
    d550:	0d 5b       	add	r11,	r13	
    d552:	0d 5e       	add	r14,	r13	
    d554:	5a 4d 06 00 	mov.b	6(r13),	r10	;0x0006(r13)
    d558:	b0 12 16 6a 	call	#0x6a16	
    d55c:	cb 93 7f 00 	tst.b	127(r11)	;0x007f(r11)
    d560:	02 20       	jnz	$+6      	;abs 0xd566
    d562:	30 40 24 d8 	br	#0xd824	
    d566:	7a 90 3f 00 	cmp.b	#63,	r10	;#0x003f
    d56a:	02 20       	jnz	$+6      	;abs 0xd570
    d56c:	30 40 24 d8 	br	#0xd824	
    d570:	76 53       	add.b	#-1,	r6	;r3 As==11
    d572:	4a 46       	mov.b	r6,	r10	
    d574:	5f 4b 02 00 	mov.b	2(r11),	r15	;0x0002(r11)
    d578:	8f 10       	swpb	r15		
    d57a:	5e 4b 01 00 	mov.b	1(r11),	r14	;0x0001(r11)
    d57e:	0f de       	bis	r14,	r15	
    d580:	5e 4b 05 00 	mov.b	5(r11),	r14	;0x0005(r11)
    d584:	8e 10       	swpb	r14		
    d586:	5d 4b 04 00 	mov.b	4(r11),	r13	;0x0004(r11)
    d58a:	0e dd       	bis	r13,	r14	
    d58c:	81 4e 9c 00 	mov	r14,	156(r1)	;0x009c(r1)
    d590:	0e 4f       	mov	r15,	r14	
    d592:	8e 10       	swpb	r14		
    d594:	4e 4e       	mov.b	r14,	r14	
    d596:	7d 40 06 00 	mov.b	#6,	r13	;#0x0006
    d59a:	12 c3       	clrc			
    d59c:	0e 10       	rrc	r14		
    d59e:	7d 53       	add.b	#-1,	r13	;r3 As==11
    d5a0:	fc 23       	jnz	$-6      	;abs 0xd59a
    d5a2:	7e f0 03 00 	and.b	#3,	r14	;#0x0003
    d5a6:	5d 41 88 00 	mov.b	136(r1),r13	;0x0088(r1)
    d5aa:	7d f0 fc ff 	and.b	#-4,	r13	;#0xfffc
    d5ae:	4d de       	bis.b	r14,	r13	
    d5b0:	c1 4d 88 00 	mov.b	r13,	136(r1)	;0x0088(r1)
    d5b4:	8f 10       	swpb	r15		
    d5b6:	4f 4f       	mov.b	r15,	r15	
    d5b8:	12 c3       	clrc			
    d5ba:	0f 10       	rrc	r15		
    d5bc:	12 c3       	clrc			
    d5be:	0f 10       	rrc	r15		
    d5c0:	7f f0 03 00 	and.b	#3,	r15	;#0x0003
    d5c4:	5e 41 92 00 	mov.b	146(r1),r14	;0x0092(r1)
    d5c8:	7e f0 fc ff 	and.b	#-4,	r14	;#0xfffc
    d5cc:	4e df       	bis.b	r15,	r14	
    d5ce:	c1 4e 92 00 	mov.b	r14,	146(r1)	;0x0092(r1)
    d5d2:	09 4b       	mov	r11,	r9	
    d5d4:	39 50 06 00 	add	#6,	r9	;#0x0006
    d5d8:	7e f0 03 00 	and.b	#3,	r14	;#0x0003
    d5dc:	6e 93       	cmp.b	#2,	r14	;r3 As==10
    d5de:	08 20       	jnz	$+18     	;abs 0xd5f0
    d5e0:	e1 49 94 00 	mov.b	@r9,	148(r1)	;0x0094(r1)
    d5e4:	d1 49 01 00 95 00 	mov.b	1(r9),	149(r1)	;0x0001(r9), 0x0095(r1)
    d5ea:	29 53       	incd	r9		
    d5ec:	08 4a       	mov	r10,	r8	
    d5ee:	14 3c       	jmp	$+42     	;abs 0xd618
    d5f0:	08 4a       	mov	r10,	r8	
    d5f2:	38 50 fa ff 	add	#-6,	r8	;#0xfffa
    d5f6:	7e 90 03 00 	cmp.b	#3,	r14	;#0x0003
    d5fa:	0f 20       	jnz	$+32     	;abs 0xd61a
    d5fc:	38 92       	cmp	#8,	r8	;r2 As==11
    d5fe:	02 2c       	jc	$+6      	;abs 0xd604
    d600:	30 40 24 d8 	br	#0xd824	
    d604:	3d 42       	mov	#8,	r13	;r2 As==11
    d606:	0e 49       	mov	r9,	r14	
    d608:	0f 41       	mov	r1,	r15	
    d60a:	3f 50 94 00 	add	#148,	r15	;#0x0094
    d60e:	b0 12 a0 ef 	call	#0xefa0	
    d612:	09 4b       	mov	r11,	r9	
    d614:	39 50 0e 00 	add	#14,	r9	;#0x000e
    d618:	38 82       	sub	#8,	r8	;r2 As==11
    d61a:	5f 41 88 00 	mov.b	136(r1),r15	;0x0088(r1)
    d61e:	7f f0 03 00 	and.b	#3,	r15	;#0x0003
    d622:	6f 93       	cmp.b	#2,	r15	;r3 As==10
    d624:	0d 20       	jnz	$+28     	;abs 0xd640
    d626:	28 93       	cmp	#2,	r8	;r3 As==10
    d628:	02 2c       	jc	$+6      	;abs 0xd62e
    d62a:	30 40 24 d8 	br	#0xd824	
    d62e:	e1 49 8a 00 	mov.b	@r9,	138(r1)	;0x008a(r1)
    d632:	d1 49 01 00 8b 00 	mov.b	1(r9),	139(r1)	;0x0001(r9), 0x008b(r1)
    d638:	29 53       	incd	r9		
    d63a:	28 83       	decd	r8		
    d63c:	30 40 8a de 	br	#0xde8a	
    d640:	7f 90 03 00 	cmp.b	#3,	r15	;#0x0003
    d644:	02 24       	jz	$+6      	;abs 0xd64a
    d646:	30 40 8a de 	br	#0xde8a	
    d64a:	38 92       	cmp	#8,	r8	;r2 As==11
    d64c:	02 2c       	jc	$+6      	;abs 0xd652
    d64e:	30 40 24 d8 	br	#0xd824	
    d652:	3d 42       	mov	#8,	r13	;r2 As==11
    d654:	0e 49       	mov	r9,	r14	
    d656:	0f 41       	mov	r1,	r15	
    d658:	3f 50 8a 00 	add	#138,	r15	;#0x008a
    d65c:	b0 12 a0 ef 	call	#0xefa0	
    d660:	39 52       	add	#8,	r9	;r2 As==11
    d662:	38 82       	sub	#8,	r8	;r2 As==11
    d664:	30 40 8a de 	br	#0xde8a	
    d668:	7e b0 0c 00 	bit.b	#12,	r14	;#0x000c
    d66c:	ac 24       	jz	$+346    	;abs 0xd7c6
    d66e:	0f 41       	mov	r1,	r15	
    d670:	3f 50 88 00 	add	#136,	r15	;#0x0088
    d674:	b0 12 3a ed 	call	#0xed3a	
    d678:	81 4f d6 01 	mov	r15,	470(r1)	;0x01d6(r1)
    d67c:	0e 41       	mov	r1,	r14	
    d67e:	2e 52       	add	#4,	r14	;r2 As==10
    d680:	0f 41       	mov	r1,	r15	
    d682:	3f 50 12 00 	add	#18,	r15	;#0x0012
    d686:	b0 12 30 4a 	call	#0x4a30	
    d68a:	1c 41 04 00 	mov	4(r1),	r12	;0x0004(r1)
    d68e:	0a 43       	clr	r10		
    d690:	0d 43       	clr	r13		
    d692:	02 12       	push	r2		
    d694:	32 c2       	dint			
    d696:	03 43       	nop			
    d698:	82 4d 32 01 	mov	r13,	&0x0132	
    d69c:	b2 40 1c 00 38 01 	mov	#28,	&0x0138	;#0x001c
    d6a2:	1e 42 3a 01 	mov	&0x013a,r14	
    d6a6:	32 41       	pop	r2		
    d6a8:	3e 50 3a 15 	add	#5434,	r14	;#0x153a
    d6ac:	2c 9e       	cmp	@r14,	r12	
    d6ae:	10 20       	jnz	$+34     	;abs 0xd6d0
    d6b0:	9e 91 d6 01 02 00 	cmp	470(r1),2(r14)	;0x01d6(r1), 0x0002(r14)
    d6b6:	0c 20       	jnz	$+26     	;abs 0xd6d0
    d6b8:	5f 4e 0a 00 	mov.b	10(r14),r15	;0x000a(r14)
    d6bc:	7f 90 03 00 	cmp.b	#3,	r15	;#0x0003
    d6c0:	05 28       	jnc	$+12     	;abs 0xd6cc
    d6c2:	fe 40 03 00 0a 00 	mov.b	#3,	10(r14)	;#0x0003, 0x000a(r14)
    d6c8:	0a 4e       	mov	r14,	r10	
    d6ca:	0a 3c       	jmp	$+22     	;abs 0xd6e0
    d6cc:	6f 93       	cmp.b	#2,	r15	;r3 As==10
    d6ce:	aa 20       	jnz	$+342    	;abs 0xd824
    d6d0:	ee 93 0a 00 	cmp.b	#2,	10(r14)	;r3 As==10, 0x000a(r14)
    d6d4:	01 20       	jnz	$+4      	;abs 0xd6d8
    d6d6:	0a 4e       	mov	r14,	r10	
    d6d8:	1d 53       	inc	r13		
    d6da:	3d 90 03 00 	cmp	#3,	r13	;#0x0003
    d6de:	d9 23       	jnz	$-76     	;abs 0xd692
    d6e0:	0a 93       	tst	r10		
    d6e2:	a0 24       	jz	$+322    	;abs 0xd824
    d6e4:	3d 40 0a 00 	mov	#10,	r13	;#0x000a
    d6e8:	0e 41       	mov	r1,	r14	
    d6ea:	3e 50 88 00 	add	#136,	r14	;#0x0088
    d6ee:	0f 4a       	mov	r10,	r15	
    d6f0:	3f 50 10 00 	add	#16,	r15	;#0x0010
    d6f4:	b0 12 a0 ef 	call	#0xefa0	
    d6f8:	da 4b 7d 00 1a 00 	mov.b	125(r11),26(r10)	;0x007d(r11), 0x001a(r10)
    d6fe:	da 4b 7c 00 1b 00 	mov.b	124(r11),27(r10)	;0x007c(r11), 0x001b(r10)
    d704:	e1 b2 12 00 	bit.b	#4,	18(r1)	;r2 As==10, 0x0012(r1)
    d708:	0e 24       	jz	$+30     	;abs 0xd726
    d70a:	8a 93 06 00 	tst	6(r10)		;0x0006(r10)
    d70e:	8a 20       	jnz	$+278    	;abs 0xd824
    d710:	0c 48       	mov	r8,	r12	
    d712:	0d 49       	mov	r9,	r13	
    d714:	0e 4a       	mov	r10,	r14	
    d716:	0f 41       	mov	r1,	r15	
    d718:	3f 50 88 00 	add	#136,	r15	;#0x0088
    d71c:	b0 12 8c 5f 	call	#0x5f8c	
    d720:	0f 93       	tst	r15		
    d722:	42 34       	jge	$+134    	;abs 0xd7a8
    d724:	3e 3c       	jmp	$+126    	;abs 0xd7a2
    d726:	91 4a 06 00 d8 01 	mov	6(r10),	472(r1)	;0x0006(r10), 0x01d8(r1)
    d72c:	81 93 d8 01 	tst	472(r1)	;0x01d8(r1)
    d730:	79 24       	jz	$+244    	;abs 0xd824
    d732:	81 49 10 00 	mov	r9,	16(r1)	;0x0010(r1)
    d736:	c1 47 0f 00 	mov.b	r7,	15(r1)	;0x000f(r1)
    d73a:	0f 41       	mov	r1,	r15	
    d73c:	3f 50 0e 00 	add	#14,	r15	;#0x000e
    d740:	b0 12 c0 49 	call	#0x49c0	
    d744:	0e 4f       	mov	r15,	r14	
    d746:	4f 4f       	mov.b	r15,	r15	
    d748:	c1 4e 0e 00 	mov.b	r14,	14(r1)	;0x000e(r1)
    d74c:	7f 90 10 00 	cmp.b	#16,	r15	;#0x0010
    d750:	28 24       	jz	$+82     	;abs 0xd7a2
    d752:	7f f2       	and.b	#8,	r15	;r2 As==11
    d754:	26 24       	jz	$+78     	;abs 0xd7a2
    d756:	0f 41       	mov	r1,	r15	
    d758:	3f 50 0e 00 	add	#14,	r15	;#0x000e
    d75c:	b0 12 a2 49 	call	#0x49a2	
    d760:	0e 4f       	mov	r15,	r14	
    d762:	04 49       	mov	r9,	r4	
    d764:	89 10       	swpb	r9		
    d766:	89 11       	sxt	r9		
    d768:	89 10       	swpb	r9		
    d76a:	89 11       	sxt	r9		
    d76c:	05 49       	mov	r9,	r5	
    d76e:	06 4f       	mov	r15,	r6	
    d770:	0c 4f       	mov	r15,	r12	
    d772:	8c 10       	swpb	r12		
    d774:	8c 11       	sxt	r12		
    d776:	8c 10       	swpb	r12		
    d778:	8c 11       	sxt	r12		
    d77a:	07 4c       	mov	r12,	r7	
    d77c:	04 86       	sub	r6,	r4	
    d77e:	05 77       	subc	r7,	r5	
    d780:	04 58       	add	r8,	r4	
    d782:	1c 4a 08 00 	mov	8(r10),	r12	;0x0008(r10)
    d786:	0f 44       	mov	r4,	r15	
    d788:	0f 5c       	add	r12,	r15	
    d78a:	8a 9f 04 00 	cmp	r15,	4(r10)	;0x0004(r10)
    d78e:	09 28       	jnc	$+20     	;abs 0xd7a2
    d790:	0d 44       	mov	r4,	r13	
    d792:	1f 41 d8 01 	mov	472(r1),r15	;0x01d8(r1)
    d796:	0f 5c       	add	r12,	r15	
    d798:	b0 12 a0 ef 	call	#0xefa0	
    d79c:	8a 54 08 00 	add	r4,	8(r10)	;0x0008(r10)
    d7a0:	03 3c       	jmp	$+8      	;abs 0xd7a8
    d7a2:	ca 43 0a 00 	mov.b	#0,	10(r10)	;r3 As==00, 0x000a(r10)
    d7a6:	3e 3c       	jmp	$+126    	;abs 0xd824
    d7a8:	fa 40 03 00 0a 00 	mov.b	#3,	10(r10)	;#0x0003, 0x000a(r10)
    d7ae:	9a 41 d6 01 02 00 	mov	470(r1),2(r10)	;0x01d6(r1), 0x0002(r10)
    d7b4:	9a 41 04 00 00 00 	mov	4(r1),	0(r10)	;0x0004(r1), 0x0000(r10)
    d7ba:	9a 9a 08 00 04 00 	cmp	8(r10),	4(r10)	;0x0008(r10), 0x0004(r10)
    d7c0:	31 20       	jnz	$+100    	;abs 0xd824
    d7c2:	0f 4a       	mov	r10,	r15	
    d7c4:	28 3c       	jmp	$+82     	;abs 0xd816
    d7c6:	3d 40 0a 00 	mov	#10,	r13	;#0x000a
    d7ca:	0e 41       	mov	r1,	r14	
    d7cc:	3e 50 88 00 	add	#136,	r14	;#0x0088
    d7d0:	0f 41       	mov	r1,	r15	
    d7d2:	3f 50 ca 00 	add	#202,	r15	;#0x00ca
    d7d6:	b0 12 a0 ef 	call	#0xefa0	
    d7da:	d1 4b 7d 00 d4 00 	mov.b	125(r11),212(r1)	;0x007d(r11), 0x00d4(r1)
    d7e0:	d1 4b 7c 00 d5 00 	mov.b	124(r11),213(r1)	;0x007c(r11), 0x00d5(r1)
    d7e6:	0f 41       	mov	r1,	r15	
    d7e8:	3f 50 12 00 	add	#18,	r15	;#0x0012
    d7ec:	b0 12 a2 49 	call	#0x49a2	
    d7f0:	0c 48       	mov	r8,	r12	
    d7f2:	0d 4f       	mov	r15,	r13	
    d7f4:	0e 41       	mov	r1,	r14	
    d7f6:	3e 50 ba 00 	add	#186,	r14	;#0x00ba
    d7fa:	0f 41       	mov	r1,	r15	
    d7fc:	3f 50 88 00 	add	#136,	r15	;#0x0088
    d800:	b0 12 8c 5f 	call	#0x5f8c	
    d804:	0f 93       	tst	r15		
    d806:	0e 38       	jl	$+30     	;abs 0xd824
    d808:	91 91 c2 00 be 00 	cmp	194(r1),190(r1)	;0x00c2(r1), 0x00be(r1)
    d80e:	06 20       	jnz	$+14     	;abs 0xd81c
    d810:	0f 41       	mov	r1,	r15	
    d812:	3f 50 ba 00 	add	#186,	r15	;#0x00ba
    d816:	b0 12 a8 e6 	call	#0xe6a8	
    d81a:	04 3c       	jmp	$+10     	;abs 0xd824
    d81c:	1f 41 c0 00 	mov	192(r1),r15	;0x00c0(r1)
    d820:	b0 12 ac e9 	call	#0xe9ac	
    d824:	82 4b f0 11 	mov	r11,	&0x11f0	
    d828:	b0 12 04 6a 	call	#0x6a04	
    d82c:	c2 43 e2 12 	mov.b	#0,	&0x12e2	;r3 As==00
    d830:	b0 12 16 6a 	call	#0x6a16	
    d834:	b0 12 92 ba 	call	#0xba92	
    d838:	30 40 cc de 	br	#0xdecc	
    d83c:	d2 92 34 11 2a 15 	cmp.b	&0x1134,&0x152a	
    d842:	02 20       	jnz	$+6      	;abs 0xd848
    d844:	30 40 cc de 	br	#0xdecc	
    d848:	f2 43 34 11 	mov.b	#-1,	&0x1134	;r3 As==11
    d84c:	30 40 cc de 	br	#0xdecc	
    d850:	1f 42 24 15 	mov	&0x1524,r15	
    d854:	5e 4f 88 00 	mov.b	136(r15),r14	;0x0088(r15)
    d858:	8e 10       	swpb	r14		
    d85a:	5d 4f 89 00 	mov.b	137(r15),r13	;0x0089(r15)
    d85e:	0e dd       	bis	r13,	r14	
    d860:	0e 93       	tst	r14		
    d862:	0d 24       	jz	$+28     	;abs 0xd87e
    d864:	5e 4f 01 00 	mov.b	1(r15),	r14	;0x0001(r15)
    d868:	3e d0 20 00 	bis	#32,	r14	;#0x0020
    d86c:	5d 4f 02 00 	mov.b	2(r15),	r13	;0x0002(r15)
    d870:	8d 10       	swpb	r13		
    d872:	0e dd       	bis	r13,	r14	
    d874:	cf 4e 01 00 	mov.b	r14,	1(r15)	;0x0001(r15)
    d878:	8e 10       	swpb	r14		
    d87a:	cf 4e 02 00 	mov.b	r14,	2(r15)	;0x0002(r15)
    d87e:	1f 42 24 15 	mov	&0x1524,r15	
    d882:	b0 12 18 be 	call	#0xbe18	
    d886:	4f 93       	tst.b	r15		
    d888:	02 20       	jnz	$+6      	;abs 0xd88e
    d88a:	30 40 cc de 	br	#0xdecc	
    d88e:	7f 40 1b 00 	mov.b	#27,	r15	;#0x001b
    d892:	30 40 bc dd 	br	#0xddbc	
    d896:	b0 12 2e 8c 	call	#0x8c2e	
    d89a:	b0 12 4c 8e 	call	#0x8e4c	
    d89e:	30 40 cc de 	br	#0xdecc	
    d8a2:	c2 93 a2 11 	tst.b	&0x11a2	
    d8a6:	02 20       	jnz	$+6      	;abs 0xd8ac
    d8a8:	30 40 cc de 	br	#0xdecc	
    d8ac:	c2 93 a0 11 	tst.b	&0x11a0	
    d8b0:	02 20       	jnz	$+6      	;abs 0xd8b6
    d8b2:	30 40 cc de 	br	#0xdecc	
    d8b6:	f1 40 9b ff 9e 00 	mov.b	#-101,	158(r1)	;#0xff9b, 0x009e(r1)
    d8bc:	d1 43 9f 00 	mov.b	#1,	159(r1)	;r3 As==01, 0x009f(r1)
    d8c0:	c1 43 a1 00 	mov.b	#0,	161(r1)	;r3 As==00, 0x00a1(r1)
    d8c4:	c1 43 a0 00 	mov.b	#0,	160(r1)	;r3 As==00, 0x00a0(r1)
    d8c8:	d1 42 9e 11 a2 00 	mov.b	&0x119e,162(r1)	;0x00a2(r1)
    d8ce:	d1 42 9c 11 a3 00 	mov.b	&0x119c,163(r1)	;0x00a3(r1)
    d8d4:	b0 12 f2 69 	call	#0x69f2	
    d8d8:	c1 4f a5 00 	mov.b	r15,	165(r1)	;0x00a5(r1)
    d8dc:	8f 10       	swpb	r15		
    d8de:	c1 4f a4 00 	mov.b	r15,	164(r1)	;0x00a4(r1)
    d8e2:	5e 42 24 11 	mov.b	&0x1124,r14	
    d8e6:	7f 40 07 00 	mov.b	#7,	r15	;#0x0007
    d8ea:	0e 5e       	rla	r14		
    d8ec:	7f 53       	add.b	#-1,	r15	;r3 As==11
    d8ee:	fd 23       	jnz	$-4      	;abs 0xd8ea
    d8f0:	5f 42 23 11 	mov.b	&0x1123,r15	
    d8f4:	0f 5f       	rla	r15		
    d8f6:	0f 5f       	rla	r15		
    d8f8:	0f 5f       	rla	r15		
    d8fa:	4f de       	bis.b	r14,	r15	
    d8fc:	5f d2 22 11 	bis.b	&0x1122,r15	
    d900:	c1 4f a6 00 	mov.b	r15,	166(r1)	;0x00a6(r1)
    d904:	d1 42 18 11 a7 00 	mov.b	&0x1118,167(r1)	;0x00a7(r1)
    d90a:	c1 43 a8 00 	mov.b	#0,	168(r1)	;r3 As==00, 0x00a8(r1)
    d90e:	c1 43 a9 00 	mov.b	#0,	169(r1)	;r3 As==00, 0x00a9(r1)
    d912:	3d 40 10 00 	mov	#16,	r13	;#0x0010
    d916:	3e 40 ba 12 	mov	#4794,	r14	;#0x12ba
    d91a:	0f 41       	mov	r1,	r15	
    d91c:	3f 50 aa 00 	add	#170,	r15	;#0x00aa
    d920:	b0 12 a0 ef 	call	#0xefa0	
    d924:	3d 40 1c 00 	mov	#28,	r13	;#0x001c
    d928:	0e 41       	mov	r1,	r14	
    d92a:	3e 50 9e 00 	add	#158,	r14	;#0x009e
    d92e:	0f 41       	mov	r1,	r15	
    d930:	3f 50 5e 01 	add	#350,	r15	;#0x015e
    d934:	b0 12 96 ed 	call	#0xed96	
    d938:	e1 42 48 00 	mov.b	#4,	72(r1)	;r2 As==10, 0x0048(r1)
    d93c:	f1 40 0e 00 49 00 	mov.b	#14,	73(r1)	;#0x000e, 0x0049(r1)
    d942:	c1 43 4a 00 	mov.b	#0,	74(r1)	;r3 As==00, 0x004a(r1)
    d946:	c1 43 53 00 	mov.b	#0,	83(r1)	;r3 As==00, 0x0053(r1)
    d94a:	c1 43 52 00 	mov.b	#0,	82(r1)	;r3 As==00, 0x0052(r1)
    d94e:	f1 40 06 00 55 00 	mov.b	#6,	85(r1)	;#0x0006, 0x0055(r1)
    d954:	f1 40 10 00 57 00 	mov.b	#16,	87(r1)	;#0x0010, 0x0057(r1)
    d95a:	f1 40 0e 00 56 00 	mov.b	#14,	86(r1)	;#0x000e, 0x0056(r1)
    d960:	d1 42 20 11 4b 00 	mov.b	&0x1120,75(r1)	;0x004b(r1)
    d966:	d1 42 1f 11 4c 00 	mov.b	&0x111f,76(r1)	;0x004c(r1)
    d96c:	d1 42 1e 11 4d 00 	mov.b	&0x111e,77(r1)	;0x004d(r1)
    d972:	1f 42 1a 11 	mov	&0x111a,r15	
    d976:	c1 4f 4f 00 	mov.b	r15,	79(r1)	;0x004f(r1)
    d97a:	8f 10       	swpb	r15		
    d97c:	c1 4f 4e 00 	mov.b	r15,	78(r1)	;0x004e(r1)
    d980:	1f 42 1c 11 	mov	&0x111c,r15	
    d984:	c1 4f 51 00 	mov.b	r15,	81(r1)	;0x0051(r1)
    d988:	8f 10       	swpb	r15		
    d98a:	c1 4f 50 00 	mov.b	r15,	80(r1)	;0x0050(r1)
    d98e:	c1 43 54 00 	mov.b	#0,	84(r1)	;r3 As==00, 0x0054(r1)
    d992:	3d 40 10 00 	mov	#16,	r13	;#0x0010
    d996:	0e 41       	mov	r1,	r14	
    d998:	3e 50 48 00 	add	#72,	r14	;#0x0048
    d99c:	0f 41       	mov	r1,	r15	
    d99e:	3f 50 7a 01 	add	#378,	r15	;#0x017a
    d9a2:	b0 12 96 ed 	call	#0xed96	
    d9a6:	c2 93 a4 11 	tst.b	&0x11a4	
    d9aa:	33 20       	jnz	$+104    	;abs 0xda12
    d9ac:	e1 43 02 00 	mov.b	#2,	2(r1)	;r3 As==10, 0x0002(r1)
    d9b0:	f1 40 06 00 03 00 	mov.b	#6,	3(r1)	;#0x0006, 0x0003(r1)
    d9b6:	f1 40 07 00 0a 00 	mov.b	#7,	10(r1)	;#0x0007, 0x000a(r1)
    d9bc:	c1 43 0b 00 	mov.b	#0,	11(r1)	;r3 As==00, 0x000b(r1)
    d9c0:	c1 43 0c 00 	mov.b	#0,	12(r1)	;r3 As==00, 0x000c(r1)
    d9c4:	e1 43 0d 00 	mov.b	#2,	13(r1)	;r3 As==10, 0x000d(r1)
    d9c8:	1f 42 04 11 	mov	&0x1104,r15	
    d9cc:	c1 4f 01 00 	mov.b	r15,	1(r1)	;0x0001(r1)
    d9d0:	8f 10       	swpb	r15		
    d9d2:	c1 4f 00 00 	mov.b	r15,	0(r1)	;0x0000(r1)
    d9d6:	2d 43       	mov	#2,	r13	;r3 As==10
    d9d8:	0e 41       	mov	r1,	r14	
    d9da:	2e 53       	incd	r14		
    d9dc:	0f 41       	mov	r1,	r15	
    d9de:	3f 50 8a 01 	add	#394,	r15	;#0x018a
    d9e2:	b0 12 96 ed 	call	#0xed96	
    d9e6:	2d 42       	mov	#4,	r13	;r2 As==10
    d9e8:	0e 41       	mov	r1,	r14	
    d9ea:	3e 50 0a 00 	add	#10,	r14	;#0x000a
    d9ee:	0f 41       	mov	r1,	r15	
    d9f0:	3f 50 8c 01 	add	#396,	r15	;#0x018c
    d9f4:	b0 12 96 ed 	call	#0xed96	
    d9f8:	2d 43       	mov	#2,	r13	;r3 As==10
    d9fa:	0e 41       	mov	r1,	r14	
    d9fc:	0f 41       	mov	r1,	r15	
    d9fe:	3f 50 90 01 	add	#400,	r15	;#0x0190
    da02:	b0 12 96 ed 	call	#0xed96	
    da06:	0a 41       	mov	r1,	r10	
    da08:	3a 50 92 01 	add	#402,	r10	;#0x0192
    da0c:	3b 40 34 00 	mov	#52,	r11	;#0x0034
    da10:	05 3c       	jmp	$+12     	;abs 0xda1c
    da12:	0a 41       	mov	r1,	r10	
    da14:	3a 50 8a 01 	add	#394,	r10	;#0x018a
    da18:	3b 40 2c 00 	mov	#44,	r11	;#0x002c
    da1c:	c2 93 e0 11 	tst.b	&0x11e0	
    da20:	32 24       	jz	$+102    	;abs 0xda86
    da22:	f1 42 d6 00 	mov.b	#8,	214(r1)	;r2 As==11, 0x00d6(r1)
    da26:	f1 40 1e 00 d7 00 	mov.b	#30,	215(r1)	;#0x001e, 0x00d7(r1)
    da2c:	d1 42 ea 11 d8 00 	mov.b	&0x11ea,216(r1)	;0x00d8(r1)
    da32:	f1 40 40 00 d9 00 	mov.b	#64,	217(r1)	;#0x0040, 0x00d9(r1)
    da38:	f1 43 dd 00 	mov.b	#-1,	221(r1)	;r3 As==11, 0x00dd(r1)
    da3c:	f1 43 dc 00 	mov.b	#-1,	220(r1)	;r3 As==11, 0x00dc(r1)
    da40:	f1 43 db 00 	mov.b	#-1,	219(r1)	;r3 As==11, 0x00db(r1)
    da44:	f1 43 da 00 	mov.b	#-1,	218(r1)	;r3 As==11, 0x00da(r1)
    da48:	f1 43 e1 00 	mov.b	#-1,	225(r1)	;r3 As==11, 0x00e1(r1)
    da4c:	f1 43 e0 00 	mov.b	#-1,	224(r1)	;r3 As==11, 0x00e0(r1)
    da50:	f1 43 df 00 	mov.b	#-1,	223(r1)	;r3 As==11, 0x00df(r1)
    da54:	f1 43 de 00 	mov.b	#-1,	222(r1)	;r3 As==11, 0x00de(r1)
    da58:	81 43 e2 00 	mov	#0,	226(r1)	;r3 As==00, 0x00e2(r1)
    da5c:	81 43 e4 00 	mov	#0,	228(r1)	;r3 As==00, 0x00e4(r1)
    da60:	3d 40 10 00 	mov	#16,	r13	;#0x0010
    da64:	3e 40 9c 12 	mov	#4764,	r14	;#0x129c
    da68:	0f 41       	mov	r1,	r15	
    da6a:	3f 50 e6 00 	add	#230,	r15	;#0x00e6
    da6e:	b0 12 a0 ef 	call	#0xefa0	
    da72:	3d 40 20 00 	mov	#32,	r13	;#0x0020
    da76:	0e 41       	mov	r1,	r14	
    da78:	3e 50 d6 00 	add	#214,	r14	;#0x00d6
    da7c:	0f 4a       	mov	r10,	r15	
    da7e:	b0 12 96 ed 	call	#0xed96	
    da82:	3b 50 20 00 	add	#32,	r11	;#0x0020
    da86:	0a 41       	mov	r1,	r10	
    da88:	3a 50 5e 01 	add	#350,	r10	;#0x015e
    da8c:	81 4a 22 00 	mov	r10,	34(r1)	;0x0022(r1)
    da90:	81 4b 24 00 	mov	r11,	36(r1)	;0x0024(r1)
    da94:	81 43 26 00 	mov	#0,	38(r1)	;r3 As==00, 0x0026(r1)
    da98:	f1 40 3a 00 2c 01 	mov.b	#58,	300(r1)	;#0x003a, 0x012c(r1)
    da9e:	0f 4b       	mov	r11,	r15	
    daa0:	8f 10       	swpb	r15		
    daa2:	4f 4f       	mov.b	r15,	r15	
    daa4:	4b 4b       	mov.b	r11,	r11	
    daa6:	8b 10       	swpb	r11		
    daa8:	0b df       	bis	r15,	r11	
    daaa:	81 4b 2a 01 	mov	r11,	298(r1)	;0x012a(r1)
    daae:	0e 41       	mov	r1,	r14	
    dab0:	3e 50 22 00 	add	#34,	r14	;#0x0022
    dab4:	81 4e 24 01 	mov	r14,	292(r1)	;0x0124(r1)
    dab8:	c2 93 98 11 	tst.b	&0x1198	
    dabc:	07 24       	jz	$+16     	;abs 0xdacc
    dabe:	c2 43 98 11 	mov.b	#0,	&0x1198	;r3 As==00
    dac2:	3d 40 10 00 	mov	#16,	r13	;#0x0010
    dac6:	3e 40 68 24 	mov	#9320,	r14	;#0x2468
    daca:	04 3c       	jmp	$+10     	;abs 0xdad4
    dacc:	3d 40 10 00 	mov	#16,	r13	;#0x0010
    dad0:	3e 40 fa 11 	mov	#4602,	r14	;#0x11fa
    dad4:	0f 41       	mov	r1,	r15	
    dad6:	3f 50 3e 01 	add	#318,	r15	;#0x013e
    dada:	b0 12 a0 ef 	call	#0xefa0	
    dade:	0f 41       	mov	r1,	r15	
    dae0:	3f 50 2e 01 	add	#302,	r15	;#0x012e
    dae4:	b0 12 8c 7c 	call	#0x7c8c	
    dae8:	0f 41       	mov	r1,	r15	
    daea:	3f 50 22 01 	add	#290,	r15	;#0x0122
    daee:	b0 12 ec a3 	call	#0xa3ec	
    daf2:	30 40 cc de 	br	#0xdecc	
    daf6:	c2 93 a2 11 	tst.b	&0x11a2	
    dafa:	02 20       	jnz	$+6      	;abs 0xdb00
    dafc:	30 40 cc de 	br	#0xdecc	
    db00:	f1 40 9b ff 16 00 	mov.b	#-101,	22(r1)	;#0xff9b, 0x0016(r1)
    db06:	c1 43 17 00 	mov.b	#0,	23(r1)	;r3 As==00, 0x0017(r1)
    db0a:	c1 43 19 00 	mov.b	#0,	25(r1)	;r3 As==00, 0x0019(r1)
    db0e:	c1 43 18 00 	mov.b	#0,	24(r1)	;r3 As==00, 0x0018(r1)
    db12:	c1 43 1a 00 	mov.b	#0,	26(r1)	;r3 As==00, 0x001a(r1)
    db16:	c1 43 1b 00 	mov.b	#0,	27(r1)	;r3 As==00, 0x001b(r1)
    db1a:	f1 40 3a 00 68 01 	mov.b	#58,	360(r1)	;#0x003a, 0x0168(r1)
    db20:	b1 40 00 06 66 01 	mov	#1536,	358(r1)	;#0x0600, 0x0166(r1)
    db26:	0f 41       	mov	r1,	r15	
    db28:	3f 50 16 00 	add	#22,	r15	;#0x0016
    db2c:	81 4f 22 00 	mov	r15,	34(r1)	;0x0022(r1)
    db30:	b1 40 06 00 24 00 	mov	#6,	36(r1)	;#0x0006, 0x0024(r1)
    db36:	81 43 26 00 	mov	#0,	38(r1)	;r3 As==00, 0x0026(r1)
    db3a:	0a 41       	mov	r1,	r10	
    db3c:	3a 50 22 00 	add	#34,	r10	;#0x0022
    db40:	81 4a 60 01 	mov	r10,	352(r1)	;0x0160(r1)
    db44:	3d 40 10 00 	mov	#16,	r13	;#0x0010
    db48:	3e 40 fa 11 	mov	#4602,	r14	;#0x11fa
    db4c:	3f 50 64 01 	add	#356,	r15	;#0x0164
    db50:	b0 12 a0 ef 	call	#0xefa0	
    db54:	0f 41       	mov	r1,	r15	
    db56:	3f 50 6a 01 	add	#362,	r15	;#0x016a
    db5a:	b0 12 8c 7c 	call	#0x7c8c	
    db5e:	0f 41       	mov	r1,	r15	
    db60:	3f 50 5e 01 	add	#350,	r15	;#0x015e
    db64:	c4 3f       	jmp	$-118    	;abs 0xdaee
    db66:	e2 43 23 11 	mov.b	#2,	&0x1123	;r3 As==10
    db6a:	92 42 1c 11 7c 11 	mov	&0x111c,&0x117c	
    db70:	3d 40 10 00 	mov	#16,	r13	;#0x0010
    db74:	0e 43       	clr	r14		
    db76:	3f 40 fa 11 	mov	#4602,	r15	;#0x11fa
    db7a:	b0 12 94 f1 	call	#0xf194	
    db7e:	f2 43 fa 11 	mov.b	#-1,	&0x11fa	;r3 As==11
    db82:	e2 43 fb 11 	mov.b	#2,	&0x11fb	;r3 As==10
    db86:	f2 40 1a 00 09 12 	mov.b	#26,	&0x1209	;#0x001a
    db8c:	c2 93 a6 11 	tst.b	&0x11a6	
    db90:	08 24       	jz	$+18     	;abs 0xdba2
    db92:	3f 40 ba 12 	mov	#4794,	r15	;#0x12ba
    db96:	b0 12 3a 48 	call	#0x483a	
    db9a:	7f 40 20 00 	mov.b	#32,	r15	;#0x0020
    db9e:	30 40 bc dd 	br	#0xddbc	
    dba2:	3d 40 00 0c 	mov	#3072,	r13	;#0x0c00
    dba6:	0e 43       	clr	r14		
    dba8:	7f 40 05 00 	mov.b	#5,	r15	;#0x0005
    dbac:	b0 12 ca 90 	call	#0x90ca	
    dbb0:	30 40 cc de 	br	#0xdecc	
    dbb4:	c2 93 a6 11 	tst.b	&0x11a6	
    dbb8:	02 20       	jnz	$+6      	;abs 0xdbbe
    dbba:	30 40 cc de 	br	#0xdecc	
    dbbe:	b0 12 d0 8b 	call	#0x8bd0	
    dbc2:	30 40 cc de 	br	#0xdecc	
    dbc6:	1d 42 6c 12 	mov	&0x126c,r13	
    dbca:	1e 42 6e 12 	mov	&0x126e,r14	
    dbce:	1d 82 64 24 	sub	&0x2464,r13	
    dbd2:	1e 72 66 24 	subc	&0x2466,r14	
    dbd6:	d2 43 a8 11 	mov.b	#1,	&0x11a8	;r3 As==01
    dbda:	6f 42       	mov.b	#4,	r15	;r2 As==10
    dbdc:	96 3c       	jmp	$+302    	;abs 0xdd0a
    dbde:	c2 93 a0 11 	tst.b	&0x11a0	
    dbe2:	02 20       	jnz	$+6      	;abs 0xdbe8
    dbe4:	30 40 cc de 	br	#0xdecc	
    dbe8:	b0 12 f2 69 	call	#0x69f2	
    dbec:	1f 92 7c 11 	cmp	&0x117c,r15	
    dbf0:	02 20       	jnz	$+6      	;abs 0xdbf6
    dbf2:	30 40 cc de 	br	#0xdecc	
    dbf6:	b0 12 4c 48 	call	#0x484c	
    dbfa:	0b 4f       	mov	r15,	r11	
    dbfc:	0f 93       	tst	r15		
    dbfe:	02 20       	jnz	$+6      	;abs 0xdc04
    dc00:	30 40 cc de 	br	#0xdecc	
    dc04:	ff 40 9b ff 2c 00 	mov.b	#-101,	44(r15)	;#0xff9b, 0x002c(r15)
    dc0a:	ef 43 2d 00 	mov.b	#2,	45(r15)	;r3 As==10, 0x002d(r15)
    dc0e:	cf 43 2f 00 	mov.b	#0,	47(r15)	;r3 As==00, 0x002f(r15)
    dc12:	cf 43 2e 00 	mov.b	#0,	46(r15)	;r3 As==00, 0x002e(r15)
    dc16:	df 42 9e 11 30 00 	mov.b	&0x119e,48(r15)	;0x0030(r15)
    dc1c:	ff 40 40 00 31 00 	mov.b	#64,	49(r15)	;#0x0040, 0x0031(r15)
    dc22:	cf 43 32 00 	mov.b	#0,	50(r15)	;r3 As==00, 0x0032(r15)
    dc26:	df 42 94 11 33 00 	mov.b	&0x1194,51(r15)	;0x0033(r15)
    dc2c:	3d 40 10 00 	mov	#16,	r13	;#0x0010
    dc30:	3e 40 ba 12 	mov	#4794,	r14	;#0x12ba
    dc34:	3f 50 34 00 	add	#52,	r15	;#0x0034
    dc38:	b0 12 a0 ef 	call	#0xefa0	
    dc3c:	fb 40 05 00 44 00 	mov.b	#5,	68(r11)	;#0x0005, 0x0044(r11)
    dc42:	fb 40 12 00 45 00 	mov.b	#18,	69(r11)	;#0x0012, 0x0045(r11)
    dc48:	cb 43 46 00 	mov.b	#0,	70(r11)	;r3 As==00, 0x0046(r11)
    dc4c:	fb 40 80 ff 47 00 	mov.b	#-128,	71(r11)	;#0xff80, 0x0047(r11)
    dc52:	0f 4b       	mov	r11,	r15	
    dc54:	3f 50 48 00 	add	#72,	r15	;#0x0048
    dc58:	b0 12 3a 48 	call	#0x483a	
    dc5c:	fb 40 06 00 58 00 	mov.b	#6,	88(r11)	;#0x0006, 0x0058(r11)
    dc62:	fb 40 14 00 59 00 	mov.b	#20,	89(r11)	;#0x0014, 0x0059(r11)
    dc68:	cb 43 5a 00 	mov.b	#0,	90(r11)	;r3 As==00, 0x005a(r11)
    dc6c:	db 42 90 11 5b 00 	mov.b	&0x1190,91(r11)	;0x005b(r11)
    dc72:	db 42 92 11 5c 00 	mov.b	&0x1192,92(r11)	;0x005c(r11)
    dc78:	fb 40 cc ff 5d 00 	mov.b	#-52,	93(r11)	;#0xffcc, 0x005d(r11)
    dc7e:	c2 93 b2 11 	tst.b	&0x11b2	
    dc82:	96 24       	jz	$+302    	;abs 0xddb0
    dc84:	5f 42 06 11 	mov.b	&0x1106,r15	
    dc88:	02 12       	push	r2		
    dc8a:	32 c2       	dint			
    dc8c:	03 43       	nop			
    dc8e:	82 4f 32 01 	mov	r15,	&0x0132	
    dc92:	b2 40 18 00 38 01 	mov	#24,	&0x0138	;#0x0018
    dc98:	1e 42 3a 01 	mov	&0x013a,r14	
    dc9c:	32 41       	pop	r2		
    dc9e:	3d 40 10 00 	mov	#16,	r13	;#0x0010
    dca2:	3e 50 e8 12 	add	#4840,	r14	;#0x12e8
    dca6:	0f 4b       	mov	r11,	r15	
    dca8:	3f 50 5e 00 	add	#94,	r15	;#0x005e
    dcac:	b0 12 96 ed 	call	#0xed96	
    dcb0:	0e 4b       	mov	r11,	r14	
    dcb2:	3e 50 2c 00 	add	#44,	r14	;#0x002c
    dcb6:	8b 4e 6e 00 	mov	r14,	110(r11);0x006e(r11)
    dcba:	bb 40 42 00 70 00 	mov	#66,	112(r11);#0x0042, 0x0070(r11)
    dcc0:	8b 43 72 00 	mov	#0,	114(r11);r3 As==00, 0x0072(r11)
    dcc4:	fb 40 60 00 04 00 	mov.b	#96,	4(r11)	;#0x0060, 0x0004(r11)
    dcca:	fb 40 3a 00 0a 00 	mov.b	#58,	10(r11)	;#0x003a, 0x000a(r11)
    dcd0:	bb 40 00 42 08 00 	mov	#16896,	8(r11)	;#0x4200, 0x0008(r11)
    dcd6:	0f 4b       	mov	r11,	r15	
    dcd8:	3f 50 6e 00 	add	#110,	r15	;#0x006e
    dcdc:	8b 4f 02 00 	mov	r15,	2(r11)	;0x0002(r11)
    dce0:	f2 90 05 00 86 11 	cmp.b	#5,	&0x1186	;#0x0005
    dce6:	64 2c       	jc	$+202    	;abs 0xddb0
    dce8:	0f 4b       	mov	r11,	r15	
    dcea:	b0 12 d6 58 	call	#0x58d6	
    dcee:	4f 93       	tst.b	r15		
    dcf0:	5f 20       	jnz	$+192    	;abs 0xddb0
    dcf2:	e2 b3 ca 1b 	bit.b	#2,	&0x1bca	;r3 As==10
    dcf6:	0f 43       	clr	r15		
    dcf8:	0f 6f       	rlc	r15		
    dcfa:	4f 93       	tst.b	r15		
    dcfc:	e7 20       	jnz	$+464    	;abs 0xdecc
    dcfe:	1d 42 10 11 	mov	&0x1110,r13	
    dd02:	1e 42 12 11 	mov	&0x1112,r14	
    dd06:	7f 40 07 00 	mov.b	#7,	r15	;#0x0007
    dd0a:	b0 12 3a 8b 	call	#0x8b3a	
    dd0e:	de 3c       	jmp	$+446    	;abs 0xdecc
    dd10:	b0 12 f2 69 	call	#0x69f2	
    dd14:	1f 92 7c 11 	cmp	&0x117c,r15	
    dd18:	d9 24       	jz	$+436    	;abs 0xdecc
    dd1a:	5e 42 86 11 	mov.b	&0x1186,r14	
    dd1e:	4e 93       	tst.b	r14		
    dd20:	d5 24       	jz	$+428    	;abs 0xdecc
    dd22:	c2 93 23 11 	tst.b	&0x1123	
    dd26:	d2 24       	jz	$+422    	;abs 0xdecc
    dd28:	5d 42 8a 11 	mov.b	&0x118a,r13	
    dd2c:	4f 4d       	mov.b	r13,	r15	
    dd2e:	0f 5f       	rla	r15		
    dd30:	1b 4f c2 1c 	mov	7362(r15),r11	;0x1cc2(r15)
    dd34:	4f 4d       	mov.b	r13,	r15	
    dd36:	5f 53       	inc.b	r15		
    dd38:	c2 4f 8a 11 	mov.b	r15,	&0x118a	
    dd3c:	7f 90 05 00 	cmp.b	#5,	r15	;#0x0005
    dd40:	02 20       	jnz	$+6      	;abs 0xdd46
    dd42:	c2 43 8a 11 	mov.b	#0,	&0x118a	;r3 As==00
    dd46:	7e 53       	add.b	#-1,	r14	;r3 As==11
    dd48:	c2 4e 86 11 	mov.b	r14,	&0x1186	
    dd4c:	0f 4b       	mov	r11,	r15	
    dd4e:	3f 50 0c 00 	add	#12,	r15	;#0x000c
    dd52:	b0 12 8c 7c 	call	#0x7c8c	
    dd56:	c2 93 b2 11 	tst.b	&0x11b2	
    dd5a:	2a 24       	jz	$+86     	;abs 0xddb0
    dd5c:	5f 42 06 11 	mov.b	&0x1106,r15	
    dd60:	02 12       	push	r2		
    dd62:	32 c2       	dint			
    dd64:	03 43       	nop			
    dd66:	82 4f 32 01 	mov	r15,	&0x0132	
    dd6a:	b2 40 18 00 38 01 	mov	#24,	&0x0138	;#0x0018
    dd70:	1e 42 3a 01 	mov	&0x013a,r14	
    dd74:	32 41       	pop	r2		
    dd76:	3d 40 10 00 	mov	#16,	r13	;#0x0010
    dd7a:	3e 50 e8 12 	add	#4840,	r14	;#0x12e8
    dd7e:	0f 41       	mov	r1,	r15	
    dd80:	3f 50 58 00 	add	#88,	r15	;#0x0058
    dd84:	b0 12 96 ed 	call	#0xed96	
    dd88:	3d 40 10 00 	mov	#16,	r13	;#0x0010
    dd8c:	0e 41       	mov	r1,	r14	
    dd8e:	3e 50 58 00 	add	#88,	r14	;#0x0058
    dd92:	0f 4b       	mov	r11,	r15	
    dd94:	3f 50 1c 00 	add	#28,	r15	;#0x001c
    dd98:	b0 12 96 ed 	call	#0xed96	
    dd9c:	0f 4b       	mov	r11,	r15	
    dd9e:	b0 12 ec a3 	call	#0xa3ec	
    dda2:	0f 4b       	mov	r11,	r15	
    dda4:	b0 12 a6 58 	call	#0x58a6	
    dda8:	c2 93 86 11 	tst.b	&0x1186	
    ddac:	8f 24       	jz	$+288    	;abs 0xdecc
    ddae:	04 3c       	jmp	$+10     	;abs 0xddb8
    ddb0:	0f 4b       	mov	r11,	r15	
    ddb2:	b0 12 a6 58 	call	#0x58a6	
    ddb6:	8a 3c       	jmp	$+278    	;abs 0xdecc
    ddb8:	7f 40 23 00 	mov.b	#35,	r15	;#0x0023
    ddbc:	b0 12 14 6b 	call	#0x6b14	
    ddc0:	85 3c       	jmp	$+268    	;abs 0xdecc
    ddc2:	1e 42 10 12 	mov	&0x1210,r14	
    ddc6:	f2 90 09 00 36 1c 	cmp.b	#9,	&0x1c36	;#0x0009
    ddcc:	02 24       	jz	$+6      	;abs 0xddd2
    ddce:	30 40 b8 c7 	br	#0xc7b8	
    ddd2:	30 40 7e c7 	br	#0xc77e	
    ddd6:	0a 4f       	mov	r15,	r10	
    ddd8:	06 4f       	mov	r15,	r6	
    ddda:	0d 4f       	mov	r15,	r13	
    dddc:	8d 10       	swpb	r13		
    ddde:	8d 11       	sxt	r13		
    dde0:	8d 10       	swpb	r13		
    dde2:	8d 11       	sxt	r13		
    dde4:	07 4d       	mov	r13,	r7	
    dde6:	0e 49       	mov	r9,	r14	
    dde8:	0d 49       	mov	r9,	r13	
    ddea:	8d 10       	swpb	r13		
    ddec:	8d 11       	sxt	r13		
    ddee:	8d 10       	swpb	r13		
    ddf0:	8d 11       	sxt	r13		
    ddf2:	0f 4d       	mov	r13,	r15	
    ddf4:	06 8e       	sub	r14,	r6	
    ddf6:	07 7f       	subc	r15,	r7	
    ddf8:	c9 44 00 00 	mov.b	r4,	0(r9)	;0x0000(r9)
    ddfc:	c9 48 01 00 	mov.b	r8,	1(r9)	;0x0001(r9)
    de00:	0f 46       	mov	r6,	r15	
    de02:	8f 10       	swpb	r15		
    de04:	c9 4f 02 00 	mov.b	r15,	2(r9)	;0x0002(r9)
    de08:	c9 46 03 00 	mov.b	r6,	3(r9)	;0x0003(r9)
    de0c:	0e 4a       	mov	r10,	r14	
    de0e:	1f 41 08 00 	mov	8(r1),	r15	;0x0008(r1)
    de12:	b0 12 de 93 	call	#0x93de	
    de16:	4e 4f       	mov.b	r15,	r14	
    de18:	4f 93       	tst.b	r15		
    de1a:	02 20       	jnz	$+6      	;abs 0xde20
    de1c:	30 40 e6 c2 	br	#0xc2e6	
    de20:	30 40 1c c6 	br	#0xc61c	
    de24:	04 4f       	mov	r15,	r4	
    de26:	47 48       	mov.b	r8,	r7	
    de28:	08 4f       	mov	r15,	r8	
    de2a:	0d 4f       	mov	r15,	r13	
    de2c:	8d 10       	swpb	r13		
    de2e:	8d 11       	sxt	r13		
    de30:	8d 10       	swpb	r13		
    de32:	8d 11       	sxt	r13		
    de34:	09 4d       	mov	r13,	r9	
    de36:	0a 46       	mov	r6,	r10	
    de38:	0d 46       	mov	r6,	r13	
    de3a:	8d 10       	swpb	r13		
    de3c:	8d 11       	sxt	r13		
    de3e:	8d 10       	swpb	r13		
    de40:	8d 11       	sxt	r13		
    de42:	0b 4d       	mov	r13,	r11	
    de44:	08 8a       	sub	r10,	r8	
    de46:	09 7b       	subc	r11,	r9	
    de48:	c6 47 00 00 	mov.b	r7,	0(r6)	;0x0000(r6)
    de4c:	d6 41 d8 01 01 00 	mov.b	472(r1),1(r6)	;0x01d8(r1), 0x0001(r6)
    de52:	0d 48       	mov	r8,	r13	
    de54:	8d 10       	swpb	r13		
    de56:	c6 4d 02 00 	mov.b	r13,	2(r6)	;0x0002(r6)
    de5a:	c6 48 03 00 	mov.b	r8,	3(r6)	;0x0003(r6)
    de5e:	0e 4f       	mov	r15,	r14	
    de60:	1f 41 08 00 	mov	8(r1),	r15	;0x0008(r1)
    de64:	b0 12 de 93 	call	#0x93de	
    de68:	4e 4f       	mov.b	r15,	r14	
    de6a:	4f 93       	tst.b	r15		
    de6c:	02 20       	jnz	$+6      	;abs 0xde72
    de6e:	30 40 f6 c5 	br	#0xc5f6	
    de72:	30 40 1c c6 	br	#0xc61c	
    de76:	5a 43       	mov.b	#1,	r10	;r3 As==01
    de78:	30 40 de ca 	br	#0xcade	
    de7c:	7a 40 05 00 	mov.b	#5,	r10	;#0x0005
    de80:	30 40 de ca 	br	#0xcade	
    de84:	d2 43 78 1c 	mov.b	#1,	&0x1c78	;r3 As==01
    de88:	21 3c       	jmp	$+68     	;abs 0xdecc
    de8a:	81 49 14 00 	mov	r9,	20(r1)	;0x0014(r1)
    de8e:	47 48       	mov.b	r8,	r7	
    de90:	c1 48 13 00 	mov.b	r8,	19(r1)	;0x0013(r1)
    de94:	0f 41       	mov	r1,	r15	
    de96:	3f 50 12 00 	add	#18,	r15	;#0x0012
    de9a:	b0 12 c0 49 	call	#0x49c0	
    de9e:	4e 4f       	mov.b	r15,	r14	
    dea0:	c1 4f 12 00 	mov.b	r15,	18(r1)	;0x0012(r1)
    dea4:	7e 90 10 00 	cmp.b	#16,	r14	;#0x0010
    dea8:	02 24       	jz	$+6      	;abs 0xdeae
    deaa:	30 40 68 d6 	br	#0xd668	
    deae:	30 40 24 d8 	br	#0xd824	
    deb2:	e2 42 d6 14 	mov.b	#4,	&0x14d6	;r2 As==10
    deb6:	b0 12 16 6a 	call	#0x6a16	
    deba:	6f 42       	mov.b	#4,	r15	;r2 As==10
    debc:	b0 12 14 6b 	call	#0x6b14	
    dec0:	30 40 ce c7 	br	#0xc7ce	
    dec4:	39 40 9a 15 	mov	#5530,	r9	;#0x159a
    dec8:	30 40 b2 ca 	br	#0xcab2	
    decc:	31 50 e6 01 	add	#486,	r1	;#0x01e6
    ded0:	34 41       	pop	r4		
    ded2:	35 41       	pop	r5		
    ded4:	36 41       	pop	r6		
    ded6:	37 41       	pop	r7		
    ded8:	38 41       	pop	r8		
    deda:	39 41       	pop	r9		
    dedc:	3a 41       	pop	r10		
    dede:	3b 41       	pop	r11		
    dee0:	30 41       	ret			

0000dee2 <RealMainP__Scheduler__runNextTask>:
    dee2:	f2 93 61 24 	cmp.b	#-1,	&0x2461	;r3 As==11
    dee6:	08 24       	jz	$+18     	;abs 0xdef8
    dee8:	b0 12 22 58 	call	#0x5822	
    deec:	7f 93       	cmp.b	#-1,	r15	;r3 As==11
    deee:	06 24       	jz	$+14     	;abs 0xdefc
    def0:	b0 12 e2 be 	call	#0xbee2	
    def4:	5f 43       	mov.b	#1,	r15	;r3 As==01
    def6:	30 41       	ret			
    def8:	4f 43       	clr.b	r15		
    defa:	30 41       	ret			
    defc:	4f 43       	clr.b	r15		
    defe:	30 41       	ret			

0000df00 <Msp430TimerP__1__Event__fired>:
    df00:	0b 12       	push	r11		
    df02:	0a 12       	push	r10		
    df04:	09 12       	push	r9		
    df06:	08 12       	push	r8		
    df08:	07 12       	push	r7		
    df0a:	7f 92       	cmp.b	#8,	r15	;r2 As==11
    df0c:	02 28       	jnc	$+6      	;abs 0xdf12
    df0e:	30 40 0c e3 	br	#0xe30c	
    df12:	4f 4f       	mov.b	r15,	r15	
    df14:	0f 5f       	rla	r15		
    df16:	10 4f de f2 	br	-3362(r15)	;0xf2de(r15)
    df1a:	1f 42 82 01 	mov	&0x0182,r15	
    df1e:	8f 10       	swpb	r15		
    df20:	5f f3       	and.b	#1,	r15	;r3 As==01
    df22:	04 24       	jz	$+10     	;abs 0xdf2c
    df24:	1f 42 92 01 	mov	&0x0192,r15	
    df28:	30 40 0c e3 	br	#0xe30c	
    df2c:	b2 f0 ef ff 82 01 	and	#-17,	&0x0182	;#0xffef
    df32:	82 93 34 15 	tst	&0x1534	
    df36:	31 20       	jnz	$+100    	;abs 0xdf9a
    df38:	82 93 36 15 	tst	&0x1536	
    df3c:	2e 20       	jnz	$+94     	;abs 0xdf9a
    df3e:	d2 43 a6 1c 	mov.b	#1,	&0x1ca6	;r3 As==01
    df42:	3b 40 a4 1c 	mov	#7332,	r11	;#0x1ca4
    df46:	3a 40 94 1c 	mov	#7316,	r10	;#0x1c94
    df4a:	47 43       	clr.b	r7		
    df4c:	cb 93 00 00 	tst.b	0(r11)		;0x0000(r11)
    df50:	19 24       	jz	$+52     	;abs 0xdf84
    df52:	28 4a       	mov	@r10,	r8	
    df54:	19 4a 02 00 	mov	2(r10),	r9	;0x0002(r10)
    df58:	b0 12 c4 88 	call	#0x88c4	
    df5c:	0e 88       	sub	r8,	r14	
    df5e:	0f 79       	subc	r9,	r15	
    df60:	1f 9a 06 00 	cmp	6(r10),	r15	;0x0006(r10)
    df64:	0f 28       	jnc	$+32     	;abs 0xdf84
    df66:	03 20       	jnz	$+8      	;abs 0xdf6e
    df68:	1e 9a 04 00 	cmp	4(r10),	r14	;0x0004(r10)
    df6c:	0b 28       	jnc	$+24     	;abs 0xdf84
    df6e:	cb 43 00 00 	mov.b	#0,	0(r11)	;r3 As==00, 0x0000(r11)
    df72:	57 93       	cmp.b	#1,	r7	;r3 As==01
    df74:	03 24       	jz	$+8      	;abs 0xdf7c
    df76:	7f 40 07 00 	mov.b	#7,	r15	;#0x0007
    df7a:	02 3c       	jmp	$+6      	;abs 0xdf80
    df7c:	7f 40 09 00 	mov.b	#9,	r15	;#0x0009
    df80:	b0 12 14 6b 	call	#0x6b14	
    df84:	57 53       	inc.b	r7		
    df86:	1b 53       	inc	r11		
    df88:	3a 52       	add	#8,	r10	;r2 As==11
    df8a:	67 93       	cmp.b	#2,	r7	;r3 As==10
    df8c:	df 23       	jnz	$-64     	;abs 0xdf4c
    df8e:	c2 43 a6 1c 	mov.b	#0,	&0x1ca6	;r3 As==00
    df92:	b0 12 36 8a 	call	#0x8a36	
    df96:	30 40 0c e3 	br	#0xe30c	
    df9a:	b0 12 40 89 	call	#0x8940	
    df9e:	30 40 0c e3 	br	#0xe30c	
    dfa2:	1f 42 84 01 	mov	&0x0184,r15	
    dfa6:	8f 10       	swpb	r15		
    dfa8:	5f f3       	and.b	#1,	r15	;r3 As==01
    dfaa:	02 20       	jnz	$+6      	;abs 0xdfb0
    dfac:	30 40 0c e3 	br	#0xe30c	
    dfb0:	18 42 94 01 	mov	&0x0194,r8	
    dfb4:	b2 f0 fe ff 84 01 	and	#-2,	&0x0184	;#0xfffe
    dfba:	b2 f0 fd ff 84 01 	and	#-3,	&0x0184	;#0xfffd
    dfc0:	b0 12 7c 70 	call	#0x707c	
    dfc4:	0c 4e       	mov	r14,	r12	
    dfc6:	0c 88       	sub	r8,	r12	
    dfc8:	0d 43       	clr	r13		
    dfca:	0a 4e       	mov	r14,	r10	
    dfcc:	0b 4f       	mov	r15,	r11	
    dfce:	0a 8c       	sub	r12,	r10	
    dfd0:	0b 7d       	subc	r13,	r11	
    dfd2:	1f 42 c2 11 	mov	&0x11c2,r15	
    dfd6:	3f 90 05 00 	cmp	#5,	r15	;#0x0005
    dfda:	04 24       	jz	$+10     	;abs 0xdfe4
    dfdc:	3f 90 06 00 	cmp	#6,	r15	;#0x0006
    dfe0:	91 20       	jnz	$+292    	;abs 0xe104
    dfe2:	6f 3c       	jmp	$+224    	;abs 0xe0c2
    dfe4:	b2 40 06 00 c2 11 	mov	#6,	&0x11c2	;#0x0006
    dfea:	d2 43 d4 12 	mov.b	#1,	&0x12d4	;r3 As==01
    dfee:	c2 43 c0 11 	mov.b	#0,	&0x11c0	;r3 As==00
    dff2:	6f 43       	mov.b	#2,	r15	;r3 As==10
    dff4:	b0 12 ea 4a 	call	#0x4aea	
    dff8:	1f 42 d8 14 	mov	&0x14d8,r15	
    dffc:	cf 4a 85 00 	mov.b	r10,	133(r15);0x0085(r15)
    e000:	0e 4a       	mov	r10,	r14	
    e002:	0d 4b       	mov	r11,	r13	
    e004:	8e 10       	swpb	r14		
    e006:	8d 10       	swpb	r13		
    e008:	4e ed       	xor.b	r13,	r14	
    e00a:	0e ed       	xor	r13,	r14	
    e00c:	cf 4e 84 00 	mov.b	r14,	132(r15);0x0084(r15)
    e010:	0e 4b       	mov	r11,	r14	
    e012:	cf 4b 83 00 	mov.b	r11,	131(r15);0x0083(r15)
    e016:	8e 10       	swpb	r14		
    e018:	cf 4e 82 00 	mov.b	r14,	130(r15);0x0082(r15)
    e01c:	cf 93 81 00 	tst.b	129(r15)	;0x0081(r15)
    e020:	39 24       	jz	$+116    	;abs 0xe094
    e022:	67 4f       	mov.b	@r15,	r7	
    e024:	77 50 fb ff 	add.b	#-5,	r7	;#0xfffb
    e028:	49 47       	mov.b	r7,	r9	
    e02a:	09 5f       	add	r15,	r9	
    e02c:	0f 49       	mov	r9,	r15	
    e02e:	b0 12 00 48 	call	#0x4800	
    e032:	0c 4e       	mov	r14,	r12	
    e034:	0d 4f       	mov	r15,	r13	
    e036:	0c 8a       	sub	r10,	r12	
    e038:	0d 7b       	subc	r11,	r13	
    e03a:	c9 4c 03 00 	mov.b	r12,	3(r9)	;0x0003(r9)
    e03e:	0f 4c       	mov	r12,	r15	
    e040:	0c 4d       	mov	r13,	r12	
    e042:	8f 10       	swpb	r15		
    e044:	8c 10       	swpb	r12		
    e046:	4f ec       	xor.b	r12,	r15	
    e048:	0f ec       	xor	r12,	r15	
    e04a:	c9 4f 02 00 	mov.b	r15,	2(r9)	;0x0002(r9)
    e04e:	0f 4d       	mov	r13,	r15	
    e050:	c9 4d 01 00 	mov.b	r13,	1(r9)	;0x0001(r9)
    e054:	8f 10       	swpb	r15		
    e056:	c9 4f 00 00 	mov.b	r15,	0(r9)	;0x0000(r9)
    e05a:	b0 12 04 6b 	call	#0x6b04	
    e05e:	6c 42       	mov.b	#4,	r12	;r2 As==10
    e060:	0d 49       	mov	r9,	r13	
    e062:	4e 47       	mov.b	r7,	r14	
    e064:	0f 43       	clr	r15		
    e066:	b0 12 fc 72 	call	#0x72fc	
    e06a:	b0 12 42 6f 	call	#0x6f42	
    e06e:	0f 49       	mov	r9,	r15	
    e070:	b0 12 00 48 	call	#0x4800	
    e074:	0e 5a       	add	r10,	r14	
    e076:	0f 6b       	addc	r11,	r15	
    e078:	c9 4e 03 00 	mov.b	r14,	3(r9)	;0x0003(r9)
    e07c:	0d 4f       	mov	r15,	r13	
    e07e:	8e 10       	swpb	r14		
    e080:	8d 10       	swpb	r13		
    e082:	4e ed       	xor.b	r13,	r14	
    e084:	0e ed       	xor	r13,	r14	
    e086:	c9 4e 02 00 	mov.b	r14,	2(r9)	;0x0002(r9)
    e08a:	c9 4f 01 00 	mov.b	r15,	1(r9)	;0x0001(r9)
    e08e:	8f 10       	swpb	r15		
    e090:	c9 4f 00 00 	mov.b	r15,	0(r9)	;0x0000(r9)
    e094:	1e 42 d8 14 	mov	&0x14d8,r14	
    e098:	5f 4e 02 00 	mov.b	2(r14),	r15	;0x0002(r14)
    e09c:	8f 10       	swpb	r15		
    e09e:	5e 4e 01 00 	mov.b	1(r14),	r14	;0x0001(r14)
    e0a2:	0f de       	bis	r14,	r15	
    e0a4:	3f f0 20 00 	and	#32,	r15	;#0x0020
    e0a8:	02 24       	jz	$+6      	;abs 0xe0ae
    e0aa:	d2 43 70 12 	mov.b	#1,	&0x1270	;r3 As==01
    e0ae:	b0 12 06 70 	call	#0x7006	
    e0b2:	b2 f0 ef ff 88 01 	and	#-17,	&0x0188	;#0xffef
    e0b8:	e2 b3 1c 00 	bit.b	#2,	&0x001c	;r3 As==10
    e0bc:	02 24       	jz	$+6      	;abs 0xe0c2
    e0be:	30 40 0c e3 	br	#0xe30c	
    e0c2:	c2 43 d4 12 	mov.b	#0,	&0x12d4	;r3 As==00
    e0c6:	5f 43       	mov.b	#1,	r15	;r3 As==01
    e0c8:	b0 12 ea 4a 	call	#0x4aea	
    e0cc:	1e 42 d8 14 	mov	&0x14d8,r14	
    e0d0:	5f 4e 02 00 	mov.b	2(r14),	r15	;0x0002(r14)
    e0d4:	8f 10       	swpb	r15		
    e0d6:	5e 4e 01 00 	mov.b	1(r14),	r14	;0x0001(r14)
    e0da:	0f de       	bis	r14,	r15	
    e0dc:	3f f0 20 00 	and	#32,	r15	;#0x0020
    e0e0:	09 24       	jz	$+20     	;abs 0xe0f4
    e0e2:	b2 40 07 00 c2 11 	mov	#7,	&0x11c2	;#0x0007
    e0e8:	3e 40 00 01 	mov	#256,	r14	;#0x0100
    e0ec:	0f 43       	clr	r15		
    e0ee:	b0 12 aa 71 	call	#0x71aa	
    e0f2:	03 3c       	jmp	$+8      	;abs 0xe0fa
    e0f4:	4f 43       	clr.b	r15		
    e0f6:	b0 12 12 6f 	call	#0x6f12	
    e0fa:	e2 b3 1c 00 	bit.b	#2,	&0x001c	;r3 As==10
    e0fe:	02 20       	jnz	$+6      	;abs 0xe104
    e100:	30 40 0c e3 	br	#0xe30c	
    e104:	c2 93 c0 11 	tst.b	&0x11c0	
    e108:	29 20       	jnz	$+84     	;abs 0xe15c
    e10a:	c2 93 d4 12 	tst.b	&0x12d4	
    e10e:	26 20       	jnz	$+78     	;abs 0xe15c
    e110:	d2 43 d4 12 	mov.b	#1,	&0x12d4	;r3 As==01
    e114:	6f 43       	mov.b	#2,	r15	;r3 As==10
    e116:	b0 12 ea 4a 	call	#0x4aea	
    e11a:	5d 42 1c 00 	mov.b	&0x001c,r13	
    e11e:	5e 42 60 24 	mov.b	&0x2460,r14	
    e122:	7e 92       	cmp.b	#8,	r14	;r2 As==11
    e124:	0e 2c       	jc	$+30     	;abs 0xe142
    e126:	4f 4e       	mov.b	r14,	r15	
    e128:	5f 52 86 24 	add.b	&0x2486,r15	
    e12c:	3f f0 07 00 	and	#7,	r15	;#0x0007
    e130:	0f 5f       	rla	r15		
    e132:	0f 5f       	rla	r15		
    e134:	8f 4a b0 23 	mov	r10,	9136(r15);0x23b0(r15)
    e138:	8f 4b b2 23 	mov	r11,	9138(r15);0x23b2(r15)
    e13c:	5e 53       	inc.b	r14		
    e13e:	c2 4e 60 24 	mov.b	r14,	&0x2460	
    e142:	d2 43 c0 11 	mov.b	#1,	&0x11c0	;r3 As==01
    e146:	82 48 98 15 	mov	r8,	&0x1598	
    e14a:	e2 b3 1c 00 	bit.b	#2,	&0x001c	;r3 As==10
    e14e:	02 24       	jz	$+6      	;abs 0xe154
    e150:	30 40 0c e3 	br	#0xe30c	
    e154:	4f 4d       	mov.b	r13,	r15	
    e156:	6f f3       	and.b	#2,	r15	;r3 As==10
    e158:	5b 43       	mov.b	#1,	r11	;r3 As==01
    e15a:	01 20       	jnz	$+4      	;abs 0xe15e
    e15c:	4b 43       	clr.b	r11		
    e15e:	d2 93 d4 12 	cmp.b	#1,	&0x12d4	;r3 As==01
    e162:	02 24       	jz	$+6      	;abs 0xe168
    e164:	30 40 0c e3 	br	#0xe30c	
    e168:	c2 43 d4 12 	mov.b	#0,	&0x12d4	;r3 As==00
    e16c:	5f 43       	mov.b	#1,	r15	;r3 As==01
    e16e:	b0 12 ea 4a 	call	#0x4aea	
    e172:	c2 43 c0 11 	mov.b	#0,	&0x11c0	;r3 As==00
    e176:	4b 93       	tst.b	r11		
    e178:	c9 20       	jnz	$+404    	;abs 0xe30c
    e17a:	18 82 98 15 	sub	&0x1598,r8	
    e17e:	38 90 0a 00 	cmp	#10,	r8	;#0x000a
    e182:	c4 2c       	jc	$+394    	;abs 0xe30c
    e184:	5f 42 60 24 	mov.b	&0x2460,r15	
    e188:	4f 93       	tst.b	r15		
    e18a:	03 24       	jz	$+8      	;abs 0xe192
    e18c:	7f 53       	add.b	#-1,	r15	;r3 As==11
    e18e:	c2 4f 60 24 	mov.b	r15,	&0x2460	
    e192:	1f 42 d8 14 	mov	&0x14d8,r15	
    e196:	0f 93       	tst	r15		
    e198:	b9 24       	jz	$+372    	;abs 0xe30c
    e19a:	cf 43 81 00 	mov.b	#0,	129(r15);r3 As==00, 0x0081(r15)
    e19e:	cf 43 85 00 	mov.b	#0,	133(r15);r3 As==00, 0x0085(r15)
    e1a2:	cf 43 84 00 	mov.b	#0,	132(r15);r3 As==00, 0x0084(r15)
    e1a6:	cf 43 83 00 	mov.b	#0,	131(r15);r3 As==00, 0x0083(r15)
    e1aa:	ff 40 80 ff 82 00 	mov.b	#-128,	130(r15);#0xff80, 0x0082(r15)
    e1b0:	ad 3c       	jmp	$+348    	;abs 0xe30c
    e1b2:	1f 42 86 01 	mov	&0x0186,r15	
    e1b6:	8f 10       	swpb	r15		
    e1b8:	5f f3       	and.b	#1,	r15	;r3 As==01
    e1ba:	03 24       	jz	$+8      	;abs 0xe1c2
    e1bc:	1f 42 96 01 	mov	&0x0196,r15	
    e1c0:	a5 3c       	jmp	$+332    	;abs 0xe30c
    e1c2:	b2 f0 ef ff 86 01 	and	#-17,	&0x0186	;#0xffef
    e1c8:	1f 42 f6 01 	mov	&0x01f6,r15	
    e1cc:	1e 42 3a 1c 	mov	&0x1c3a,r14	
    e1d0:	0e 8f       	sub	r15,	r14	
    e1d2:	0f 4e       	mov	r14,	r15	
    e1d4:	3f 50 40 00 	add	#64,	r15	;#0x0040
    e1d8:	82 4f 62 24 	mov	r15,	&0x2462	
    e1dc:	1f 92 8c 24 	cmp	&0x248c,r15	
    e1e0:	04 24       	jz	$+10     	;abs 0xe1ea
    e1e2:	7f 40 0a 00 	mov.b	#10,	r15	;#0x000a
    e1e6:	b0 12 14 6b 	call	#0x6b14	
    e1ea:	5b 42 e4 17 	mov.b	&0x17e4,r11	
    e1ee:	b0 12 9a 4a 	call	#0x4a9a	
    e1f2:	0e 4b       	mov	r11,	r14	
    e1f4:	0e 5e       	rla	r14		
    e1f6:	0e 5e       	rla	r14		
    e1f8:	0e 5e       	rla	r14		
    e1fa:	b0 12 ac 4a 	call	#0x4aac	
    e1fe:	86 3c       	jmp	$+270    	;abs 0xe30c
    e200:	1f 42 88 01 	mov	&0x0188,r15	
    e204:	8f 10       	swpb	r15		
    e206:	5f f3       	and.b	#1,	r15	;r3 As==01
    e208:	03 24       	jz	$+8      	;abs 0xe210
    e20a:	1f 42 98 01 	mov	&0x0198,r15	
    e20e:	7e 3c       	jmp	$+254    	;abs 0xe30c
    e210:	b2 f0 ef ff 88 01 	and	#-17,	&0x0188	;#0xffef
    e216:	82 93 b4 12 	tst	&0x12b4	
    e21a:	46 20       	jnz	$+142    	;abs 0xe2a8
    e21c:	82 93 b6 12 	tst	&0x12b6	
    e220:	43 20       	jnz	$+136    	;abs 0xe2a8
    e222:	1f 42 c2 11 	mov	&0x11c2,r15	
    e226:	3f 50 fd ff 	add	#-3,	r15	;#0xfffd
    e22a:	3f 90 06 00 	cmp	#6,	r15	;#0x0006
    e22e:	2f 2c       	jc	$+96     	;abs 0xe28e
    e230:	0f 5f       	rla	r15		
    e232:	10 4f ee f2 	br	-3346(r15)	;0xf2ee(r15)
    e236:	f2 b0 10 00 20 00 	bit.b	#16,	&0x0020	;#0x0010
    e23c:	08 24       	jz	$+18     	;abs 0xe24e
    e23e:	a2 42 c2 11 	mov	#4,	&0x11c2	;r2 As==10
    e242:	3e 40 07 00 	mov	#7,	r14	;#0x0007
    e246:	0f 43       	clr	r15		
    e248:	b0 12 aa 71 	call	#0x71aa	
    e24c:	20 3c       	jmp	$+66     	;abs 0xe28e
    e24e:	b0 12 ee 71 	call	#0x71ee	
    e252:	1d 3c       	jmp	$+60     	;abs 0xe28e
    e254:	7f 40 03 00 	mov.b	#3,	r15	;#0x0003
    e258:	b0 12 f8 b9 	call	#0xb9f8	
    e25c:	4f 93       	tst.b	r15		
    e25e:	05 24       	jz	$+12     	;abs 0xe26a
    e260:	7f 40 03 00 	mov.b	#3,	r15	;#0x0003
    e264:	b0 12 d2 b8 	call	#0xb8d2	
    e268:	12 3c       	jmp	$+38     	;abs 0xe28e
    e26a:	b0 12 20 72 	call	#0x7220	
    e26e:	0f 3c       	jmp	$+32     	;abs 0xe28e
    e270:	4f 43       	clr.b	r15		
    e272:	0b 3c       	jmp	$+24     	;abs 0xe28a
    e274:	7f 40 09 00 	mov.b	#9,	r15	;#0x0009
    e278:	b0 12 b4 6a 	call	#0x6ab4	
    e27c:	5f 43       	mov.b	#1,	r15	;r3 As==01
    e27e:	b0 12 ea 4a 	call	#0x4aea	
    e282:	b0 12 06 70 	call	#0x7006	
    e286:	7f 40 07 00 	mov.b	#7,	r15	;#0x0007
    e28a:	b0 12 12 6f 	call	#0x6f12	
    e28e:	92 93 cc 11 	cmp	#1,	&0x11cc	;r3 As==01
    e292:	3c 20       	jnz	$+122    	;abs 0xe30c
    e294:	a2 43 cc 11 	mov	#2,	&0x11cc	;r3 As==10
    e298:	b0 12 12 b7 	call	#0xb712	
    e29c:	b0 12 22 b7 	call	#0xb722	
    e2a0:	4f 43       	clr.b	r15		
    e2a2:	b0 12 d2 b8 	call	#0xb8d2	
    e2a6:	32 3c       	jmp	$+102    	;abs 0xe30c
    e2a8:	b0 12 c6 70 	call	#0x70c6	
    e2ac:	2f 3c       	jmp	$+96     	;abs 0xe30c
    e2ae:	1f 42 8a 01 	mov	&0x018a,r15	
    e2b2:	8f 10       	swpb	r15		
    e2b4:	5f f3       	and.b	#1,	r15	;r3 As==01
    e2b6:	03 24       	jz	$+8      	;abs 0xe2be
    e2b8:	1f 42 9a 01 	mov	&0x019a,r15	
    e2bc:	27 3c       	jmp	$+80     	;abs 0xe30c
    e2be:	b2 f0 ef ff 8a 01 	and	#-17,	&0x018a	;#0xffef
    e2c4:	82 93 e4 12 	tst	&0x12e4	
    e2c8:	08 20       	jnz	$+18     	;abs 0xe2da
    e2ca:	82 93 e6 12 	tst	&0x12e6	
    e2ce:	05 20       	jnz	$+12     	;abs 0xe2da
    e2d0:	7f 40 13 00 	mov.b	#19,	r15	;#0x0013
    e2d4:	b0 12 14 6b 	call	#0x6b14	
    e2d8:	19 3c       	jmp	$+52     	;abs 0xe30c
    e2da:	b0 12 f6 91 	call	#0x91f6	
    e2de:	16 3c       	jmp	$+46     	;abs 0xe30c
    e2e0:	1f 42 8c 01 	mov	&0x018c,r15	
    e2e4:	8f 10       	swpb	r15		
    e2e6:	5f f3       	and.b	#1,	r15	;r3 As==01
    e2e8:	11 24       	jz	$+36     	;abs 0xe30c
    e2ea:	1f 42 9c 01 	mov	&0x019c,r15	
    e2ee:	0e 3c       	jmp	$+30     	;abs 0xe30c
    e2f0:	1f 42 8e 01 	mov	&0x018e,r15	
    e2f4:	8f 10       	swpb	r15		
    e2f6:	5f f3       	and.b	#1,	r15	;r3 As==01
    e2f8:	09 24       	jz	$+20     	;abs 0xe30c
    e2fa:	1f 42 9e 01 	mov	&0x019e,r15	
    e2fe:	06 3c       	jmp	$+14     	;abs 0xe30c
    e300:	92 53 30 15 	inc	&0x1530	
    e304:	92 53 40 1b 	inc	&0x1b40	
    e308:	82 63 42 1b 	adc	&0x1b42	
    e30c:	37 41       	pop	r7		
    e30e:	38 41       	pop	r8		
    e310:	39 41       	pop	r9		
    e312:	3a 41       	pop	r10		
    e314:	3b 41       	pop	r11		
    e316:	30 41       	ret			

0000e318 <sig_TIMERA0_VECTOR>:
    e318:	0f 12       	push	r15		
    e31a:	0e 12       	push	r14		
    e31c:	0d 12       	push	r13		
    e31e:	0c 12       	push	r12		
    e320:	4f 43       	clr.b	r15		
    e322:	b0 12 40 58 	call	#0x5840	
    e326:	3c 41       	pop	r12		
    e328:	3d 41       	pop	r13		
    e32a:	3e 41       	pop	r14		
    e32c:	3f 41       	pop	r15		
    e32e:	b1 c0 f0 00 00 00 	bic	#240,	0(r1)	;#0x00f0, 0x0000(r1)
    e334:	00 13       	reti			

0000e336 <sig_TIMERA1_VECTOR>:
    e336:	0f 12       	push	r15		
    e338:	0e 12       	push	r14		
    e33a:	0d 12       	push	r13		
    e33c:	0c 12       	push	r12		
    e33e:	1f 42 2e 01 	mov	&0x012e,r15	
    e342:	4f 4f       	mov.b	r15,	r15	
    e344:	12 c3       	clrc			
    e346:	4f 10       	rrc.b	r15		
    e348:	b0 12 40 58 	call	#0x5840	
    e34c:	3c 41       	pop	r12		
    e34e:	3d 41       	pop	r13		
    e350:	3e 41       	pop	r14		
    e352:	3f 41       	pop	r15		
    e354:	b1 c0 f0 00 00 00 	bic	#240,	0(r1)	;#0x00f0, 0x0000(r1)
    e35a:	00 13       	reti			

0000e35c <sig_TIMERB0_VECTOR>:
    e35c:	0f 12       	push	r15		
    e35e:	0e 12       	push	r14		
    e360:	0d 12       	push	r13		
    e362:	0c 12       	push	r12		
    e364:	4f 43       	clr.b	r15		
    e366:	b0 12 00 df 	call	#0xdf00	
    e36a:	3c 41       	pop	r12		
    e36c:	3d 41       	pop	r13		
    e36e:	3e 41       	pop	r14		
    e370:	3f 41       	pop	r15		
    e372:	b1 c0 f0 00 00 00 	bic	#240,	0(r1)	;#0x00f0, 0x0000(r1)
    e378:	00 13       	reti			

0000e37a <sig_TIMERB1_VECTOR>:
    e37a:	0f 12       	push	r15		
    e37c:	0e 12       	push	r14		
    e37e:	0d 12       	push	r13		
    e380:	0c 12       	push	r12		
    e382:	1f 42 1e 01 	mov	&0x011e,r15	
    e386:	4f 4f       	mov.b	r15,	r15	
    e388:	12 c3       	clrc			
    e38a:	4f 10       	rrc.b	r15		
    e38c:	b0 12 00 df 	call	#0xdf00	
    e390:	3c 41       	pop	r12		
    e392:	3d 41       	pop	r13		
    e394:	3e 41       	pop	r14		
    e396:	3f 41       	pop	r15		
    e398:	b1 c0 f0 00 00 00 	bic	#240,	0(r1)	;#0x00f0, 0x0000(r1)
    e39e:	00 13       	reti			

0000e3a0 <sig_UART1RX_VECTOR>:
    e3a0:	0f 12       	push	r15		
    e3a2:	0e 12       	push	r14		
    e3a4:	0d 12       	push	r13		
    e3a6:	0c 12       	push	r12		
    e3a8:	5f 42 7e 00 	mov.b	&0x007e,r15	
    e3ac:	5e 42 ec 11 	mov.b	&0x11ec,r14	
    e3b0:	4e 93       	tst.b	r14		
    e3b2:	0a 24       	jz	$+22     	;abs 0xe3c8
    e3b4:	06 3c       	jmp	$+14     	;abs 0xe3c2
    e3b6:	c2 93 40 11 	tst.b	&0x1140	
    e3ba:	06 20       	jnz	$+14     	;abs 0xe3c8
    e3bc:	b0 12 0a 78 	call	#0x780a	
    e3c0:	03 3c       	jmp	$+8      	;abs 0xe3c8
    e3c2:	7e 90 03 00 	cmp.b	#3,	r14	;#0x0003
    e3c6:	f7 27       	jz	$-16     	;abs 0xe3b6
    e3c8:	3c 41       	pop	r12		
    e3ca:	3d 41       	pop	r13		
    e3cc:	3e 41       	pop	r14		
    e3ce:	3f 41       	pop	r15		
    e3d0:	b1 c0 f0 00 00 00 	bic	#240,	0(r1)	;#0x00f0, 0x0000(r1)
    e3d6:	00 13       	reti			

0000e3d8 <sig_UART1TX_VECTOR>:
    e3d8:	0f 12       	push	r15		
    e3da:	0e 12       	push	r14		
    e3dc:	0d 12       	push	r13		
    e3de:	0c 12       	push	r12		
    e3e0:	5f 42 ec 11 	mov.b	&0x11ec,r15	
    e3e4:	4f 93       	tst.b	r15		
    e3e6:	21 24       	jz	$+68     	;abs 0xe42a
    e3e8:	1d 3c       	jmp	$+60     	;abs 0xe424
    e3ea:	c2 93 40 11 	tst.b	&0x1140	
    e3ee:	1d 20       	jnz	$+60     	;abs 0xe42a
    e3f0:	1e 42 1e 12 	mov	&0x121e,r14	
    e3f4:	0e 93       	tst	r14		
    e3f6:	19 24       	jz	$+52     	;abs 0xe42a
    e3f8:	1f 42 52 2a 	mov	&0x2a52,r15	
    e3fc:	1f 92 d8 12 	cmp	&0x12d8,r15	
    e400:	08 2c       	jc	$+18     	;abs 0xe412
    e402:	0e 5f       	add	r15,	r14	
    e404:	6e 4e       	mov.b	@r14,	r14	
    e406:	1f 53       	inc	r15		
    e408:	82 4f 52 2a 	mov	r15,	&0x2a52	
    e40c:	c2 4e 7f 00 	mov.b	r14,	&0x007f	
    e410:	0c 3c       	jmp	$+26     	;abs 0xe42a
    e412:	82 43 1e 12 	mov	#0,	&0x121e	;r3 As==00
    e416:	c2 43 a8 1c 	mov.b	#0,	&0x1ca8	;r3 As==00
    e41a:	7f 40 05 00 	mov.b	#5,	r15	;#0x0005
    e41e:	b0 12 14 6b 	call	#0x6b14	
    e422:	03 3c       	jmp	$+8      	;abs 0xe42a
    e424:	7f 90 03 00 	cmp.b	#3,	r15	;#0x0003
    e428:	e0 27       	jz	$-62     	;abs 0xe3ea
    e42a:	3c 41       	pop	r12		
    e42c:	3d 41       	pop	r13		
    e42e:	3e 41       	pop	r14		
    e430:	3f 41       	pop	r15		
    e432:	b1 c0 f0 00 00 00 	bic	#240,	0(r1)	;#0x00f0, 0x0000(r1)
    e438:	00 13       	reti			

0000e43a <sig_XX_DMA_VECTOR_XX>:
    e43a:	0f 12       	push	r15		
    e43c:	1f 42 e0 01 	mov	&0x01e0,r15	
    e440:	b2 b2 e0 01 	bit	#8,	&0x01e0	;r2 As==11
    e444:	06 24       	jz	$+14     	;abs 0xe452
    e446:	b2 f0 f7 ff e0 01 	and	#-9,	&0x01e0	;#0xfff7
    e44c:	b2 f0 fd ff e0 01 	and	#-3,	&0x01e0	;#0xfffd
    e452:	1f 42 e8 01 	mov	&0x01e8,r15	
    e456:	b2 b2 e8 01 	bit	#8,	&0x01e8	;r2 As==11
    e45a:	06 24       	jz	$+14     	;abs 0xe468
    e45c:	b2 f0 f7 ff e8 01 	and	#-9,	&0x01e8	;#0xfff7
    e462:	b2 f0 fd ff e8 01 	and	#-3,	&0x01e8	;#0xfffd
    e468:	1f 42 f0 01 	mov	&0x01f0,r15	
    e46c:	b2 b2 f0 01 	bit	#8,	&0x01f0	;r2 As==11
    e470:	06 24       	jz	$+14     	;abs 0xe47e
    e472:	b2 f0 f7 ff f0 01 	and	#-9,	&0x01f0	;#0xfff7
    e478:	b2 f0 fd ff f0 01 	and	#-3,	&0x01f0	;#0xfffd
    e47e:	3f 41       	pop	r15		
    e480:	b1 c0 f0 00 00 00 	bic	#240,	0(r1)	;#0x00f0, 0x0000(r1)
    e486:	00 13       	reti			

0000e488 <sig_PORT1_VECTOR>:
    e488:	0f 12       	push	r15		
    e48a:	0e 12       	push	r14		
    e48c:	0d 12       	push	r13		
    e48e:	0c 12       	push	r12		
    e490:	21 83       	decd	r1		
    e492:	5e 42 23 00 	mov.b	&0x0023,r14	
    e496:	5f 42 25 00 	mov.b	&0x0025,r15	
    e49a:	4f fe       	and.b	r14,	r15	
    e49c:	4f 4f       	mov.b	r15,	r15	
    e49e:	81 4f 00 00 	mov	r15,	0(r1)	;0x0000(r1)
    e4a2:	91 b3 00 00 	bit	#1,	0(r1)	;r3 As==01, 0x0000(r1)
    e4a6:	0e 24       	jz	$+30     	;abs 0xe4c4
    e4a8:	f2 f0 fe ff 23 00 	and.b	#-2,	&0x0023	;#0xfffe
    e4ae:	92 93 98 12 	cmp	#1,	&0x1298	;r3 As==01
    e4b2:	05 20       	jnz	$+12     	;abs 0xe4be
    e4b4:	a2 43 98 12 	mov	#2,	&0x1298	;r3 As==10
    e4b8:	b0 12 6c ba 	call	#0xba6c	
    e4bc:	56 3c       	jmp	$+174    	;abs 0xe56a
    e4be:	d2 53 b2 12 	inc.b	&0x12b2	
    e4c2:	53 3c       	jmp	$+168    	;abs 0xe56a
    e4c4:	a1 b3 00 00 	bit	#2,	0(r1)	;r3 As==10, 0x0000(r1)
    e4c8:	05 24       	jz	$+12     	;abs 0xe4d4
    e4ca:	5f 42 23 00 	mov.b	&0x0023,r15	
    e4ce:	7f f0 fd ff 	and.b	#-3,	r15	;#0xfffd
    e4d2:	49 3c       	jmp	$+148    	;abs 0xe566
    e4d4:	a1 b2 00 00 	bit	#4,	0(r1)	;r2 As==10, 0x0000(r1)
    e4d8:	05 24       	jz	$+12     	;abs 0xe4e4
    e4da:	5f 42 23 00 	mov.b	&0x0023,r15	
    e4de:	7f f0 fb ff 	and.b	#-5,	r15	;#0xfffb
    e4e2:	41 3c       	jmp	$+132    	;abs 0xe566
    e4e4:	b1 b2 00 00 	bit	#8,	0(r1)	;r2 As==11, 0x0000(r1)
    e4e8:	05 24       	jz	$+12     	;abs 0xe4f4
    e4ea:	5f 42 23 00 	mov.b	&0x0023,r15	
    e4ee:	7f f0 f7 ff 	and.b	#-9,	r15	;#0xfff7
    e4f2:	39 3c       	jmp	$+116    	;abs 0xe566
    e4f4:	b1 b0 10 00 00 00 	bit	#16,	0(r1)	;#0x0010, 0x0000(r1)
    e4fa:	1b 24       	jz	$+56     	;abs 0xe532
    e4fc:	f2 f0 ef ff 23 00 	and.b	#-17,	&0x0023	;#0xffef
    e502:	a2 42 cc 11 	mov	#4,	&0x11cc	;r2 As==10
    e506:	f2 f0 ef ff 25 00 	and.b	#-17,	&0x0025	;#0xffef
    e50c:	f2 f0 ef ff 23 00 	and.b	#-17,	&0x0023	;#0xffef
    e512:	0e 43       	clr	r14		
    e514:	7f 40 1d 00 	mov.b	#29,	r15	;#0x001d
    e518:	b0 12 b8 72 	call	#0x72b8	
    e51c:	b0 12 74 73 	call	#0x7374	
    e520:	b0 12 42 6f 	call	#0x6f42	
    e524:	b0 12 04 6b 	call	#0x6b04	
    e528:	7f 40 16 00 	mov.b	#22,	r15	;#0x0016
    e52c:	b0 12 14 6b 	call	#0x6b14	
    e530:	1c 3c       	jmp	$+58     	;abs 0xe56a
    e532:	b1 b0 20 00 00 00 	bit	#32,	0(r1)	;#0x0020, 0x0000(r1)
    e538:	05 24       	jz	$+12     	;abs 0xe544
    e53a:	5f 42 23 00 	mov.b	&0x0023,r15	
    e53e:	7f f0 df ff 	and.b	#-33,	r15	;#0xffdf
    e542:	11 3c       	jmp	$+36     	;abs 0xe566
    e544:	b1 b0 40 00 00 00 	bit	#64,	0(r1)	;#0x0040, 0x0000(r1)
    e54a:	05 24       	jz	$+12     	;abs 0xe556
    e54c:	5f 42 23 00 	mov.b	&0x0023,r15	
    e550:	7f f0 bf ff 	and.b	#-65,	r15	;#0xffbf
    e554:	08 3c       	jmp	$+18     	;abs 0xe566
    e556:	b1 b0 80 00 00 00 	bit	#128,	0(r1)	;#0x0080, 0x0000(r1)
    e55c:	06 24       	jz	$+14     	;abs 0xe56a
    e55e:	5f 42 23 00 	mov.b	&0x0023,r15	
    e562:	7f f0 7f 00 	and.b	#127,	r15	;#0x007f
    e566:	c2 4f 23 00 	mov.b	r15,	&0x0023	
    e56a:	21 53       	incd	r1		
    e56c:	3c 41       	pop	r12		
    e56e:	3d 41       	pop	r13		
    e570:	3e 41       	pop	r14		
    e572:	3f 41       	pop	r15		
    e574:	b1 c0 f0 00 00 00 	bic	#240,	0(r1)	;#0x00f0, 0x0000(r1)
    e57a:	00 13       	reti			

0000e57c <sig_PORT2_VECTOR>:
    e57c:	0f 12       	push	r15		
    e57e:	0e 12       	push	r14		
    e580:	21 83       	decd	r1		
    e582:	5e 42 2b 00 	mov.b	&0x002b,r14	
    e586:	5f 42 2d 00 	mov.b	&0x002d,r15	
    e58a:	4f fe       	and.b	r14,	r15	
    e58c:	4f 4f       	mov.b	r15,	r15	
    e58e:	81 4f 00 00 	mov	r15,	0(r1)	;0x0000(r1)
    e592:	91 b3 00 00 	bit	#1,	0(r1)	;r3 As==01, 0x0000(r1)
    e596:	05 24       	jz	$+12     	;abs 0xe5a2
    e598:	5f 42 2b 00 	mov.b	&0x002b,r15	
    e59c:	7f f0 fe ff 	and.b	#-2,	r15	;#0xfffe
    e5a0:	3b 3c       	jmp	$+120    	;abs 0xe618
    e5a2:	a1 b3 00 00 	bit	#2,	0(r1)	;r3 As==10, 0x0000(r1)
    e5a6:	05 24       	jz	$+12     	;abs 0xe5b2
    e5a8:	5f 42 2b 00 	mov.b	&0x002b,r15	
    e5ac:	7f f0 fd ff 	and.b	#-3,	r15	;#0xfffd
    e5b0:	33 3c       	jmp	$+104    	;abs 0xe618
    e5b2:	a1 b2 00 00 	bit	#4,	0(r1)	;r2 As==10, 0x0000(r1)
    e5b6:	05 24       	jz	$+12     	;abs 0xe5c2
    e5b8:	5f 42 2b 00 	mov.b	&0x002b,r15	
    e5bc:	7f f0 fb ff 	and.b	#-5,	r15	;#0xfffb
    e5c0:	2b 3c       	jmp	$+88     	;abs 0xe618
    e5c2:	b1 b2 00 00 	bit	#8,	0(r1)	;r2 As==11, 0x0000(r1)
    e5c6:	05 24       	jz	$+12     	;abs 0xe5d2
    e5c8:	5f 42 2b 00 	mov.b	&0x002b,r15	
    e5cc:	7f f0 f7 ff 	and.b	#-9,	r15	;#0xfff7
    e5d0:	23 3c       	jmp	$+72     	;abs 0xe618
    e5d2:	b1 b0 10 00 00 00 	bit	#16,	0(r1)	;#0x0010, 0x0000(r1)
    e5d8:	05 24       	jz	$+12     	;abs 0xe5e4
    e5da:	5f 42 2b 00 	mov.b	&0x002b,r15	
    e5de:	7f f0 ef ff 	and.b	#-17,	r15	;#0xffef
    e5e2:	1a 3c       	jmp	$+54     	;abs 0xe618
    e5e4:	b1 b0 20 00 00 00 	bit	#32,	0(r1)	;#0x0020, 0x0000(r1)
    e5ea:	05 24       	jz	$+12     	;abs 0xe5f6
    e5ec:	5f 42 2b 00 	mov.b	&0x002b,r15	
    e5f0:	7f f0 df ff 	and.b	#-33,	r15	;#0xffdf
    e5f4:	11 3c       	jmp	$+36     	;abs 0xe618
    e5f6:	b1 b0 40 00 00 00 	bit	#64,	0(r1)	;#0x0040, 0x0000(r1)
    e5fc:	05 24       	jz	$+12     	;abs 0xe608
    e5fe:	5f 42 2b 00 	mov.b	&0x002b,r15	
    e602:	7f f0 bf ff 	and.b	#-65,	r15	;#0xffbf
    e606:	08 3c       	jmp	$+18     	;abs 0xe618
    e608:	b1 b0 80 00 00 00 	bit	#128,	0(r1)	;#0x0080, 0x0000(r1)
    e60e:	06 24       	jz	$+14     	;abs 0xe61c
    e610:	5f 42 2b 00 	mov.b	&0x002b,r15	
    e614:	7f f0 7f 00 	and.b	#127,	r15	;#0x007f
    e618:	c2 4f 2b 00 	mov.b	r15,	&0x002b	
    e61c:	21 53       	incd	r1		
    e61e:	3e 41       	pop	r14		
    e620:	3f 41       	pop	r15		
    e622:	b1 c0 f0 00 00 00 	bic	#240,	0(r1)	;#0x00f0, 0x0000(r1)
    e628:	00 13       	reti			

0000e62a <sig_UART0RX_VECTOR>:
    e62a:	0f 12       	push	r15		
    e62c:	0e 12       	push	r14		
    e62e:	0d 12       	push	r13		
    e630:	0c 12       	push	r12		
    e632:	5e 42 76 00 	mov.b	&0x0076,r14	
    e636:	5f 42 c8 11 	mov.b	&0x11c8,r15	
    e63a:	4f 93       	tst.b	r15		
    e63c:	1c 24       	jz	$+58     	;abs 0xe676
    e63e:	18 3c       	jmp	$+50     	;abs 0xe670
    e640:	c2 93 3a 11 	tst.b	&0x113a	
    e644:	18 20       	jnz	$+50     	;abs 0xe676
    e646:	1f 42 e4 1b 	mov	&0x1be4,r15	
    e64a:	0f 93       	tst	r15		
    e64c:	04 24       	jz	$+10     	;abs 0xe656
    e64e:	1f 52 78 24 	add	&0x2478,r15	
    e652:	cf 4e ff ff 	mov.b	r14,	-1(r15)	;0xffff(r15)
    e656:	92 92 88 24 78 24 	cmp	&0x2488,&0x2478	
    e65c:	03 2c       	jc	$+8      	;abs 0xe664
    e65e:	b0 12 1e 6a 	call	#0x6a1e	
    e662:	09 3c       	jmp	$+20     	;abs 0xe676
    e664:	f2 f0 bf ff 00 00 	and.b	#-65,	&0x0000	;#0xffbf
    e66a:	b0 12 08 bb 	call	#0xbb08	
    e66e:	03 3c       	jmp	$+8      	;abs 0xe676
    e670:	7f 90 03 00 	cmp.b	#3,	r15	;#0x0003
    e674:	e5 27       	jz	$-52     	;abs 0xe640
    e676:	3c 41       	pop	r12		
    e678:	3d 41       	pop	r13		
    e67a:	3e 41       	pop	r14		
    e67c:	3f 41       	pop	r15		
    e67e:	b1 c0 f0 00 00 00 	bic	#240,	0(r1)	;#0x00f0, 0x0000(r1)
    e684:	00 13       	reti			

0000e686 <sig_UART0TX_VECTOR>:
    e686:	0f 12       	push	r15		
    e688:	5f 42 70 00 	mov.b	&0x0070,r15	
    e68c:	3f f0 20 00 	and	#32,	r15	;#0x0020
    e690:	06 24       	jz	$+14     	;abs 0xe69e
    e692:	5f 42 70 00 	mov.b	&0x0070,r15	
    e696:	2f f2       	and	#4,	r15	;r2 As==10
    e698:	02 24       	jz	$+6      	;abs 0xe69e
    e69a:	5f 42 70 00 	mov.b	&0x0070,r15	
    e69e:	3f 41       	pop	r15		
    e6a0:	b1 c0 f0 00 00 00 	bic	#240,	0(r1)	;#0x00f0, 0x0000(r1)
    e6a6:	00 13       	reti			

0000e6a8 <IPDispatchP__deliver>:
    e6a8:	0b 12       	push	r11		
    e6aa:	0b 4f       	mov	r15,	r11	
    e6ac:	1e 4f 06 00 	mov	6(r15),	r14	;0x0006(r15)
    e6b0:	1d 4f 08 00 	mov	8(r15),	r13	;0x0008(r15)
    e6b4:	3d 50 d8 ff 	add	#-40,	r13	;#0xffd8
    e6b8:	4f 4d       	mov.b	r13,	r15	
    e6ba:	8f 10       	swpb	r15		
    e6bc:	8d 10       	swpb	r13		
    e6be:	4d 4d       	mov.b	r13,	r13	
    e6c0:	0f dd       	bis	r13,	r15	
    e6c2:	ce 4f 04 00 	mov.b	r15,	4(r14)	;0x0004(r14)
    e6c6:	8f 10       	swpb	r15		
    e6c8:	ce 4f 05 00 	mov.b	r15,	5(r14)	;0x0005(r14)
    e6cc:	0d 4e       	mov	r14,	r13	
    e6ce:	3d 50 28 00 	add	#40,	r13	;#0x0028
    e6d2:	5f 43       	mov.b	#1,	r15	;r3 As==01
    e6d4:	b0 12 d0 a4 	call	#0xa4d0	
    e6d8:	1f 4b 06 00 	mov	6(r11),	r15	;0x0006(r11)
    e6dc:	b0 12 ac e9 	call	#0xe9ac	
    e6e0:	eb 43 0a 00 	mov.b	#2,	10(r11)	;r3 As==10, 0x000a(r11)
    e6e4:	8b 43 06 00 	mov	#0,	6(r11)	;r3 As==00, 0x0006(r11)
    e6e8:	3b 41       	pop	r11		
    e6ea:	30 41       	ret			

0000e6ec <iov_read>:
    e6ec:	0b 12       	push	r11		
    e6ee:	0a 12       	push	r10		
    e6f0:	09 12       	push	r9		
    e6f2:	08 12       	push	r8		
    e6f4:	07 12       	push	r7		
    e6f6:	06 12       	push	r6		
    e6f8:	05 12       	push	r5		
    e6fa:	04 12       	push	r4		
    e6fc:	0b 4f       	mov	r15,	r11	
    e6fe:	06 4e       	mov	r14,	r6	
    e700:	08 4d       	mov	r13,	r8	
    e702:	05 4c       	mov	r12,	r5	
    e704:	09 43       	clr	r9		
    e706:	03 3c       	jmp	$+8      	;abs 0xe70e
    e708:	09 4f       	mov	r15,	r9	
    e70a:	1b 4b 04 00 	mov	4(r11),	r11	;0x0004(r11)
    e70e:	0b 93       	tst	r11		
    e710:	22 24       	jz	$+70     	;abs 0xe756
    e712:	0f 49       	mov	r9,	r15	
    e714:	1f 5b 02 00 	add	2(r11),	r15	;0x0002(r11)
    e718:	06 9f       	cmp	r15,	r6	
    e71a:	f6 2f       	jc	$-18     	;abs 0xe708
    e71c:	07 43       	clr	r7		
    e71e:	18 3c       	jmp	$+50     	;abs 0xe750
    e720:	04 46       	mov	r6,	r4	
    e722:	04 89       	sub	r9,	r4	
    e724:	1a 4b 02 00 	mov	2(r11),	r10	;0x0002(r11)
    e728:	0a 84       	sub	r4,	r10	
    e72a:	08 9a       	cmp	r10,	r8	
    e72c:	01 2c       	jc	$+4      	;abs 0xe730
    e72e:	0a 48       	mov	r8,	r10	
    e730:	0d 4a       	mov	r10,	r13	
    e732:	2e 4b       	mov	@r11,	r14	
    e734:	0e 54       	add	r4,	r14	
    e736:	0f 45       	mov	r5,	r15	
    e738:	b0 12 a0 ef 	call	#0xefa0	
    e73c:	04 5a       	add	r10,	r4	
    e73e:	09 54       	add	r4,	r9	
    e740:	06 5a       	add	r10,	r6	
    e742:	07 5a       	add	r10,	r7	
    e744:	08 8a       	sub	r10,	r8	
    e746:	05 5a       	add	r10,	r5	
    e748:	1b 4b 04 00 	mov	4(r11),	r11	;0x0004(r11)
    e74c:	0b 93       	tst	r11		
    e74e:	04 24       	jz	$+10     	;abs 0xe758
    e750:	18 93       	cmp	#1,	r8	;r3 As==01
    e752:	e6 37       	jge	$-50     	;abs 0xe720
    e754:	01 3c       	jmp	$+4      	;abs 0xe758
    e756:	07 43       	clr	r7		
    e758:	0f 47       	mov	r7,	r15	
    e75a:	34 41       	pop	r4		
    e75c:	35 41       	pop	r5		
    e75e:	36 41       	pop	r6		
    e760:	37 41       	pop	r7		
    e762:	38 41       	pop	r8		
    e764:	39 41       	pop	r9		
    e766:	3a 41       	pop	r10		
    e768:	3b 41       	pop	r11		
    e76a:	30 41       	ret			

0000e76c <iov_len>:
    e76c:	0e 43       	clr	r14		
    e76e:	04 3c       	jmp	$+10     	;abs 0xe778
    e770:	1e 5f 02 00 	add	2(r15),	r14	;0x0002(r15)
    e774:	1f 4f 04 00 	mov	4(r15),	r15	;0x0004(r15)
    e778:	0f 93       	tst	r15		
    e77a:	fa 23       	jnz	$-10     	;abs 0xe770
    e77c:	0f 4e       	mov	r14,	r15	
    e77e:	30 41       	ret			

0000e780 <iov_prefix>:
    e780:	8e 4d 00 00 	mov	r13,	0(r14)	;0x0000(r14)
    e784:	8e 4c 02 00 	mov	r12,	2(r14)	;0x0002(r14)
    e788:	8e 4f 04 00 	mov	r15,	4(r14)	;0x0004(r14)
    e78c:	30 41       	ret			

0000e78e <iov_update>:
    e78e:	0b 12       	push	r11		
    e790:	0a 12       	push	r10		
    e792:	09 12       	push	r9		
    e794:	08 12       	push	r8		
    e796:	0b 4f       	mov	r15,	r11	
    e798:	0f 4e       	mov	r14,	r15	
    e79a:	0a 4d       	mov	r13,	r10	
    e79c:	08 4c       	mov	r12,	r8	
    e79e:	03 3c       	jmp	$+8      	;abs 0xe7a6
    e7a0:	0f 8e       	sub	r14,	r15	
    e7a2:	1b 4b 04 00 	mov	4(r11),	r11	;0x0004(r11)
    e7a6:	1e 4b 02 00 	mov	2(r11),	r14	;0x0002(r11)
    e7aa:	0f 9e       	cmp	r14,	r15	
    e7ac:	f9 2f       	jc	$-12     	;abs 0xe7a0
    e7ae:	10 3c       	jmp	$+34     	;abs 0xe7d0
    e7b0:	19 4b 02 00 	mov	2(r11),	r9	;0x0002(r11)
    e7b4:	09 8f       	sub	r15,	r9	
    e7b6:	0a 99       	cmp	r9,	r10	
    e7b8:	01 2c       	jc	$+4      	;abs 0xe7bc
    e7ba:	09 4a       	mov	r10,	r9	
    e7bc:	0d 49       	mov	r9,	r13	
    e7be:	0e 48       	mov	r8,	r14	
    e7c0:	2f 5b       	add	@r11,	r15	
    e7c2:	b0 12 a0 ef 	call	#0xefa0	
    e7c6:	08 59       	add	r9,	r8	
    e7c8:	0a 89       	sub	r9,	r10	
    e7ca:	1b 4b 04 00 	mov	4(r11),	r11	;0x0004(r11)
    e7ce:	0f 43       	clr	r15		
    e7d0:	0b 93       	tst	r11		
    e7d2:	02 24       	jz	$+6      	;abs 0xe7d8
    e7d4:	1a 93       	cmp	#1,	r10	;r3 As==01
    e7d6:	ec 37       	jge	$-38     	;abs 0xe7b0
    e7d8:	0f 43       	clr	r15		
    e7da:	38 41       	pop	r8		
    e7dc:	39 41       	pop	r9		
    e7de:	3a 41       	pop	r10		
    e7e0:	3b 41       	pop	r11		
    e7e2:	30 41       	ret			

0000e7e4 <in_cksum>:
    e7e4:	0b 12       	push	r11		
    e7e6:	0a 12       	push	r10		
    e7e8:	09 12       	push	r9		
    e7ea:	08 12       	push	r8		
    e7ec:	07 12       	push	r7		
    e7ee:	06 12       	push	r6		
    e7f0:	05 12       	push	r5		
    e7f2:	04 12       	push	r4		
    e7f4:	0d 4f       	mov	r15,	r13	
    e7f6:	0c 43       	clr	r12		
    e7f8:	0e 43       	clr	r14		
    e7fa:	0f 43       	clr	r15		
    e7fc:	1e 3c       	jmp	$+62     	;abs 0xe83a
    e7fe:	14 4d 02 00 	mov	2(r13),	r4	;0x0002(r13)
    e802:	04 93       	tst	r4		
    e804:	18 24       	jz	$+50     	;abs 0xe836
    e806:	2b 4d       	mov	@r13,	r11	
    e808:	0a 43       	clr	r10		
    e80a:	13 3c       	jmp	$+40     	;abs 0xe832
    e80c:	1a b3       	bit	#1,	r10	;r3 As==01
    e80e:	08 20       	jnz	$+18     	;abs 0xe820
    e810:	65 4b       	mov.b	@r11,	r5	
    e812:	85 10       	swpb	r5		
    e814:	0c d5       	bis	r5,	r12	
    e816:	05 4a       	mov	r10,	r5	
    e818:	15 53       	inc	r5		
    e81a:	05 94       	cmp	r4,	r5	
    e81c:	08 20       	jnz	$+18     	;abs 0xe82e
    e81e:	02 3c       	jmp	$+6      	;abs 0xe824
    e820:	65 4b       	mov.b	@r11,	r5	
    e822:	0c d5       	bis	r5,	r12	
    e824:	06 4c       	mov	r12,	r6	
    e826:	07 43       	clr	r7		
    e828:	0e 56       	add	r6,	r14	
    e82a:	0f 67       	addc	r7,	r15	
    e82c:	0c 43       	clr	r12		
    e82e:	1a 53       	inc	r10		
    e830:	1b 53       	inc	r11		
    e832:	0a 94       	cmp	r4,	r10	
    e834:	eb 23       	jnz	$-40     	;abs 0xe80c
    e836:	1d 4d 04 00 	mov	4(r13),	r13	;0x0004(r13)
    e83a:	0d 93       	tst	r13		
    e83c:	e0 23       	jnz	$-62     	;abs 0xe7fe
    e83e:	1f 93       	cmp	#1,	r15	;r3 As==01
    e840:	0b 28       	jnc	$+24     	;abs 0xe858
    e842:	0c 4e       	mov	r14,	r12	
    e844:	0d 4f       	mov	r15,	r13	
    e846:	3c f3       	and	#-1,	r12	;r3 As==11
    e848:	0d f3       	and	#0,	r13	;r3 As==00
    e84a:	08 4f       	mov	r15,	r8	
    e84c:	09 43       	clr	r9		
    e84e:	0e 48       	mov	r8,	r14	
    e850:	0f 49       	mov	r9,	r15	
    e852:	0e 5c       	add	r12,	r14	
    e854:	0f 6d       	addc	r13,	r15	
    e856:	f3 3f       	jmp	$-24     	;abs 0xe83e
    e858:	0f 4e       	mov	r14,	r15	
    e85a:	3f e3       	inv	r15		
    e85c:	34 41       	pop	r4		
    e85e:	35 41       	pop	r5		
    e860:	36 41       	pop	r6		
    e862:	37 41       	pop	r7		
    e864:	38 41       	pop	r8		
    e866:	39 41       	pop	r9		
    e868:	3a 41       	pop	r10		
    e86a:	3b 41       	pop	r11		
    e86c:	30 41       	ret			

0000e86e <msg_cksum>:
    e86e:	0b 12       	push	r11		
    e870:	31 50 e6 ff 	add	#-26,	r1	;#0xffe6
    e874:	4b 4d       	mov.b	r13,	r11	
    e876:	0d 4f       	mov	r15,	r13	
    e878:	3d 52       	add	#8,	r13	;r2 As==11
    e87a:	81 4d 08 00 	mov	r13,	8(r1)	;0x0008(r1)
    e87e:	b1 40 10 00 0a 00 	mov	#16,	10(r1)	;#0x0010, 0x000a(r1)
    e884:	0d 41       	mov	r1,	r13	
    e886:	3d 50 0e 00 	add	#14,	r13	;#0x000e
    e88a:	81 4d 0c 00 	mov	r13,	12(r1)	;0x000c(r1)
    e88e:	3f 50 18 00 	add	#24,	r15	;#0x0018
    e892:	81 4f 0e 00 	mov	r15,	14(r1)	;0x000e(r1)
    e896:	b1 40 10 00 10 00 	mov	#16,	16(r1)	;#0x0010, 0x0010(r1)
    e89c:	0f 41       	mov	r1,	r15	
    e89e:	3f 50 14 00 	add	#20,	r15	;#0x0014
    e8a2:	81 4f 12 00 	mov	r15,	18(r1)	;0x0012(r1)
    e8a6:	81 41 14 00 	mov	r1,	20(r1)	;0x0014(r1)
    e8aa:	b1 42 16 00 	mov	#8,	22(r1)	;r2 As==11, 0x0016(r1)
    e8ae:	81 4e 18 00 	mov	r14,	24(r1)	;0x0018(r1)
    e8b2:	0f 4e       	mov	r14,	r15	
    e8b4:	b0 12 6c e7 	call	#0xe76c	
    e8b8:	0e 4f       	mov	r15,	r14	
    e8ba:	8f 10       	swpb	r15		
    e8bc:	8f 11       	sxt	r15		
    e8be:	8f 10       	swpb	r15		
    e8c0:	8f 11       	sxt	r15		
    e8c2:	b0 12 68 ed 	call	#0xed68	
    e8c6:	81 4e 00 00 	mov	r14,	0(r1)	;0x0000(r1)
    e8ca:	81 4f 02 00 	mov	r15,	2(r1)	;0x0002(r1)
    e8ce:	4e 4b       	mov.b	r11,	r14	
    e8d0:	0f 43       	clr	r15		
    e8d2:	b0 12 68 ed 	call	#0xed68	
    e8d6:	81 4e 04 00 	mov	r14,	4(r1)	;0x0004(r1)
    e8da:	81 4f 06 00 	mov	r15,	6(r1)	;0x0006(r1)
    e8de:	0f 41       	mov	r1,	r15	
    e8e0:	3f 52       	add	#8,	r15	;r2 As==11
    e8e2:	b0 12 e4 e7 	call	#0xe7e4	
    e8e6:	31 50 1a 00 	add	#26,	r1	;#0x001a
    e8ea:	3b 41       	pop	r11		
    e8ec:	30 41       	ret			

0000e8ee <ip_malloc_init>:
    e8ee:	3f 40 5a 2f 	mov	#12122,	r15	;#0x2f5a
    e8f2:	ff 40 dc ff 00 00 	mov.b	#-36,	0(r15)	;#0xffdc, 0x0000(r15)
    e8f8:	ff 40 05 00 01 00 	mov.b	#5,	1(r15)	;#0x0005, 0x0001(r15)
    e8fe:	30 41       	ret			

0000e900 <ip_malloc>:
    e900:	0b 12       	push	r11		
    e902:	0a 12       	push	r10		
    e904:	09 12       	push	r9		
    e906:	08 12       	push	r8		
    e908:	07 12       	push	r7		
    e90a:	06 12       	push	r6		
    e90c:	05 12       	push	r5		
    e90e:	2f 52       	add	#4,	r15	;r2 As==10
    e910:	07 4f       	mov	r15,	r7	
    e912:	17 f3       	and	#1,	r7	;r3 As==01
    e914:	07 5f       	add	r15,	r7	
    e916:	3f 40 5a 2f 	mov	#12122,	r15	;#0x2f5a
    e91a:	01 3c       	jmp	$+4      	;abs 0xe91e
    e91c:	0f 56       	add	r6,	r15	
    e91e:	25 4f       	mov	@r15,	r5	
    e920:	06 45       	mov	r5,	r6	
    e922:	36 f0 ff 0f 	and	#4095,	r6	;#0x0fff
    e926:	06 97       	cmp	r7,	r6	
    e928:	02 28       	jnc	$+6      	;abs 0xe92e
    e92a:	05 93       	tst	r5		
    e92c:	19 34       	jge	$+52     	;abs 0xe960
    e92e:	08 4f       	mov	r15,	r8	
    e930:	0e 4f       	mov	r15,	r14	
    e932:	8e 10       	swpb	r14		
    e934:	8e 11       	sxt	r14		
    e936:	8e 10       	swpb	r14		
    e938:	8e 11       	sxt	r14		
    e93a:	09 4e       	mov	r14,	r9	
    e93c:	3c 40 5a 2f 	mov	#12122,	r12	;#0x2f5a
    e940:	0e 4c       	mov	r12,	r14	
    e942:	8e 10       	swpb	r14		
    e944:	8e 11       	sxt	r14		
    e946:	8e 10       	swpb	r14		
    e948:	8e 11       	sxt	r14		
    e94a:	0d 4e       	mov	r14,	r13	
    e94c:	0a 48       	mov	r8,	r10	
    e94e:	0b 49       	mov	r9,	r11	
    e950:	0a 8c       	sub	r12,	r10	
    e952:	0b 7d       	subc	r13,	r11	
    e954:	0b 93       	tst	r11		
    e956:	e2 3b       	jl	$-58     	;abs 0xe91c
    e958:	03 20       	jnz	$+8      	;abs 0xe960
    e95a:	3a 90 dc 05 	cmp	#1500,	r10	;#0x05dc
    e95e:	de 2b       	jnc	$-66     	;abs 0xe91c
    e960:	3f 90 36 35 	cmp	#13622,	r15	;#0x3536
    e964:	1a 2c       	jc	$+54     	;abs 0xe99a
    e966:	0e 47       	mov	r7,	r14	
    e968:	2e 53       	incd	r14		
    e96a:	06 9e       	cmp	r14,	r6	
    e96c:	05 2c       	jc	$+12     	;abs 0xe978
    e96e:	35 d0 00 80 	bis	#-32768,r5	;#0x8000
    e972:	8f 45 00 00 	mov	r5,	0(r15)	;0x0000(r15)
    e976:	0f 3c       	jmp	$+32     	;abs 0xe996
    e978:	27 83       	decd	r7		
    e97a:	0e 47       	mov	r7,	r14	
    e97c:	3e f0 ff 0f 	and	#4095,	r14	;#0x0fff
    e980:	3e d0 00 80 	bis	#-32768,r14	;#0x8000
    e984:	8f 4e 00 00 	mov	r14,	0(r15)	;0x0000(r15)
    e988:	0e 4f       	mov	r15,	r14	
    e98a:	0e 57       	add	r7,	r14	
    e98c:	06 87       	sub	r7,	r6	
    e98e:	36 f0 ff 0f 	and	#4095,	r6	;#0x0fff
    e992:	8e 46 00 00 	mov	r6,	0(r14)	;0x0000(r14)
    e996:	2f 53       	incd	r15		
    e998:	01 3c       	jmp	$+4      	;abs 0xe99c
    e99a:	0f 43       	clr	r15		
    e99c:	35 41       	pop	r5		
    e99e:	36 41       	pop	r6		
    e9a0:	37 41       	pop	r7		
    e9a2:	38 41       	pop	r8		
    e9a4:	39 41       	pop	r9		
    e9a6:	3a 41       	pop	r10		
    e9a8:	3b 41       	pop	r11		
    e9aa:	30 41       	ret			

0000e9ac <ip_free>:
    e9ac:	0b 12       	push	r11		
    e9ae:	0a 12       	push	r10		
    e9b0:	09 12       	push	r9		
    e9b2:	08 12       	push	r8		
    e9b4:	07 12       	push	r7		
    e9b6:	06 12       	push	r6		
    e9b8:	3e 40 5a 2f 	mov	#12122,	r14	;#0x2f5a
    e9bc:	09 43       	clr	r9		
    e9be:	05 3c       	jmp	$+12     	;abs 0xe9ca
    e9c0:	2d 4e       	mov	@r14,	r13	
    e9c2:	3d f0 ff 0f 	and	#4095,	r13	;#0x0fff
    e9c6:	09 4e       	mov	r14,	r9	
    e9c8:	0e 5d       	add	r13,	r14	
    e9ca:	0d 4e       	mov	r14,	r13	
    e9cc:	2d 53       	incd	r13		
    e9ce:	0f 9d       	cmp	r13,	r15	
    e9d0:	1a 24       	jz	$+54     	;abs 0xea06
    e9d2:	06 4e       	mov	r14,	r6	
    e9d4:	0d 4e       	mov	r14,	r13	
    e9d6:	8d 10       	swpb	r13		
    e9d8:	8d 11       	sxt	r13		
    e9da:	8d 10       	swpb	r13		
    e9dc:	8d 11       	sxt	r13		
    e9de:	07 4d       	mov	r13,	r7	
    e9e0:	3a 40 5a 2f 	mov	#12122,	r10	;#0x2f5a
    e9e4:	0d 4a       	mov	r10,	r13	
    e9e6:	8d 10       	swpb	r13		
    e9e8:	8d 11       	sxt	r13		
    e9ea:	8d 10       	swpb	r13		
    e9ec:	8d 11       	sxt	r13		
    e9ee:	0b 4d       	mov	r13,	r11	
    e9f0:	0c 46       	mov	r6,	r12	
    e9f2:	0d 47       	mov	r7,	r13	
    e9f4:	0c 8a       	sub	r10,	r12	
    e9f6:	0d 7b       	subc	r11,	r13	
    e9f8:	0d 93       	tst	r13		
    e9fa:	e2 3b       	jl	$-58     	;abs 0xe9c0
    e9fc:	3c 20       	jnz	$+122    	;abs 0xea76
    e9fe:	3c 90 dc 05 	cmp	#1500,	r12	;#0x05dc
    ea02:	de 2b       	jnc	$-66     	;abs 0xe9c0
    ea04:	38 3c       	jmp	$+114    	;abs 0xea76
    ea06:	26 4e       	mov	@r14,	r6	
    ea08:	08 46       	mov	r6,	r8	
    ea0a:	38 f0 ff 0f 	and	#4095,	r8	;#0x0fff
    ea0e:	08 5e       	add	r14,	r8	
    ea10:	36 f0 ff 7f 	and	#32767,	r6	;#0x7fff
    ea14:	8e 46 00 00 	mov	r6,	0(r14)	;0x0000(r14)
    ea18:	0a 48       	mov	r8,	r10	
    ea1a:	0f 48       	mov	r8,	r15	
    ea1c:	8f 10       	swpb	r15		
    ea1e:	8f 11       	sxt	r15		
    ea20:	8f 10       	swpb	r15		
    ea22:	8f 11       	sxt	r15		
    ea24:	0b 4f       	mov	r15,	r11	
    ea26:	3c 40 5a 2f 	mov	#12122,	r12	;#0x2f5a
    ea2a:	0f 4c       	mov	r12,	r15	
    ea2c:	8f 10       	swpb	r15		
    ea2e:	8f 11       	sxt	r15		
    ea30:	8f 10       	swpb	r15		
    ea32:	8f 11       	sxt	r15		
    ea34:	0d 4f       	mov	r15,	r13	
    ea36:	0a 8c       	sub	r12,	r10	
    ea38:	0b 7d       	subc	r13,	r11	
    ea3a:	0b 93       	tst	r11		
    ea3c:	05 38       	jl	$+12     	;abs 0xea48
    ea3e:	1b 93       	cmp	#1,	r11	;r3 As==01
    ea40:	0d 34       	jge	$+28     	;abs 0xea5c
    ea42:	3a 90 dc 05 	cmp	#1500,	r10	;#0x05dc
    ea46:	0a 2c       	jc	$+22     	;abs 0xea5c
    ea48:	2f 48       	mov	@r8,	r15	
    ea4a:	0f 93       	tst	r15		
    ea4c:	07 38       	jl	$+16     	;abs 0xea5c
    ea4e:	3f f0 ff 0f 	and	#4095,	r15	;#0x0fff
    ea52:	36 f0 ff 0f 	and	#4095,	r6	;#0x0fff
    ea56:	0f 56       	add	r6,	r15	
    ea58:	8e 4f 00 00 	mov	r15,	0(r14)	;0x0000(r14)
    ea5c:	09 93       	tst	r9		
    ea5e:	0b 24       	jz	$+24     	;abs 0xea76
    ea60:	2f 49       	mov	@r9,	r15	
    ea62:	0f 93       	tst	r15		
    ea64:	08 38       	jl	$+18     	;abs 0xea76
    ea66:	2e 4e       	mov	@r14,	r14	
    ea68:	3e f0 ff 0f 	and	#4095,	r14	;#0x0fff
    ea6c:	3f f0 ff 0f 	and	#4095,	r15	;#0x0fff
    ea70:	0e 5f       	add	r15,	r14	
    ea72:	89 4e 00 00 	mov	r14,	0(r9)	;0x0000(r9)
    ea76:	36 41       	pop	r6		
    ea78:	37 41       	pop	r7		
    ea7a:	38 41       	pop	r8		
    ea7c:	39 41       	pop	r9		
    ea7e:	3a 41       	pop	r10		
    ea80:	3b 41       	pop	r11		
    ea82:	30 41       	ret			

0000ea84 <ip_malloc_freespace>:
    ea84:	0b 12       	push	r11		
    ea86:	0a 12       	push	r10		
    ea88:	09 12       	push	r9		
    ea8a:	08 12       	push	r8		
    ea8c:	3b 40 5a 2f 	mov	#12122,	r11	;#0x2f5a
    ea90:	0a 43       	clr	r10		
    ea92:	08 3c       	jmp	$+18     	;abs 0xeaa4
    ea94:	2e 4b       	mov	@r11,	r14	
    ea96:	0f 4e       	mov	r14,	r15	
    ea98:	3f f0 ff 0f 	and	#4095,	r15	;#0x0fff
    ea9c:	0e 93       	tst	r14		
    ea9e:	01 38       	jl	$+4      	;abs 0xeaa2
    eaa0:	0a 5f       	add	r15,	r10	
    eaa2:	0b 5f       	add	r15,	r11	
    eaa4:	08 4b       	mov	r11,	r8	
    eaa6:	0e 4b       	mov	r11,	r14	
    eaa8:	8e 10       	swpb	r14		
    eaaa:	8e 11       	sxt	r14		
    eaac:	8e 10       	swpb	r14		
    eaae:	8e 11       	sxt	r14		
    eab0:	09 4e       	mov	r14,	r9	
    eab2:	3c 40 5a 2f 	mov	#12122,	r12	;#0x2f5a
    eab6:	0e 4c       	mov	r12,	r14	
    eab8:	8e 10       	swpb	r14		
    eaba:	8e 11       	sxt	r14		
    eabc:	8e 10       	swpb	r14		
    eabe:	8e 11       	sxt	r14		
    eac0:	0d 4e       	mov	r14,	r13	
    eac2:	0e 48       	mov	r8,	r14	
    eac4:	0f 49       	mov	r9,	r15	
    eac6:	0e 8c       	sub	r12,	r14	
    eac8:	0f 7d       	subc	r13,	r15	
    eaca:	0f 93       	tst	r15		
    eacc:	e3 3b       	jl	$-56     	;abs 0xea94
    eace:	03 20       	jnz	$+8      	;abs 0xead6
    ead0:	3e 90 dc 05 	cmp	#1500,	r14	;#0x05dc
    ead4:	df 2b       	jnc	$-64     	;abs 0xea94
    ead6:	0f 4a       	mov	r10,	r15	
    ead8:	38 41       	pop	r8		
    eada:	39 41       	pop	r9		
    eadc:	3a 41       	pop	r10		
    eade:	3b 41       	pop	r11		
    eae0:	30 41       	ret			

0000eae2 <inet_pton6>:
    eae2:	0b 12       	push	r11		
    eae4:	0a 12       	push	r10		
    eae6:	09 12       	push	r9		
    eae8:	08 12       	push	r8		
    eaea:	07 12       	push	r7		
    eaec:	07 4f       	mov	r15,	r7	
    eaee:	0a 4e       	mov	r14,	r10	
    eaf0:	0f 93       	tst	r15		
    eaf2:	9a 24       	jz	$+310    	;abs 0xec28
    eaf4:	0e 93       	tst	r14		
    eaf6:	98 24       	jz	$+306    	;abs 0xec28
    eaf8:	3d 40 10 00 	mov	#16,	r13	;#0x0010
    eafc:	0e 43       	clr	r14		
    eafe:	0f 4a       	mov	r10,	r15	
    eb00:	b0 12 94 f1 	call	#0xf194	
    eb04:	0c 47       	mov	r7,	r12	
    eb06:	4e 43       	clr.b	r14		
    eb08:	0d 43       	clr	r13		
    eb0a:	43 3c       	jmp	$+136    	;abs 0xeb92
    eb0c:	7b 90 3a 00 	cmp.b	#58,	r11	;#0x003a
    eb10:	1c 24       	jz	$+58     	;abs 0xeb4a
    eb12:	0d 5d       	rla	r13		
    eb14:	0d 5d       	rla	r13		
    eb16:	0d 5d       	rla	r13		
    eb18:	0d 5d       	rla	r13		
    eb1a:	4f 4b       	mov.b	r11,	r15	
    eb1c:	7f 50 d0 ff 	add.b	#-48,	r15	;#0xffd0
    eb20:	7f 90 0a 00 	cmp.b	#10,	r15	;#0x000a
    eb24:	04 2c       	jc	$+10     	;abs 0xeb2e
    eb26:	8b 11       	sxt	r11		
    eb28:	3b 50 d0 ff 	add	#-48,	r11	;#0xffd0
    eb2c:	0c 3c       	jmp	$+26     	;abs 0xeb46
    eb2e:	4f 4b       	mov.b	r11,	r15	
    eb30:	7f 50 bf ff 	add.b	#-65,	r15	;#0xffbf
    eb34:	8b 11       	sxt	r11		
    eb36:	7f 90 06 00 	cmp.b	#6,	r15	;#0x0006
    eb3a:	03 2c       	jc	$+8      	;abs 0xeb42
    eb3c:	3b 50 c9 ff 	add	#-55,	r11	;#0xffc9
    eb40:	02 3c       	jmp	$+6      	;abs 0xeb46
    eb42:	3b 50 a9 ff 	add	#-87,	r11	;#0xffa9
    eb46:	0d db       	bis	r11,	r13	
    eb48:	0c 3c       	jmp	$+26     	;abs 0xeb62
    eb4a:	4b 4e       	mov.b	r14,	r11	
    eb4c:	0b 5b       	rla	r11		
    eb4e:	0b 5a       	add	r10,	r11	
    eb50:	49 4d       	mov.b	r13,	r9	
    eb52:	89 10       	swpb	r9		
    eb54:	8d 10       	swpb	r13		
    eb56:	4d 4d       	mov.b	r13,	r13	
    eb58:	0d d9       	bis	r9,	r13	
    eb5a:	8b 4d 00 00 	mov	r13,	0(r11)	;0x0000(r11)
    eb5e:	5e 53       	inc.b	r14		
    eb60:	0d 43       	clr	r13		
    eb62:	5f 4c 01 00 	mov.b	1(r12),	r15	;0x0001(r12)
    eb66:	4f 93       	tst.b	r15		
    eb68:	0c 20       	jnz	$+26     	;abs 0xeb82
    eb6a:	4c 4e       	mov.b	r14,	r12	
    eb6c:	0c 5c       	rla	r12		
    eb6e:	0c 5a       	add	r10,	r12	
    eb70:	0f 4d       	mov	r13,	r15	
    eb72:	8f 10       	swpb	r15		
    eb74:	4f 4f       	mov.b	r15,	r15	
    eb76:	4d 4d       	mov.b	r13,	r13	
    eb78:	8d 10       	swpb	r13		
    eb7a:	0d df       	bis	r15,	r13	
    eb7c:	8c 4d 00 00 	mov	r13,	0(r12)	;0x0000(r12)
    eb80:	53 3c       	jmp	$+168    	;abs 0xec28
    eb82:	1c 53       	inc	r12		
    eb84:	fc 90 3a 00 ff ff 	cmp.b	#58,	-1(r12)	;#0x003a, 0xffff(r12)
    eb8a:	03 20       	jnz	$+8      	;abs 0xeb92
    eb8c:	7f 90 3a 00 	cmp.b	#58,	r15	;#0x003a
    eb90:	05 24       	jz	$+12     	;abs 0xeb9c
    eb92:	6b 4c       	mov.b	@r12,	r11	
    eb94:	4b 93       	tst.b	r11		
    eb96:	ba 23       	jnz	$-138    	;abs 0xeb0c
    eb98:	01 3c       	jmp	$+4      	;abs 0xeb9c
    eb9a:	1c 53       	inc	r12		
    eb9c:	cc 93 00 00 	tst.b	0(r12)		;0x0000(r12)
    eba0:	fc 23       	jnz	$-6      	;abs 0xeb9a
    eba2:	3c 53       	add	#-1,	r12	;r3 As==11
    eba4:	4e 43       	clr.b	r14		
    eba6:	78 40 07 00 	mov.b	#7,	r8	;#0x0007
    ebaa:	0b 43       	clr	r11		
    ebac:	3b 3c       	jmp	$+120    	;abs 0xec24
    ebae:	6d 4c       	mov.b	@r12,	r13	
    ebb0:	7d 90 3a 00 	cmp.b	#58,	r13	;#0x003a
    ebb4:	21 24       	jz	$+68     	;abs 0xebf8
    ebb6:	4f 4d       	mov.b	r13,	r15	
    ebb8:	7f 50 d0 ff 	add.b	#-48,	r15	;#0xffd0
    ebbc:	7f 90 0a 00 	cmp.b	#10,	r15	;#0x000a
    ebc0:	04 2c       	jc	$+10     	;abs 0xebca
    ebc2:	8d 11       	sxt	r13		
    ebc4:	3d 50 d0 ff 	add	#-48,	r13	;#0xffd0
    ebc8:	0c 3c       	jmp	$+26     	;abs 0xebe2
    ebca:	4f 4d       	mov.b	r13,	r15	
    ebcc:	7f 50 bf ff 	add.b	#-65,	r15	;#0xffbf
    ebd0:	8d 11       	sxt	r13		
    ebd2:	7f 90 06 00 	cmp.b	#6,	r15	;#0x0006
    ebd6:	03 2c       	jc	$+8      	;abs 0xebde
    ebd8:	3d 50 c9 ff 	add	#-55,	r13	;#0xffc9
    ebdc:	02 3c       	jmp	$+6      	;abs 0xebe2
    ebde:	3d 50 a9 ff 	add	#-87,	r13	;#0xffa9
    ebe2:	49 4e       	mov.b	r14,	r9	
    ebe4:	79 f0 0f 00 	and.b	#15,	r9	;#0x000f
    ebe8:	49 93       	tst.b	r9		
    ebea:	03 24       	jz	$+8      	;abs 0xebf2
    ebec:	0d 5d       	rla	r13		
    ebee:	79 53       	add.b	#-1,	r9	;r3 As==11
    ebf0:	fb 3f       	jmp	$-8      	;abs 0xebe8
    ebf2:	0b dd       	bis	r13,	r11	
    ebf4:	6e 52       	add.b	#4,	r14	;r2 As==10
    ebf6:	0d 3c       	jmp	$+28     	;abs 0xec12
    ebf8:	4d 48       	mov.b	r8,	r13	
    ebfa:	0d 5d       	rla	r13		
    ebfc:	0d 5a       	add	r10,	r13	
    ebfe:	4e 4b       	mov.b	r11,	r14	
    ec00:	8e 10       	swpb	r14		
    ec02:	8b 10       	swpb	r11		
    ec04:	4b 4b       	mov.b	r11,	r11	
    ec06:	0b de       	bis	r14,	r11	
    ec08:	8d 4b 00 00 	mov	r11,	0(r13)	;0x0000(r13)
    ec0c:	78 53       	add.b	#-1,	r8	;r3 As==11
    ec0e:	4e 43       	clr.b	r14		
    ec10:	0b 43       	clr	r11		
    ec12:	fc 90 3a 00 00 00 	cmp.b	#58,	0(r12)	;#0x003a, 0x0000(r12)
    ec18:	04 20       	jnz	$+10     	;abs 0xec22
    ec1a:	fc 90 3a 00 ff ff 	cmp.b	#58,	-1(r12)	;#0x003a, 0xffff(r12)
    ec20:	03 24       	jz	$+8      	;abs 0xec28
    ec22:	3c 53       	add	#-1,	r12	;r3 As==11
    ec24:	07 9c       	cmp	r12,	r7	
    ec26:	c3 2b       	jnc	$-120    	;abs 0xebae
    ec28:	37 41       	pop	r7		
    ec2a:	38 41       	pop	r8		
    ec2c:	39 41       	pop	r9		
    ec2e:	3a 41       	pop	r10		
    ec30:	3b 41       	pop	r11		
    ec32:	30 41       	ret			

0000ec34 <inet_ntop6>:
    ec34:	0b 12       	push	r11		
    ec36:	0a 12       	push	r10		
    ec38:	09 12       	push	r9		
    ec3a:	08 12       	push	r8		
    ec3c:	07 12       	push	r7		
    ec3e:	06 12       	push	r6		
    ec40:	05 12       	push	r5		
    ec42:	06 4e       	mov	r14,	r6	
    ec44:	06 5d       	add	r13,	r6	
    ec46:	0c 43       	clr	r12		
    ec48:	07 43       	clr	r7		
    ec4a:	05 46       	mov	r6,	r5	
    ec4c:	35 82       	sub	#8,	r5	;r2 As==11
    ec4e:	05 9e       	cmp	r14,	r5	
    ec50:	57 28       	jnc	$+176    	;abs 0xed00
    ec52:	2a 4f       	mov	@r15,	r10	
    ec54:	4b 4a       	mov.b	r10,	r11	
    ec56:	8b 10       	swpb	r11		
    ec58:	8a 10       	swpb	r10		
    ec5a:	4a 4a       	mov.b	r10,	r10	
    ec5c:	0a db       	bis	r11,	r10	
    ec5e:	29 42       	mov	#4,	r9	;r2 As==10
    ec60:	3b 43       	mov	#-1,	r11	;r3 As==11
    ec62:	48 49       	mov.b	r9,	r8	
    ec64:	78 f0 0f 00 	and.b	#15,	r8	;#0x000f
    ec68:	06 24       	jz	$+14     	;abs 0xec76
    ec6a:	12 c3       	clrc			
    ec6c:	0b 10       	rrc	r11		
    ec6e:	78 53       	add.b	#-1,	r8	;r3 As==11
    ec70:	fc 23       	jnz	$-6      	;abs 0xec6a
    ec72:	0b 9a       	cmp	r10,	r11	
    ec74:	05 28       	jnc	$+12     	;abs 0xec80
    ec76:	2c 93       	cmp	#2,	r12	;r3 As==10
    ec78:	1c 20       	jnz	$+58     	;abs 0xecb2
    ec7a:	39 90 10 00 	cmp	#16,	r9	;#0x0010
    ec7e:	19 20       	jnz	$+52     	;abs 0xecb2
    ec80:	0b 4a       	mov	r10,	r11	
    ec82:	38 40 10 00 	mov	#16,	r8	;#0x0010
    ec86:	48 89       	sub.b	r9,	r8	
    ec88:	78 f0 0f 00 	and.b	#15,	r8	;#0x000f
    ec8c:	48 93       	tst.b	r8		
    ec8e:	04 24       	jz	$+10     	;abs 0xec98
    ec90:	12 c3       	clrc			
    ec92:	0b 10       	rrc	r11		
    ec94:	78 53       	add.b	#-1,	r8	;r3 As==11
    ec96:	fa 3f       	jmp	$-10     	;abs 0xec8c
    ec98:	3b f0 0f 00 	and	#15,	r11	;#0x000f
    ec9c:	3b 90 0a 00 	cmp	#10,	r11	;#0x000a
    eca0:	03 2c       	jc	$+8      	;abs 0xeca8
    eca2:	7b 50 30 00 	add.b	#48,	r11	;#0x0030
    eca6:	02 3c       	jmp	$+6      	;abs 0xecac
    eca8:	7b 50 57 00 	add.b	#87,	r11	;#0x0057
    ecac:	ce 4b 00 00 	mov.b	r11,	0(r14)	;0x0000(r14)
    ecb0:	1e 53       	inc	r14		
    ecb2:	29 52       	add	#4,	r9	;r2 As==10
    ecb4:	39 90 14 00 	cmp	#20,	r9	;#0x0014
    ecb8:	d3 23       	jnz	$-88     	;abs 0xec60
    ecba:	8f 93 00 00 	tst	0(r15)		;0x0000(r15)
    ecbe:	07 20       	jnz	$+16     	;abs 0xecce
    ecc0:	0c 93       	tst	r12		
    ecc2:	05 20       	jnz	$+12     	;abs 0xecce
    ecc4:	fe 40 3a 00 00 00 	mov.b	#58,	0(r14)	;#0x003a, 0x0000(r14)
    ecca:	1e 53       	inc	r14		
    eccc:	1c 43       	mov	#1,	r12	;r3 As==01
    ecce:	8f 93 00 00 	tst	0(r15)		;0x0000(r15)
    ecd2:	03 24       	jz	$+8      	;abs 0xecda
    ecd4:	1c 93       	cmp	#1,	r12	;r3 As==01
    ecd6:	01 20       	jnz	$+4      	;abs 0xecda
    ecd8:	2c 43       	mov	#2,	r12	;r3 As==10
    ecda:	37 90 07 00 	cmp	#7,	r7	;#0x0007
    ecde:	06 24       	jz	$+14     	;abs 0xecec
    ece0:	1c 93       	cmp	#1,	r12	;r3 As==01
    ece2:	04 24       	jz	$+10     	;abs 0xecec
    ece4:	fe 40 3a 00 00 00 	mov.b	#58,	0(r14)	;#0x003a, 0x0000(r14)
    ecea:	1e 53       	inc	r14		
    ecec:	17 53       	inc	r7		
    ecee:	2f 53       	incd	r15		
    ecf0:	37 92       	cmp	#8,	r7	;r2 As==11
    ecf2:	ad 23       	jnz	$-164    	;abs 0xec4e
    ecf4:	1c 93       	cmp	#1,	r12	;r3 As==01
    ecf6:	04 20       	jnz	$+10     	;abs 0xed00
    ecf8:	fe 40 3a 00 00 00 	mov.b	#58,	0(r14)	;#0x003a, 0x0000(r14)
    ecfe:	1e 53       	inc	r14		
    ed00:	ce 43 00 00 	mov.b	#0,	0(r14)	;r3 As==00, 0x0000(r14)
    ed04:	1e 53       	inc	r14		
    ed06:	0a 4e       	mov	r14,	r10	
    ed08:	0c 4e       	mov	r14,	r12	
    ed0a:	8c 10       	swpb	r12		
    ed0c:	8c 11       	sxt	r12		
    ed0e:	8c 10       	swpb	r12		
    ed10:	8c 11       	sxt	r12		
    ed12:	0b 4c       	mov	r12,	r11	
    ed14:	0e 46       	mov	r6,	r14	
    ed16:	0e 8d       	sub	r13,	r14	
    ed18:	0c 4e       	mov	r14,	r12	
    ed1a:	8e 10       	swpb	r14		
    ed1c:	8e 11       	sxt	r14		
    ed1e:	8e 10       	swpb	r14		
    ed20:	8e 11       	sxt	r14		
    ed22:	0d 4e       	mov	r14,	r13	
    ed24:	0a 8c       	sub	r12,	r10	
    ed26:	0b 7d       	subc	r13,	r11	
    ed28:	0f 4a       	mov	r10,	r15	
    ed2a:	35 41       	pop	r5		
    ed2c:	36 41       	pop	r6		
    ed2e:	37 41       	pop	r7		
    ed30:	38 41       	pop	r8		
    ed32:	39 41       	pop	r9		
    ed34:	3a 41       	pop	r10		
    ed36:	3b 41       	pop	r11		
    ed38:	30 41       	ret			

0000ed3a <ieee154_hashaddr>:
    ed3a:	6e 4f       	mov.b	@r15,	r14	
    ed3c:	7e f0 03 00 	and.b	#3,	r14	;#0x0003
    ed40:	6e 93       	cmp.b	#2,	r14	;r3 As==10
    ed42:	03 20       	jnz	$+8      	;abs 0xed4a
    ed44:	1f 4f 02 00 	mov	2(r15),	r15	;0x0002(r15)
    ed48:	30 41       	ret			
    ed4a:	7e 90 03 00 	cmp.b	#3,	r14	;#0x0003
    ed4e:	0a 20       	jnz	$+22     	;abs 0xed64
    ed50:	0e 4f       	mov	r15,	r14	
    ed52:	2e 53       	incd	r14		
    ed54:	0d 4f       	mov	r15,	r13	
    ed56:	3d 50 0a 00 	add	#10,	r13	;#0x000a
    ed5a:	0f 43       	clr	r15		
    ed5c:	3f 5e       	add	@r14+,	r15	
    ed5e:	0e 9d       	cmp	r13,	r14	
    ed60:	fd 23       	jnz	$-4      	;abs 0xed5c
    ed62:	30 41       	ret			
    ed64:	0f 43       	clr	r15		
    ed66:	30 41       	ret			

0000ed68 <ntohl>:
    ed68:	0b 12       	push	r11		
    ed6a:	0a 12       	push	r10		
    ed6c:	4a 4f       	mov.b	r15,	r10	
    ed6e:	8a 10       	swpb	r10		
    ed70:	8f 10       	swpb	r15		
    ed72:	4f 4f       	mov.b	r15,	r15	
    ed74:	0c 4a       	mov	r10,	r12	
    ed76:	0c df       	bis	r15,	r12	
    ed78:	0d 43       	clr	r13		
    ed7a:	4a 4e       	mov.b	r14,	r10	
    ed7c:	8a 10       	swpb	r10		
    ed7e:	0b 4e       	mov	r14,	r11	
    ed80:	8b 10       	swpb	r11		
    ed82:	4b 4b       	mov.b	r11,	r11	
    ed84:	0e 43       	clr	r14		
    ed86:	0f 43       	clr	r15		
    ed88:	0f 4a       	mov	r10,	r15	
    ed8a:	0f db       	bis	r11,	r15	
    ed8c:	0e dc       	bis	r12,	r14	
    ed8e:	0f dd       	bis	r13,	r15	
    ed90:	3a 41       	pop	r10		
    ed92:	3b 41       	pop	r11		
    ed94:	30 41       	ret			

0000ed96 <ip_memcpy>:
    ed96:	0c 4f       	mov	r15,	r12	
    ed98:	04 3c       	jmp	$+10     	;abs 0xeda2
    ed9a:	fc 4e 00 00 	mov.b	@r14+,	0(r12)	;0x0000(r12)
    ed9e:	1c 53       	inc	r12		
    eda0:	3d 53       	add	#-1,	r13	;r3 As==11
    eda2:	0d 93       	tst	r13		
    eda4:	fa 23       	jnz	$-10     	;abs 0xed9a
    eda6:	30 41       	ret			

0000eda8 <table_init>:
    eda8:	8f 4e 00 00 	mov	r14,	0(r15)	;0x0000(r15)
    edac:	8f 4d 02 00 	mov	r13,	2(r15)	;0x0002(r15)
    edb0:	8f 4c 04 00 	mov	r12,	4(r15)	;0x0004(r15)
    edb4:	30 41       	ret			

0000edb6 <table_search>:
    edb6:	0b 12       	push	r11		
    edb8:	0a 12       	push	r10		
    edba:	09 12       	push	r9		
    edbc:	08 12       	push	r8		
    edbe:	0a 4f       	mov	r15,	r10	
    edc0:	08 4e       	mov	r14,	r8	
    edc2:	09 43       	clr	r9		
    edc4:	13 3c       	jmp	$+40     	;abs 0xedec
    edc6:	02 12       	push	r2		
    edc8:	32 c2       	dint			
    edca:	03 43       	nop			
    edcc:	82 49 32 01 	mov	r9,	&0x0132	
    edd0:	92 4a 02 00 38 01 	mov	2(r10),	&0x0138	;0x0002(r10)
    edd6:	1b 42 3a 01 	mov	&0x013a,r11	
    edda:	32 41       	pop	r2		
    eddc:	2b 5a       	add	@r10,	r11	
    edde:	0f 4b       	mov	r11,	r15	
    ede0:	88 12       	call	r8		
    ede2:	3f 93       	cmp	#-1,	r15	;r3 As==11
    ede4:	06 24       	jz	$+14     	;abs 0xedf2
    ede6:	1f 93       	cmp	#1,	r15	;r3 As==01
    ede8:	05 24       	jz	$+12     	;abs 0xedf4
    edea:	19 53       	inc	r9		
    edec:	19 9a 04 00 	cmp	4(r10),	r9	;0x0004(r10)
    edf0:	ea 2b       	jnc	$-42     	;abs 0xedc6
    edf2:	0b 43       	clr	r11		
    edf4:	0f 4b       	mov	r11,	r15	
    edf6:	38 41       	pop	r8		
    edf8:	39 41       	pop	r9		
    edfa:	3a 41       	pop	r10		
    edfc:	3b 41       	pop	r11		
    edfe:	30 41       	ret			

0000ee00 <table_map>:
    ee00:	0b 12       	push	r11		
    ee02:	0a 12       	push	r10		
    ee04:	09 12       	push	r9		
    ee06:	0b 4f       	mov	r15,	r11	
    ee08:	09 4e       	mov	r14,	r9	
    ee0a:	0a 43       	clr	r10		
    ee0c:	0e 3c       	jmp	$+30     	;abs 0xee2a
    ee0e:	02 12       	push	r2		
    ee10:	32 c2       	dint			
    ee12:	03 43       	nop			
    ee14:	82 4a 32 01 	mov	r10,	&0x0132	
    ee18:	92 4b 02 00 38 01 	mov	2(r11),	&0x0138	;0x0002(r11)
    ee1e:	1f 42 3a 01 	mov	&0x013a,r15	
    ee22:	32 41       	pop	r2		
    ee24:	2f 5b       	add	@r11,	r15	
    ee26:	89 12       	call	r9		
    ee28:	1a 53       	inc	r10		
    ee2a:	1a 9b 04 00 	cmp	4(r11),	r10	;0x0004(r11)
    ee2e:	ef 2b       	jnc	$-32     	;abs 0xee0e
    ee30:	39 41       	pop	r9		
    ee32:	3a 41       	pop	r10		
    ee34:	3b 41       	pop	r11		
    ee36:	30 41       	ret			

0000ee38 <__umulsidi3>:
    ee38:	0b 12       	push	r11		
    ee3a:	0a 12       	push	r10		
    ee3c:	09 12       	push	r9		
    ee3e:	08 12       	push	r8		
    ee40:	07 12       	push	r7		
    ee42:	06 12       	push	r6		
    ee44:	05 12       	push	r5		
    ee46:	04 12       	push	r4		
    ee48:	08 4c       	mov	r12,	r8	
    ee4a:	09 4d       	mov	r13,	r9	
    ee4c:	0a 43       	clr	r10		
    ee4e:	0b 43       	clr	r11		
    ee50:	0c 4e       	mov	r14,	r12	
    ee52:	0d 4f       	mov	r15,	r13	
    ee54:	0e 43       	clr	r14		
    ee56:	0f 43       	clr	r15		
    ee58:	b0 12 a4 ee 	call	#0xeea4	
    ee5c:	34 41       	pop	r4		
    ee5e:	35 41       	pop	r5		
    ee60:	36 41       	pop	r6		
    ee62:	37 41       	pop	r7		
    ee64:	38 41       	pop	r8		
    ee66:	39 41       	pop	r9		
    ee68:	3a 41       	pop	r10		
    ee6a:	3b 41       	pop	r11		
    ee6c:	30 41       	ret			

0000ee6e <__muldi3>:
    ee6e:	0b 12       	push	r11		
    ee70:	0a 12       	push	r10		
    ee72:	09 12       	push	r9		
    ee74:	08 12       	push	r8		
    ee76:	07 12       	push	r7		
    ee78:	06 12       	push	r6		
    ee7a:	05 12       	push	r5		
    ee7c:	04 12       	push	r4		
    ee7e:	18 41 12 00 	mov	18(r1),	r8	;0x0012(r1)
    ee82:	19 41 14 00 	mov	20(r1),	r9	;0x0014(r1)
    ee86:	1a 41 16 00 	mov	22(r1),	r10	;0x0016(r1)
    ee8a:	1b 41 18 00 	mov	24(r1),	r11	;0x0018(r1)
    ee8e:	b0 12 a4 ee 	call	#0xeea4	
    ee92:	34 41       	pop	r4		
    ee94:	35 41       	pop	r5		
    ee96:	36 41       	pop	r6		
    ee98:	37 41       	pop	r7		
    ee9a:	38 41       	pop	r8		
    ee9c:	39 41       	pop	r9		
    ee9e:	3a 41       	pop	r10		
    eea0:	3b 41       	pop	r11		
    eea2:	30 41       	ret			

0000eea4 <__xabi_muldi3>:
    eea4:	04 43       	clr	r4		
    eea6:	05 43       	clr	r5		
    eea8:	06 43       	clr	r6		
    eeaa:	07 43       	clr	r7		
    eeac:	0e 3c       	jmp	$+30     	;abs 0xeeca
    eeae:	12 c3       	clrc			
    eeb0:	0b 10       	rrc	r11		
    eeb2:	0a 10       	rrc	r10		
    eeb4:	09 10       	rrc	r9		
    eeb6:	08 10       	rrc	r8		
    eeb8:	04 28       	jnc	$+10     	;abs 0xeec2
    eeba:	04 5c       	add	r12,	r4	
    eebc:	05 6d       	addc	r13,	r5	
    eebe:	06 6e       	addc	r14,	r6	
    eec0:	07 6f       	addc	r15,	r7	
    eec2:	0c 5c       	rla	r12		
    eec4:	0d 6d       	rlc	r13		
    eec6:	0e 6e       	rlc	r14		
    eec8:	0f 6f       	rlc	r15		
    eeca:	08 93       	tst	r8		
    eecc:	f0 23       	jnz	$-30     	;abs 0xeeae
    eece:	09 93       	tst	r9		
    eed0:	ee 23       	jnz	$-34     	;abs 0xeeae
    eed2:	0a 93       	tst	r10		
    eed4:	ec 23       	jnz	$-38     	;abs 0xeeae
    eed6:	0b 93       	tst	r11		
    eed8:	ea 23       	jnz	$-42     	;abs 0xeeae
    eeda:	0c 44       	mov	r4,	r12	
    eedc:	0d 45       	mov	r5,	r13	
    eede:	0e 46       	mov	r6,	r14	
    eee0:	0f 47       	mov	r7,	r15	
    eee2:	30 41       	ret			

0000eee4 <__udivhi3>:
    eee4:	7c 40 10 00 	mov.b	#16,	r12	;#0x0010
    eee8:	0d 4e       	mov	r14,	r13	
    eeea:	0e 43       	clr	r14		
    eeec:	0f 5f       	rla	r15		
    eeee:	0e 6e       	rlc	r14		
    eef0:	0e 9d       	cmp	r13,	r14	
    eef2:	02 28       	jnc	$+6      	;abs 0xeef8
    eef4:	0e 8d       	sub	r13,	r14	
    eef6:	1f d3       	bis	#1,	r15	;r3 As==01
    eef8:	1c 83       	dec	r12		
    eefa:	f8 23       	jnz	$-14     	;abs 0xeeec
    eefc:	30 41       	ret			

0000eefe <__umodhi3>:
    eefe:	b0 12 e4 ee 	call	#0xeee4	
    ef02:	0f 4e       	mov	r14,	r15	
    ef04:	30 41       	ret			

0000ef06 <__divhi3>:
    ef06:	0d 43       	clr	r13		
    ef08:	0f 93       	tst	r15		
    ef0a:	04 34       	jge	$+10     	;abs 0xef14
    ef0c:	3d 40 03 00 	mov	#3,	r13	;#0x0003
    ef10:	3f e3       	inv	r15		
    ef12:	1f 53       	inc	r15		
    ef14:	0e 93       	tst	r14		
    ef16:	03 34       	jge	$+8      	;abs 0xef1e
    ef18:	5d e3       	xor.b	#1,	r13	;r3 As==01
    ef1a:	3e e3       	inv	r14		
    ef1c:	1e 53       	inc	r14		
    ef1e:	0d 12       	push	r13		
    ef20:	b0 12 e4 ee 	call	#0xeee4	
    ef24:	3d 41       	pop	r13		
    ef26:	6d b3       	bit.b	#2,	r13	;r3 As==10
    ef28:	02 24       	jz	$+6      	;abs 0xef2e
    ef2a:	3e e3       	inv	r14		
    ef2c:	1e 53       	inc	r14		
    ef2e:	5d b3       	bit.b	#1,	r13	;r3 As==01
    ef30:	02 24       	jz	$+6      	;abs 0xef36
    ef32:	3f e3       	inv	r15		
    ef34:	1f 53       	inc	r15		
    ef36:	30 41       	ret			

0000ef38 <__modhi3>:
    ef38:	b0 12 06 ef 	call	#0xef06	
    ef3c:	0f 4e       	mov	r14,	r15	
    ef3e:	30 41       	ret			

0000ef40 <__udivsi3>:
    ef40:	0b 12       	push	r11		
    ef42:	0a 12       	push	r10		
    ef44:	09 12       	push	r9		
    ef46:	79 40 20 00 	mov.b	#32,	r9	;#0x0020
    ef4a:	0a 4c       	mov	r12,	r10	
    ef4c:	0b 4d       	mov	r13,	r11	
    ef4e:	0c 43       	clr	r12		
    ef50:	0d 43       	clr	r13		
    ef52:	0e 5e       	rla	r14		
    ef54:	0f 6f       	rlc	r15		
    ef56:	0c 6c       	rlc	r12		
    ef58:	0d 6d       	rlc	r13		
    ef5a:	0d 9b       	cmp	r11,	r13	
    ef5c:	06 28       	jnc	$+14     	;abs 0xef6a
    ef5e:	02 20       	jnz	$+6      	;abs 0xef64
    ef60:	0c 9a       	cmp	r10,	r12	
    ef62:	03 28       	jnc	$+8      	;abs 0xef6a
    ef64:	0c 8a       	sub	r10,	r12	
    ef66:	0d 7b       	subc	r11,	r13	
    ef68:	1e d3       	bis	#1,	r14	;r3 As==01
    ef6a:	19 83       	dec	r9		
    ef6c:	f2 23       	jnz	$-26     	;abs 0xef52
    ef6e:	39 41       	pop	r9		
    ef70:	3a 41       	pop	r10		
    ef72:	3b 41       	pop	r11		
    ef74:	30 41       	ret			

0000ef76 <__umodsi3>:
    ef76:	b0 12 40 ef 	call	#0xef40	
    ef7a:	0e 4c       	mov	r12,	r14	
    ef7c:	0f 4d       	mov	r13,	r15	
    ef7e:	30 41       	ret			

0000ef80 <memcmp>:
    ef80:	0b 12       	push	r11		
    ef82:	0d 93       	tst	r13		
    ef84:	0a 24       	jz	$+22     	;abs 0xef9a
    ef86:	7b 4f       	mov.b	@r15+,	r11	
    ef88:	7c 4e       	mov.b	@r14+,	r12	
    ef8a:	4b 9c       	cmp.b	r12,	r11	
    ef8c:	04 24       	jz	$+10     	;abs 0xef96
    ef8e:	4f 4b       	mov.b	r11,	r15	
    ef90:	4e 4c       	mov.b	r12,	r14	
    ef92:	0f 8e       	sub	r14,	r15	
    ef94:	03 3c       	jmp	$+8      	;abs 0xef9c
    ef96:	3d 53       	add	#-1,	r13	;r3 As==11
    ef98:	f4 3f       	jmp	$-22     	;abs 0xef82
    ef9a:	0f 43       	clr	r15		
    ef9c:	3b 41       	pop	r11		
    ef9e:	30 41       	ret			

0000efa0 <memcpy>:
    efa0:	0b 12       	push	r11		
    efa2:	0a 12       	push	r10		
    efa4:	09 12       	push	r9		
    efa6:	08 12       	push	r8		
    efa8:	07 12       	push	r7		
    efaa:	0d 93       	tst	r13		
    efac:	70 24       	jz	$+226    	;abs 0xf08e
    efae:	0f 9e       	cmp	r14,	r15	
    efb0:	6e 24       	jz	$+222    	;abs 0xf08e
    efb2:	34 2c       	jc	$+106    	;abs 0xf01c
    efb4:	0c 4e       	mov	r14,	r12	
    efb6:	0c df       	bis	r15,	r12	
    efb8:	1c f3       	and	#1,	r12	;r3 As==01
    efba:	1b 24       	jz	$+56     	;abs 0xeff2
    efbc:	0c 4e       	mov	r14,	r12	
    efbe:	0c ef       	xor	r15,	r12	
    efc0:	1c f3       	and	#1,	r12	;r3 As==01
    efc2:	07 20       	jnz	$+16     	;abs 0xefd2
    efc4:	2d 93       	cmp	#2,	r13	;r3 As==10
    efc6:	07 28       	jnc	$+16     	;abs 0xefd6
    efc8:	0b 4e       	mov	r14,	r11	
    efca:	1b f3       	and	#1,	r11	;r3 As==01
    efcc:	2c 43       	mov	#2,	r12	;r3 As==10
    efce:	0c 8b       	sub	r11,	r12	
    efd0:	03 3c       	jmp	$+8      	;abs 0xefd8
    efd2:	0c 4d       	mov	r13,	r12	
    efd4:	01 3c       	jmp	$+4      	;abs 0xefd8
    efd6:	1c 43       	mov	#1,	r12	;r3 As==01
    efd8:	0d 8c       	sub	r12,	r13	
    efda:	0a 4c       	mov	r12,	r10	
    efdc:	09 4e       	mov	r14,	r9	
    efde:	0b 4f       	mov	r15,	r11	
    efe0:	fb 49 00 00 	mov.b	@r9+,	0(r11)	;0x0000(r11)
    efe4:	1b 53       	inc	r11		
    efe6:	3a 53       	add	#-1,	r10	;r3 As==11
    efe8:	fb 23       	jnz	$-8      	;abs 0xefe0
    efea:	0a 4f       	mov	r15,	r10	
    efec:	0a 5c       	add	r12,	r10	
    efee:	0e 5c       	add	r12,	r14	
    eff0:	01 3c       	jmp	$+4      	;abs 0xeff4
    eff2:	0a 4f       	mov	r15,	r10	
    eff4:	0b 4d       	mov	r13,	r11	
    eff6:	12 c3       	clrc			
    eff8:	0b 10       	rrc	r11		
    effa:	0b 24       	jz	$+24     	;abs 0xf012
    effc:	09 4b       	mov	r11,	r9	
    effe:	08 4e       	mov	r14,	r8	
    f000:	0c 4a       	mov	r10,	r12	
    f002:	bc 48 00 00 	mov	@r8+,	0(r12)	;0x0000(r12)
    f006:	2c 53       	incd	r12		
    f008:	39 53       	add	#-1,	r9	;r3 As==11
    f00a:	fb 23       	jnz	$-8      	;abs 0xf002
    f00c:	0b 5b       	rla	r11		
    f00e:	0e 5b       	add	r11,	r14	
    f010:	0a 5b       	add	r11,	r10	
    f012:	1d f3       	and	#1,	r13	;r3 As==01
    f014:	3c 24       	jz	$+122    	;abs 0xf08e
    f016:	ea 4e 00 00 	mov.b	@r14,	0(r10)	;0x0000(r10)
    f01a:	39 3c       	jmp	$+116    	;abs 0xf08e
    f01c:	0e 5d       	add	r13,	r14	
    f01e:	0c 4f       	mov	r15,	r12	
    f020:	0c 5d       	add	r13,	r12	
    f022:	0b 4c       	mov	r12,	r11	
    f024:	0b de       	bis	r14,	r11	
    f026:	1b f3       	and	#1,	r11	;r3 As==01
    f028:	1b 24       	jz	$+56     	;abs 0xf060
    f02a:	0b 4c       	mov	r12,	r11	
    f02c:	0b ee       	xor	r14,	r11	
    f02e:	1b f3       	and	#1,	r11	;r3 As==01
    f030:	06 20       	jnz	$+14     	;abs 0xf03e
    f032:	3d 90 03 00 	cmp	#3,	r13	;#0x0003
    f036:	03 28       	jnc	$+8      	;abs 0xf03e
    f038:	0b 4e       	mov	r14,	r11	
    f03a:	1b f3       	and	#1,	r11	;r3 As==01
    f03c:	01 3c       	jmp	$+4      	;abs 0xf040
    f03e:	0b 4d       	mov	r13,	r11	
    f040:	0d 8b       	sub	r11,	r13	
    f042:	09 4e       	mov	r14,	r9	
    f044:	0a 4c       	mov	r12,	r10	
    f046:	08 4b       	mov	r11,	r8	
    f048:	08 8c       	sub	r12,	r8	
    f04a:	3a 53       	add	#-1,	r10	;r3 As==11
    f04c:	39 53       	add	#-1,	r9	;r3 As==11
    f04e:	ea 49 00 00 	mov.b	@r9,	0(r10)	;0x0000(r10)
    f052:	07 4a       	mov	r10,	r7	
    f054:	07 58       	add	r8,	r7	
    f056:	f9 23       	jnz	$-12     	;abs 0xf04a
    f058:	3b e3       	inv	r11		
    f05a:	1b 53       	inc	r11		
    f05c:	0c 5b       	add	r11,	r12	
    f05e:	0e 5b       	add	r11,	r14	
    f060:	0b 4d       	mov	r13,	r11	
    f062:	12 c3       	clrc			
    f064:	0b 10       	rrc	r11		
    f066:	0e 24       	jz	$+30     	;abs 0xf084
    f068:	0a 4b       	mov	r11,	r10	
    f06a:	08 4e       	mov	r14,	r8	
    f06c:	09 4c       	mov	r12,	r9	
    f06e:	28 83       	decd	r8		
    f070:	29 83       	decd	r9		
    f072:	a9 48 00 00 	mov	@r8,	0(r9)	;0x0000(r9)
    f076:	3a 53       	add	#-1,	r10	;r3 As==11
    f078:	fa 23       	jnz	$-10     	;abs 0xf06e
    f07a:	0a 8b       	sub	r11,	r10	
    f07c:	0b 4a       	mov	r10,	r11	
    f07e:	0b 5b       	rla	r11		
    f080:	0e 5b       	add	r11,	r14	
    f082:	0c 5b       	add	r11,	r12	
    f084:	1d f3       	and	#1,	r13	;r3 As==01
    f086:	03 24       	jz	$+8      	;abs 0xf08e
    f088:	dc 4e ff ff ff ff 	mov.b	-1(r14),-1(r12)	;0xffff(r14), 0xffff(r12)
    f08e:	37 41       	pop	r7		
    f090:	38 41       	pop	r8		
    f092:	39 41       	pop	r9		
    f094:	3a 41       	pop	r10		
    f096:	3b 41       	pop	r11		
    f098:	30 41       	ret			

0000f09a <memmove>:
    f09a:	0b 12       	push	r11		
    f09c:	0a 12       	push	r10		
    f09e:	09 12       	push	r9		
    f0a0:	08 12       	push	r8		
    f0a2:	07 12       	push	r7		
    f0a4:	0d 93       	tst	r13		
    f0a6:	70 24       	jz	$+226    	;abs 0xf188
    f0a8:	0f 9e       	cmp	r14,	r15	
    f0aa:	6e 24       	jz	$+222    	;abs 0xf188
    f0ac:	34 2c       	jc	$+106    	;abs 0xf116
    f0ae:	0c 4e       	mov	r14,	r12	
    f0b0:	0c df       	bis	r15,	r12	
    f0b2:	1c f3       	and	#1,	r12	;r3 As==01
    f0b4:	1b 24       	jz	$+56     	;abs 0xf0ec
    f0b6:	0c 4e       	mov	r14,	r12	
    f0b8:	0c ef       	xor	r15,	r12	
    f0ba:	1c f3       	and	#1,	r12	;r3 As==01
    f0bc:	07 20       	jnz	$+16     	;abs 0xf0cc
    f0be:	2d 93       	cmp	#2,	r13	;r3 As==10
    f0c0:	07 28       	jnc	$+16     	;abs 0xf0d0
    f0c2:	0b 4e       	mov	r14,	r11	
    f0c4:	1b f3       	and	#1,	r11	;r3 As==01
    f0c6:	2c 43       	mov	#2,	r12	;r3 As==10
    f0c8:	0c 8b       	sub	r11,	r12	
    f0ca:	03 3c       	jmp	$+8      	;abs 0xf0d2
    f0cc:	0c 4d       	mov	r13,	r12	
    f0ce:	01 3c       	jmp	$+4      	;abs 0xf0d2
    f0d0:	1c 43       	mov	#1,	r12	;r3 As==01
    f0d2:	0d 8c       	sub	r12,	r13	
    f0d4:	0a 4c       	mov	r12,	r10	
    f0d6:	09 4e       	mov	r14,	r9	
    f0d8:	0b 4f       	mov	r15,	r11	
    f0da:	fb 49 00 00 	mov.b	@r9+,	0(r11)	;0x0000(r11)
    f0de:	1b 53       	inc	r11		
    f0e0:	3a 53       	add	#-1,	r10	;r3 As==11
    f0e2:	fb 23       	jnz	$-8      	;abs 0xf0da
    f0e4:	0a 4f       	mov	r15,	r10	
    f0e6:	0a 5c       	add	r12,	r10	
    f0e8:	0e 5c       	add	r12,	r14	
    f0ea:	01 3c       	jmp	$+4      	;abs 0xf0ee
    f0ec:	0a 4f       	mov	r15,	r10	
    f0ee:	0b 4d       	mov	r13,	r11	
    f0f0:	12 c3       	clrc			
    f0f2:	0b 10       	rrc	r11		
    f0f4:	0b 24       	jz	$+24     	;abs 0xf10c
    f0f6:	09 4b       	mov	r11,	r9	
    f0f8:	08 4e       	mov	r14,	r8	
    f0fa:	0c 4a       	mov	r10,	r12	
    f0fc:	bc 48 00 00 	mov	@r8+,	0(r12)	;0x0000(r12)
    f100:	2c 53       	incd	r12		
    f102:	39 53       	add	#-1,	r9	;r3 As==11
    f104:	fb 23       	jnz	$-8      	;abs 0xf0fc
    f106:	0b 5b       	rla	r11		
    f108:	0e 5b       	add	r11,	r14	
    f10a:	0a 5b       	add	r11,	r10	
    f10c:	1d f3       	and	#1,	r13	;r3 As==01
    f10e:	3c 24       	jz	$+122    	;abs 0xf188
    f110:	ea 4e 00 00 	mov.b	@r14,	0(r10)	;0x0000(r10)
    f114:	39 3c       	jmp	$+116    	;abs 0xf188
    f116:	0e 5d       	add	r13,	r14	
    f118:	0c 4f       	mov	r15,	r12	
    f11a:	0c 5d       	add	r13,	r12	
    f11c:	0b 4c       	mov	r12,	r11	
    f11e:	0b de       	bis	r14,	r11	
    f120:	1b f3       	and	#1,	r11	;r3 As==01
    f122:	1b 24       	jz	$+56     	;abs 0xf15a
    f124:	0b 4c       	mov	r12,	r11	
    f126:	0b ee       	xor	r14,	r11	
    f128:	1b f3       	and	#1,	r11	;r3 As==01
    f12a:	06 20       	jnz	$+14     	;abs 0xf138
    f12c:	3d 90 03 00 	cmp	#3,	r13	;#0x0003
    f130:	03 28       	jnc	$+8      	;abs 0xf138
    f132:	0b 4e       	mov	r14,	r11	
    f134:	1b f3       	and	#1,	r11	;r3 As==01
    f136:	01 3c       	jmp	$+4      	;abs 0xf13a
    f138:	0b 4d       	mov	r13,	r11	
    f13a:	0d 8b       	sub	r11,	r13	
    f13c:	09 4e       	mov	r14,	r9	
    f13e:	0a 4c       	mov	r12,	r10	
    f140:	08 4b       	mov	r11,	r8	
    f142:	08 8c       	sub	r12,	r8	
    f144:	3a 53       	add	#-1,	r10	;r3 As==11
    f146:	39 53       	add	#-1,	r9	;r3 As==11
    f148:	ea 49 00 00 	mov.b	@r9,	0(r10)	;0x0000(r10)
    f14c:	07 4a       	mov	r10,	r7	
    f14e:	07 58       	add	r8,	r7	
    f150:	f9 23       	jnz	$-12     	;abs 0xf144
    f152:	3b e3       	inv	r11		
    f154:	1b 53       	inc	r11		
    f156:	0c 5b       	add	r11,	r12	
    f158:	0e 5b       	add	r11,	r14	
    f15a:	0b 4d       	mov	r13,	r11	
    f15c:	12 c3       	clrc			
    f15e:	0b 10       	rrc	r11		
    f160:	0e 24       	jz	$+30     	;abs 0xf17e
    f162:	0a 4b       	mov	r11,	r10	
    f164:	08 4e       	mov	r14,	r8	
    f166:	09 4c       	mov	r12,	r9	
    f168:	28 83       	decd	r8		
    f16a:	29 83       	decd	r9		
    f16c:	a9 48 00 00 	mov	@r8,	0(r9)	;0x0000(r9)
    f170:	3a 53       	add	#-1,	r10	;r3 As==11
    f172:	fa 23       	jnz	$-10     	;abs 0xf168
    f174:	0a 8b       	sub	r11,	r10	
    f176:	0b 4a       	mov	r10,	r11	
    f178:	0b 5b       	rla	r11		
    f17a:	0e 5b       	add	r11,	r14	
    f17c:	0c 5b       	add	r11,	r12	
    f17e:	1d f3       	and	#1,	r13	;r3 As==01
    f180:	03 24       	jz	$+8      	;abs 0xf188
    f182:	dc 4e ff ff ff ff 	mov.b	-1(r14),-1(r12)	;0xffff(r14), 0xffff(r12)
    f188:	37 41       	pop	r7		
    f18a:	38 41       	pop	r8		
    f18c:	39 41       	pop	r9		
    f18e:	3a 41       	pop	r10		
    f190:	3b 41       	pop	r11		
    f192:	30 41       	ret			

0000f194 <memset>:
    f194:	0b 12       	push	r11		
    f196:	0a 12       	push	r10		
    f198:	09 12       	push	r9		
    f19a:	08 12       	push	r8		
    f19c:	3d 90 06 00 	cmp	#6,	r13	;#0x0006
    f1a0:	09 2c       	jc	$+20     	;abs 0xf1b4
    f1a2:	0c 4f       	mov	r15,	r12	
    f1a4:	04 3c       	jmp	$+10     	;abs 0xf1ae
    f1a6:	cc 4e 00 00 	mov.b	r14,	0(r12)	;0x0000(r12)
    f1aa:	1c 53       	inc	r12		
    f1ac:	3d 53       	add	#-1,	r13	;r3 As==11
    f1ae:	0d 93       	tst	r13		
    f1b0:	fa 23       	jnz	$-10     	;abs 0xf1a6
    f1b2:	20 3c       	jmp	$+66     	;abs 0xf1f4
    f1b4:	4e 4e       	mov.b	r14,	r14	
    f1b6:	4b 4e       	mov.b	r14,	r11	
    f1b8:	0b 93       	tst	r11		
    f1ba:	03 24       	jz	$+8      	;abs 0xf1c2
    f1bc:	0c 4b       	mov	r11,	r12	
    f1be:	8c 10       	swpb	r12		
    f1c0:	0b dc       	bis	r12,	r11	
    f1c2:	1f b3       	bit	#1,	r15	;r3 As==01
    f1c4:	06 24       	jz	$+14     	;abs 0xf1d2
    f1c6:	3d 53       	add	#-1,	r13	;r3 As==11
    f1c8:	cf 4e 00 00 	mov.b	r14,	0(r15)	;0x0000(r15)
    f1cc:	09 4f       	mov	r15,	r9	
    f1ce:	19 53       	inc	r9		
    f1d0:	01 3c       	jmp	$+4      	;abs 0xf1d4
    f1d2:	09 4f       	mov	r15,	r9	
    f1d4:	0c 4d       	mov	r13,	r12	
    f1d6:	12 c3       	clrc			
    f1d8:	0c 10       	rrc	r12		
    f1da:	0a 49       	mov	r9,	r10	
    f1dc:	08 4c       	mov	r12,	r8	
    f1de:	8a 4b 00 00 	mov	r11,	0(r10)	;0x0000(r10)
    f1e2:	2a 53       	incd	r10		
    f1e4:	38 53       	add	#-1,	r8	;r3 As==11
    f1e6:	fb 23       	jnz	$-8      	;abs 0xf1de
    f1e8:	0c 5c       	rla	r12		
    f1ea:	0c 59       	add	r9,	r12	
    f1ec:	1d f3       	and	#1,	r13	;r3 As==01
    f1ee:	02 24       	jz	$+6      	;abs 0xf1f4
    f1f0:	cc 4e 00 00 	mov.b	r14,	0(r12)	;0x0000(r12)
    f1f4:	38 41       	pop	r8		
    f1f6:	39 41       	pop	r9		
    f1f8:	3a 41       	pop	r10		
    f1fa:	3b 41       	pop	r11		
    f1fc:	30 41       	ret			

0000f1fe <_unexpected_>:
    f1fe:	00 13       	reti			

Disassembly of section .vectors:

0000ffe0 <__ivtbl_16>:
    ffe0:	3a e4 7c e5 d8 e3 a0 e3 88 e4 36 e3 18 e3 fc 47     :.|.......6....G
    fff0:	86 e6 2a e6 fc 47 fc 47 7a e3 5c e3 fc 47 00 40     ..*..G.Gz.\..G.@
